Archive member included to satisfy reference by file (symbol)

arch/arm/lib/lib.a(ashldi3.o)
                              drivers/built-in.o (__aeabi_llsl)
arch/arm/lib/lib.a(ashrdi3.o)
                              drivers/mtd/nand/built-in.o (__aeabi_lasr)
arch/arm/lib/lib.a(lib1funcs.o)
                              arch/arm/mach-omap2/built-in.o (__aeabi_uidiv)
arch/arm/lib/lib.a(lshrdi3.o)
                              drivers/mtd/nand/built-in.o (__aeabi_llsr)
arch/arm/lib/lib.a(div0.o)    arch/arm/lib/lib.a(lib1funcs.o) (__div0)

Discarded input sections

 .data          0x0000000000000000        0x0 arch/arm/cpu/armv7/start.o
 .bss           0x0000000000000000        0x0 arch/arm/cpu/armv7/start.o
 .text          0x0000000000000000        0x0 board/ti/am335x/built-in.o
 .text.do_board_detect
                0x0000000000000000       0x2c board/ti/am335x/built-in.o
 .text.board_fit_config_name_match
                0x0000000000000000       0xe0 board/ti/am335x/built-in.o
 .data          0x0000000000000000        0x0 board/ti/am335x/built-in.o
 .bss           0x0000000000000000        0x0 board/ti/am335x/built-in.o
 .text.mmu_page_table_flush
                0x0000000000000000       0x1e arch/arm/cpu/armv7/built-in.o
 .text.v7_arch_cp15_set_l2aux_ctrl
                0x0000000000000000        0x6 arch/arm/cpu/armv7/built-in.o
 .text.v7_arch_cp15_set_acr
                0x0000000000000000        0x6 arch/arm/cpu/armv7/built-in.o
 .text.wait_on_value
                0x0000000000000000       0x1e arch/arm/cpu/armv7/built-in.o
 .data          0x0000000000000000        0x0 arch/arm/cpu/armv7/built-in.o
 .bss           0x0000000000000000        0x0 arch/arm/cpu/armv7/built-in.o
 .text.armv7_boot_nonsec_default
                0x0000000000000000        0x4 arch/arm/lib/built-in.o
 .text.enable_caches
                0x0000000000000000        0xc arch/arm/lib/built-in.o
 .text.invalidate_dcache_range
                0x0000000000000000        0x2 arch/arm/lib/built-in.o
 .text.flush_dcache_range
                0x0000000000000000        0x2 arch/arm/lib/built-in.o
 .text.flush_dcache_all
                0x0000000000000000        0xa arch/arm/lib/built-in.o
 .text.invalidate_l2_cache
                0x0000000000000000        0xc arch/arm/lib/built-in.o
 .text.arm_init_before_mmu
                0x0000000000000000        0x2 arch/arm/lib/built-in.o
 .text.arm_init_domains
                0x0000000000000000        0x2 arch/arm/lib/built-in.o
 .text.mmu_page_table_flush
                0x0000000000000000       0x10 arch/arm/lib/built-in.o
 .text.mmu_set_region_dcache_behaviour
                0x0000000000000000       0x68 arch/arm/lib/built-in.o
 .text.dram_bank_mmu_setup
                0x0000000000000000       0x40 arch/arm/lib/built-in.o
 .text.icache_status
                0x0000000000000000        0xa arch/arm/lib/built-in.o
 .text.fdt_psci
                0x0000000000000000        0x4 arch/arm/lib/built-in.o
 .rodata.__func__.7939
                0x0000000000000000       0x15 arch/arm/lib/built-in.o
 .rodata.__func__.7950
                0x0000000000000000       0x20 arch/arm/lib/built-in.o
 .rodata.__func__.7959
                0x0000000000000000       0x14 arch/arm/lib/built-in.o
 .data          0x0000000000000000        0x0 arch/arm/lib/built-in.o
 .__secure_end  0x0000000000000000        0x0 arch/arm/lib/built-in.o
 .__secure_stack_start
                0x0000000000000000        0x0 arch/arm/lib/built-in.o
 .__secure_stack_end
                0x0000000000000000        0x0 arch/arm/lib/built-in.o
 .__secure_start
                0x0000000000000000        0x0 arch/arm/lib/built-in.o
 .bss           0x0000000000000000        0x0 arch/arm/lib/built-in.o
 .text.get_dpll_mpu_params
                0x0000000000000000        0x8 arch/arm/mach-omap2/built-in.o
 .text.get_dpll_core_params
                0x0000000000000000       0x14 arch/arm/mach-omap2/built-in.o
 .text.get_dpll_per_params
                0x0000000000000000       0x14 arch/arm/mach-omap2/built-in.o
 .text.setup_clocks_for_console
                0x0000000000000000       0x7c arch/arm/mach-omap2/built-in.o
 .text.enable_basic_clocks
                0x0000000000000000       0x44 arch/arm/mach-omap2/built-in.o
 .text.set_mpu_spreadspectrum
                0x0000000000000000       0xcc arch/arm/mach-omap2/built-in.o
 .text.do_setup_dpll
                0x0000000000000000       0xe0 arch/arm/mach-omap2/built-in.o
 .text.do_enable_clocks
                0x0000000000000000       0x78 arch/arm/mach-omap2/built-in.o
 .text.do_disable_clocks
                0x0000000000000000       0x80 arch/arm/mach-omap2/built-in.o
 .text.scale_vcores
                0x0000000000000000        0x2 arch/arm/mach-omap2/built-in.o
 .text.setup_early_clocks
                0x0000000000000000       0x12 arch/arm/mach-omap2/built-in.o
 .text.prcm_init
                0x0000000000000000       0x5c arch/arm/mach-omap2/built-in.o
 .text.get_sysboot_value
                0x0000000000000000       0x14 arch/arm/mach-omap2/built-in.o
 .text.get_sys_clk_index
                0x0000000000000000       0x14 arch/arm/mach-omap2/built-in.o
 .text.am335x_get_efuse_mpu_max_freq
                0x0000000000000000       0x7c arch/arm/mach-omap2/built-in.o
 .text.am335x_get_tps65910_mpu_vdd
                0x0000000000000000       0x36 arch/arm/mach-omap2/built-in.o
 .text.configure_mr
                0x0000000000000000       0xa8 arch/arm/mach-omap2/built-in.o
 .text.config_sdram_emif4d5
                0x0000000000000000      0x164 arch/arm/mach-omap2/built-in.o
 .text.config_sdram
                0x0000000000000000       0x80 arch/arm/mach-omap2/built-in.o
 .text.set_sdram_timings
                0x0000000000000000       0x3c arch/arm/mach-omap2/built-in.o
 .text.config_ddr_phy
                0x0000000000000000      0x1ac arch/arm/mach-omap2/built-in.o
 .text.config_cmd_ctrl
                0x0000000000000000       0x44 arch/arm/mach-omap2/built-in.o
 .text.config_ddr_data
                0x0000000000000000       0x4c arch/arm/mach-omap2/built-in.o
 .text.config_io_ctrl
                0x0000000000000000       0x34 arch/arm/mach-omap2/built-in.o
 .text.cpu_mmc_init
                0x0000000000000000       0x28 arch/arm/mach-omap2/built-in.o
 .text.configure_module_pin_mux
                0x0000000000000000       0x1c arch/arm/mach-omap2/built-in.o
 .text.ft_cpu_setup
                0x0000000000000000        0x2 arch/arm/mach-omap2/built-in.o
 .text.warm_reset
                0x0000000000000000       0x1c arch/arm/mach-omap2/built-in.o
 .text.setup_warmreset_time
                0x0000000000000000        0x2 arch/arm/mach-omap2/built-in.o
 .text.do_cancel_out
                0x0000000000000000       0x44 arch/arm/mach-omap2/built-in.o
 .text.cancel_out
                0x0000000000000000       0x62 arch/arm/mach-omap2/built-in.o
 .text.omap_die_id
                0x0000000000000000        0xc arch/arm/mach-omap2/built-in.o
 .text.omap_die_id_serial
                0x0000000000000000       0x4c arch/arm/mach-omap2/built-in.o
 .text.omap_die_id_get_board_serial
                0x0000000000000000       0x28 arch/arm/mach-omap2/built-in.o
 .text.omap_die_id_usbethaddr
                0x0000000000000000       0x58 arch/arm/mach-omap2/built-in.o
 .text.omap_die_id_display
                0x0000000000000000       0x2c arch/arm/mach-omap2/built-in.o
 .text.omap_sys_boot_device
                0x0000000000000000        0x4 arch/arm/mach-omap2/built-in.o
 .text.save_omap_boot_params
                0x0000000000000000       0x7c arch/arm/mach-omap2/built-in.o
 .rodata.cmrtc  0x0000000000000000        0x4 arch/arm/mach-omap2/built-in.o
 .rodata.dpll_core_regs
                0x0000000000000000       0x24 arch/arm/mach-omap2/built-in.o
 .rodata.dpll_mpu_opp
                0x0000000000000000      0x180 arch/arm/mach-omap2/built-in.o
 .rodata.dpll_ddr3_400MHz
                0x0000000000000000       0x40 arch/arm/mach-omap2/built-in.o
 .rodata.dpll_per_regs
                0x0000000000000000       0x24 arch/arm/mach-omap2/built-in.o
 .rodata.cmdpll
                0x0000000000000000        0x4 arch/arm/mach-omap2/built-in.o
 .rodata.cmper  0x0000000000000000        0x4 arch/arm/mach-omap2/built-in.o
 .rodata.dpll_core_opp100
                0x0000000000000000       0x10 arch/arm/mach-omap2/built-in.o
 .rodata.dpll_ddr3_303MHz
                0x0000000000000000       0x40 arch/arm/mach-omap2/built-in.o
 .rodata.dpll_mpu_regs
                0x0000000000000000       0x24 arch/arm/mach-omap2/built-in.o
 .rodata.cmwkup
                0x0000000000000000        0x4 arch/arm/mach-omap2/built-in.o
 .rodata.dpll_ddr2_266MHz
                0x0000000000000000       0x40 arch/arm/mach-omap2/built-in.o
 .rodata.dpll_per_192MHz
                0x0000000000000000       0x40 arch/arm/mach-omap2/built-in.o
 .rodata.dpll_ddr_regs
                0x0000000000000000       0x24 arch/arm/mach-omap2/built-in.o
 .rodata.dpll_core_1000MHz
                0x0000000000000000       0x40 arch/arm/mach-omap2/built-in.o
 .rodata.ddr_data_reg
                0x0000000000000000        0x8 arch/arm/mach-omap2/built-in.o
 .rodata.ddr_cmd_reg
                0x0000000000000000        0x8 arch/arm/mach-omap2/built-in.o
 .rodata.emif_reg
                0x0000000000000000        0x8 arch/arm/mach-omap2/built-in.o
 .data          0x0000000000000000        0x0 arch/arm/mach-omap2/built-in.o
 .data.dpll_mpu_opp100
                0x0000000000000000       0x10 arch/arm/mach-omap2/built-in.o
 .data.cstat    0x0000000000000000        0x4 arch/arm/mach-omap2/built-in.o
 .bss           0x0000000000000000        0x0 arch/arm/mach-omap2/built-in.o
 .text          0x0000000000000000        0x0 board/ti/common/built-in.o
 .text.ti_eeprom_string_cleanup
                0x0000000000000000       0x24 board/ti/common/built-in.o
 .text.ti_i2c_set_alen
                0x0000000000000000       0x2e board/ti/common/built-in.o
 .text.gpi2c_init
                0x0000000000000000        0x2 board/ti/common/built-in.o
 .text.ti_i2c_eeprom_get
                0x0000000000000000       0xb0 board/ti/common/built-in.o
 .text.ti_i2c_eeprom_am_set
                0x0000000000000000       0x64 board/ti/common/built-in.o
 .text.ti_i2c_eeprom_am_get
                0x0000000000000000       0xc8 board/ti/common/built-in.o
 .text.ti_i2c_eeprom_dra7_get
                0x0000000000000000       0xbc board/ti/common/built-in.o
 .text.board_ti_rev_is
                0x0000000000000000       0x38 board/ti/common/built-in.o
 .text.board_ti_get_config
                0x0000000000000000        0x8 board/ti/common/built-in.o
 .text.board_ti_get_name
                0x0000000000000000        0x8 board/ti/common/built-in.o
 .text.board_ti_get_eth_mac_addr
                0x0000000000000000       0x34 board/ti/common/built-in.o
 .text.board_ti_get_emif1_size
                0x0000000000000000       0x20 board/ti/common/built-in.o
 .text.board_ti_get_emif2_size
                0x0000000000000000       0x20 board/ti/common/built-in.o
 .text.board_ti_set_ethaddr
                0x0000000000000000      0x194 board/ti/common/built-in.o
 .text.board_ti_was_eeprom_read
                0x0000000000000000       0x18 board/ti/common/built-in.o
 .rodata.__func__.9827
                0x0000000000000000       0x15 board/ti/common/built-in.o
 .data          0x0000000000000000        0x0 board/ti/common/built-in.o
 .bss           0x0000000000000000        0x0 board/ti/common/built-in.o
 .text          0x0000000000000000        0x0 cmd/built-in.o
 .text.bootz_setup
                0x0000000000000000       0x14 cmd/built-in.o
 .text.eeprom_init
                0x0000000000000000        0x2 cmd/built-in.o
 .text.name_to_gpio
                0x0000000000000000        0x8 cmd/built-in.o
 .text.i2c_init_board
                0x0000000000000000        0x2 cmd/built-in.o
 .data          0x0000000000000000        0x0 cmd/built-in.o
 .bss           0x0000000000000000        0x0 cmd/built-in.o
 .text          0x0000000000000000        0x0 common/built-in.o
 .text.hash_progressive_lookup_algo
                0x0000000000000000       0x48 common/built-in.o
 .text.hash_parse_string
                0x0000000000000000       0x3a common/built-in.o
 .text.hash_block
                0x0000000000000000       0x48 common/built-in.o
 .text.unset_local_var
                0x0000000000000000       0x60 common/built-in.o
 .text.arch_cpu_init_dm
                0x0000000000000000        0x4 common/built-in.o
 .text.dram_init_banksize
                0x0000000000000000       0x18 common/built-in.o
 .text.red_led_off
                0x0000000000000000        0x2 common/built-in.o
 .text.green_led_on
                0x0000000000000000        0x2 common/built-in.o
 .text.green_led_off
                0x0000000000000000        0x2 common/built-in.o
 .text.yellow_led_on
                0x0000000000000000        0x2 common/built-in.o
 .text.yellow_led_off
                0x0000000000000000        0x2 common/built-in.o
 .text.blue_led_on
                0x0000000000000000        0x2 common/built-in.o
 .text.blue_led_off
                0x0000000000000000        0x2 common/built-in.o
 .text.arch_reserve_stacks
                0x0000000000000000        0x4 common/built-in.o
 .text.board_flash_wp_on
                0x0000000000000000        0x4 common/built-in.o
 .text.fixup_cpu
                0x0000000000000000        0x4 common/built-in.o
 .text.fdt_read_prop
                0x0000000000000000       0x3a common/built-in.o
 .text.fdt_getprop_u32_default_node
                0x0000000000000000       0x26 common/built-in.o
 .text.fdt_getprop_u32_default
                0x0000000000000000       0x24 common/built-in.o
 .text.do_fixup_by_path_u32
                0x0000000000000000       0x1a common/built-in.o
 .text.do_fixup_by_prop
                0x0000000000000000       0x98 common/built-in.o
 .text.do_fixup_by_prop_u32
                0x0000000000000000       0x24 common/built-in.o
 .text.do_fixup_by_compat
                0x0000000000000000       0x88 common/built-in.o
 .text.do_fixup_by_compat_u32
                0x0000000000000000       0x1a common/built-in.o
 .text.fdt_increase_size
                0x0000000000000000        0xc common/built-in.o
 .text.fdt_del_node_and_alias
                0x0000000000000000       0x30 common/built-in.o
 .text.fdt_node_offset_by_compat_reg
                0x0000000000000000       0x50 common/built-in.o
 .text.fdt_alloc_phandle
                0x0000000000000000       0x36 common/built-in.o
 .text.fdt_set_phandle
                0x0000000000000000       0x84 common/built-in.o
 .text.fdt_create_phandle
                0x0000000000000000       0x40 common/built-in.o
 .text.fdt_set_node_status
                0x0000000000000000       0xa0 common/built-in.o
 .text.fdt_set_status_by_alias
                0x0000000000000000       0x1c common/built-in.o
 .text.fdt_verify_alias_address
                0x0000000000000000       0x88 common/built-in.o
 .text.fdt_get_base_address
                0x0000000000000000       0x28 common/built-in.o
 .text.fdt_read_range
                0x0000000000000000       0xd0 common/built-in.o
 .text.fdt_setup_simplefb_node
                0x0000000000000000      0x158 common/built-in.o
 .text.fdt_fixup_display
                0x0000000000000000       0xa4 common/built-in.o
 .text.mdio_free
                0x0000000000000000        0x4 common/built-in.o
 .text.mdio_register_seq
                0x0000000000000000       0x24 common/built-in.o
 .text.mdio_unregister
                0x0000000000000000       0x24 common/built-in.o
 .text.usb_submit_int_msg
                0x0000000000000000        0x4 common/built-in.o
 .text.usb_set_protocol
                0x0000000000000000       0x2e common/built-in.o
 .text.usb_set_idle
                0x0000000000000000       0x32 common/built-in.o
 .text.usb_get_report
                0x0000000000000000       0x3a common/built-in.o
 .text.usb_get_class_descriptor
                0x0000000000000000       0x3a common/built-in.o
 .text.usb_hub_probe
                0x0000000000000000       0x70 common/built-in.o
 .text.splash_screen_prepare
                0x0000000000000000        0x4 common/built-in.o
 .text.menu_default_choice
                0x0000000000000000       0x12 common/built-in.o
 .text.cli_simple_parse_line
                0x0000000000000000       0x54 common/built-in.o
 .text.cli_simple_run_command
                0x0000000000000000       0xcc common/built-in.o
 .text.cli_simple_loop
                0x0000000000000000       0x58 common/built-in.o
 .text.cli_simple_run_command_list
                0x0000000000000000       0x4c common/built-in.o
 .text.serial_printf
                0x0000000000000000       0x32 common/built-in.o
 .text.console_announce_r
                0x0000000000000000       0x54 common/built-in.o
 .text.stdio_print_current_devices
                0x0000000000000000       0x78 common/built-in.o
 .text.malloc_update_mallinfo
                0x0000000000000000       0xac common/built-in.o
 .text.valloc   0x0000000000000000        0xa common/built-in.o
 .text.pvalloc  0x0000000000000000       0x14 common/built-in.o
 .text.cfree    0x0000000000000000        0x4 common/built-in.o
 .text.malloc_usable_size
                0x0000000000000000       0x3c common/built-in.o
 .text.malloc_stats
                0x0000000000000000       0x3c common/built-in.o
 .text.mallinfo
                0x0000000000000000       0x24 common/built-in.o
 .text.mallopt  0x0000000000000000       0x38 common/built-in.o
 .text.memalign_simple
                0x0000000000000000       0x50 common/built-in.o
 .text.genimg_get_short_name
                0x0000000000000000       0x14 common/built-in.o
 .text.genimg_get_cat_name
                0x0000000000000000       0x38 common/built-in.o
 .text.genimg_get_cat_short_name
                0x0000000000000000       0x38 common/built-in.o
 .text.genimg_get_cat_count
                0x0000000000000000       0x10 common/built-in.o
 .text.genimg_get_cat_desc
                0x0000000000000000       0x10 common/built-in.o
 .text.genimg_get_type_short_name
                0x0000000000000000        0xc common/built-in.o
 .text.genimg_get_comp_short_name
                0x0000000000000000        0xc common/built-in.o
 .text.genimg_get_os_short_name
                0x0000000000000000        0xc common/built-in.o
 .text.genimg_get_arch_short_name
                0x0000000000000000        0xc common/built-in.o
 .text.fit_get_subimage_count
                0x0000000000000000       0x2e common/built-in.o
 .text.fit_image_get_data_offset
                0x0000000000000000       0x24 common/built-in.o
 .text.fit_image_get_data_size
                0x0000000000000000       0x24 common/built-in.o
 .text.fit_set_timestamp
                0x0000000000000000       0x54 common/built-in.o
 .text.fit_conf_find_compat
                0x0000000000000000      0x134 common/built-in.o
 .text.stdio_init
                0x0000000000000000        0xe common/built-in.o
 .text.run_command_repeatable
                0x0000000000000000       0x12 common/built-in.o
 .rodata.unknown_str.8634
                0x0000000000000000        0x9 common/built-in.o
 .rodata.table_info
                0x0000000000000000       0x30 common/built-in.o
 .data          0x0000000000000000        0x0 common/built-in.o
 .data.mmap_threshold
                0x0000000000000000        0x4 common/built-in.o
 .bss           0x0000000000000000        0x0 common/built-in.o
 .bss.lastcommand.8062
                0x0000000000000000      0x401 common/built-in.o
 .bss.n_mmaps_max
                0x0000000000000000        0x4 common/built-in.o
 .bss.save_addr
                0x0000000000000000        0x4 common/built-in.o
 .bss.msg.8635  0x0000000000000000       0x1e common/built-in.o
 .bss.save_size
                0x0000000000000000        0x4 common/built-in.o
 .text          0x0000000000000000        0x0 disk/built-in.o
 .text.part_get_info_by_name
                0x0000000000000000       0x58 disk/built-in.o
 .text.is_valid_dos_buf
                0x0000000000000000       0x10 disk/built-in.o
 .text.write_mbr_partition
                0x0000000000000000       0x44 disk/built-in.o
 .text.is_valid_gpt_buf
                0x0000000000000000       0x4e disk/built-in.o
 .text.write_mbr_and_gpt_partitions
                0x0000000000000000      0x384 disk/built-in.o
 .rodata.__func__.8082
                0x0000000000000000       0x14 disk/built-in.o
 .rodata.__func__.8916
                0x0000000000000000       0x1d disk/built-in.o
 .data          0x0000000000000000        0x0 disk/built-in.o
 .bss           0x0000000000000000        0x0 disk/built-in.o
 .text          0x0000000000000000        0x0 drivers/built-in.o
 .text._device_find_global_by_of_offset
                0x0000000000000000       0x30 drivers/built-in.o
 .text.device_get_child
                0x0000000000000000       0x30 drivers/built-in.o
 .text.device_find_child_by_seq
                0x0000000000000000       0x38 drivers/built-in.o
 .text.device_get_child_by_seq
                0x0000000000000000       0x36 drivers/built-in.o
 .text.device_find_child_by_of_offset
                0x0000000000000000       0x2c drivers/built-in.o
 .text.device_get_child_by_of_offset
                0x0000000000000000       0x20 drivers/built-in.o
 .text.device_get_global_by_of_offset
                0x0000000000000000       0x26 drivers/built-in.o
 .text.dev_get_driver_ops
                0x0000000000000000        0x8 drivers/built-in.o
 .text.dev_get_uclass_name
                0x0000000000000000        0xa drivers/built-in.o
 .text.device_has_children
                0x0000000000000000        0xe drivers/built-in.o
 .text.device_set_name_alloced
                0x0000000000000000        0xa drivers/built-in.o
 .text.device_set_name
                0x0000000000000000       0x20 drivers/built-in.o
 .text.devfdt_get_addr_size_index
                0x0000000000000000       0x2c drivers/built-in.o
 .text.devfdt_get_addr_name
                0x0000000000000000       0x28 drivers/built-in.o
 .text.devfdt_get_addr_ptr
                0x0000000000000000        0x6 drivers/built-in.o
 .text.devfdt_map_physmem
                0x0000000000000000       0x10 drivers/built-in.o
 .text.dm_fixup_for_gd_move
                0x0000000000000000       0x14 drivers/built-in.o
 .text.dm_set_translation_offset
                0x0000000000000000       0x10 drivers/built-in.o
 .text.dm_uninit
                0x0000000000000000       0x18 drivers/built-in.o
 .text.uclass_destroy
                0x0000000000000000       0x52 drivers/built-in.o
 .text.uclass_get_name
                0x0000000000000000       0x1a drivers/built-in.o
 .text.uclass_find_device_by_name
                0x0000000000000000       0x50 drivers/built-in.o
 .text.uclass_get_device_by_driver
                0x0000000000000000       0x3a drivers/built-in.o
 .text.uclass_get_device_by_name
                0x0000000000000000       0x1c drivers/built-in.o
 .text.uclass_get_device_by_phandle
                0x0000000000000000       0x68 drivers/built-in.o
 .text.uclass_first_device_check
                0x0000000000000000       0x1c drivers/built-in.o
 .text.uclass_next_device_check
                0x0000000000000000       0x18 drivers/built-in.o
 .text.list_count_items
                0x0000000000000000       0x12 drivers/built-in.o
 .text.simple_bus_translate
                0x0000000000000000       0x20 drivers/built-in.o
 .text.of_read_fmap_entry
                0x0000000000000000       0x90 drivers/built-in.o
 .text.ofnode_read_s32_default
                0x0000000000000000       0x34 drivers/built-in.o
 .text.ofnode_read_string
                0x0000000000000000       0x80 drivers/built-in.o
 .text.ofnode_first_subnode
                0x0000000000000000       0x2c drivers/built-in.o
 .text.ofnode_next_subnode
                0x0000000000000000       0x2c drivers/built-in.o
 .text.ofnode_find_subnode
                0x0000000000000000       0x60 drivers/built-in.o
 .text.ofnode_read_size
                0x0000000000000000       0x22 drivers/built-in.o
 .text.decode_timing_property
                0x0000000000000000       0x50 drivers/built-in.o
 .text.ofnode_get_addr_index
                0x0000000000000000        0xe drivers/built-in.o
 .text.ofnode_get_addr
                0x0000000000000000        0x6 drivers/built-in.o
 .text.ofnode_stringlist_search
                0x0000000000000000       0x28 drivers/built-in.o
 .text.ofnode_read_string_index
                0x0000000000000000       0x30 drivers/built-in.o
 .text.ofnode_read_string_count
                0x0000000000000000        0xe drivers/built-in.o
 .text.ofnode_count_phandle_with_args
                0x0000000000000000       0x24 drivers/built-in.o
 .text.ofnode_path
                0x0000000000000000        0xe drivers/built-in.o
 .text.ofnode_get_chosen_prop
                0x0000000000000000       0x18 drivers/built-in.o
 .text.ofnode_get_chosen_node
                0x0000000000000000       0x14 drivers/built-in.o
 .text.ofnode_read_bool
                0x0000000000000000       0x60 drivers/built-in.o
 .text.ofnode_decode_display_timing
                0x0000000000000000      0x1b4 drivers/built-in.o
 .text.ofnode_is_available
                0x0000000000000000       0x14 drivers/built-in.o
 .text.ofnode_get_addr_size
                0x0000000000000000       0x18 drivers/built-in.o
 .text.ofnode_read_u8_array_ptr
                0x0000000000000000       0x18 drivers/built-in.o
 .text.ofnode_read_pci_addr
                0x0000000000000000       0xb0 drivers/built-in.o
 .text.ofnode_read_addr_cells
                0x0000000000000000        0xa drivers/built-in.o
 .text.ofnode_read_size_cells
                0x0000000000000000        0xa drivers/built-in.o
 .text.ofnode_read_simple_addr_cells
                0x0000000000000000        0xa drivers/built-in.o
 .text.ofnode_read_simple_size_cells
                0x0000000000000000        0xa drivers/built-in.o
 .text.ofnode_pre_reloc
                0x0000000000000000       0x34 drivers/built-in.o
 .text.ofnode_read_resource
                0x0000000000000000       0x40 drivers/built-in.o
 .text.ofnode_read_resource_byname
                0x0000000000000000       0x28 drivers/built-in.o
 .text.timer_conv_64
                0x0000000000000000       0x2c drivers/built-in.o
 .text.rsa_mod_exp
                0x0000000000000000       0x1a drivers/built-in.o
 .text.misc_read
                0x0000000000000000       0x14 drivers/built-in.o
 .text.misc_write
                0x0000000000000000       0x14 drivers/built-in.o
 .text.misc_ioctl
                0x0000000000000000       0x14 drivers/built-in.o
 .text.misc_call
                0x0000000000000000       0x1e drivers/built-in.o
 .text.cpu_mmc_init
                0x0000000000000000        0x6 drivers/built-in.o
 .text.board_mmc_init
                0x0000000000000000        0x6 drivers/built-in.o
 .text.mmc_set_preinit
                0x0000000000000000        0x6 drivers/built-in.o
 .text.mmc_destroy
                0x0000000000000000        0x4 drivers/built-in.o
 .text.dfu_get_alt
                0x0000000000000000       0x68 drivers/built-in.o
 .text.dfu_write_from_mem_addr
                0x0000000000000000       0xa8 drivers/built-in.o
 .text.rtc_mktime
                0x0000000000000000       0x7c drivers/built-in.o
 .text._input_send_keycodes
                0x0000000000000000      0x328 drivers/built-in.o
 .text.input_tstc
                0x0000000000000000       0x28 drivers/built-in.o
 .text.input_getc
                0x0000000000000000       0x34 drivers/built-in.o
 .text.input_send_keycodes
                0x0000000000000000        0x6 drivers/built-in.o
 .text.input_add_keycode
                0x0000000000000000       0x90 drivers/built-in.o
 .text.input_add_table
                0x0000000000000000       0x3c drivers/built-in.o
 .text.input_set_delays
                0x0000000000000000        0xa drivers/built-in.o
 .text.input_allow_repeats
                0x0000000000000000        0x6 drivers/built-in.o
 .text.input_leds_changed
                0x0000000000000000        0xe drivers/built-in.o
 .text.input_add_tables
                0x0000000000000000       0x38 drivers/built-in.o
 .text.input_init
                0x0000000000000000       0x14 drivers/built-in.o
 .text.input_stdio_register
                0x0000000000000000       0x34 drivers/built-in.o
 .text.create_keymap
                0x0000000000000000       0x8c drivers/built-in.o
 .text.key_matrix_decode
                0x0000000000000000       0xdc drivers/built-in.o
 .text.key_matrix_decode_fdt
                0x0000000000000000       0x8c drivers/built-in.o
 .text.key_matrix_init
                0x0000000000000000       0x3c drivers/built-in.o
 .rodata.__func__.9707
                0x0000000000000000       0x14 drivers/built-in.o
 .rodata.__func__.9703
                0x0000000000000000       0x15 drivers/built-in.o
 .rodata.__func__.9667
                0x0000000000000000       0x18 drivers/built-in.o
 .rodata.__func__.9673
                0x0000000000000000       0x11 drivers/built-in.o
 .rodata.__func__.9680
                0x0000000000000000       0x13 drivers/built-in.o
 .rodata.__func__.9839
                0x0000000000000000       0x15 drivers/built-in.o
 .rodata.__func__.9687
                0x0000000000000000       0x14 drivers/built-in.o
 .rodata.__func__.10968
                0x0000000000000000       0x18 drivers/built-in.o
 .rodata.CSWTCH.36
                0x0000000000000000        0xd drivers/built-in.o
 .rodata.kbd_to_ansi364
                0x0000000000000000       0x20 drivers/built-in.o
 .rodata.__func__.9766
                0x0000000000000000       0x10 drivers/built-in.o
 .rodata.__func__.9721
                0x0000000000000000       0x18 drivers/built-in.o
 .rodata.__func__.9677
                0x0000000000000000       0x17 drivers/built-in.o
 .rodata.__func__.9684
                0x0000000000000000       0x15 drivers/built-in.o
 .rodata.kbd_plain_xlate_german
                0x0000000000000000       0x84 drivers/built-in.o
 .rodata.__func__.9641
                0x0000000000000000       0x11 drivers/built-in.o
 .rodata.kbd_plain_xlate
                0x0000000000000000       0x64 drivers/built-in.o
 .rodata.__func__.9536
                0x0000000000000000       0x10 drivers/built-in.o
 .rodata.__func__.9498
                0x0000000000000000       0x12 drivers/built-in.o
 .rodata.__func__.9512
                0x0000000000000000        0xe drivers/built-in.o
 .rodata.__func__.9528
                0x0000000000000000       0x16 drivers/built-in.o
 .data          0x0000000000000000        0x0 drivers/built-in.o
 .data.kbd_ctrl_xlate
                0x0000000000000000       0x64 drivers/built-in.o
 .data.kbd_shift_xlate_german
                0x0000000000000000       0x84 drivers/built-in.o
 .data.kbd_entry
                0x0000000000000000       0x8c drivers/built-in.o
 .data.kbd_shift_xlate
                0x0000000000000000       0x64 drivers/built-in.o
 .data.kbd_right_alt_xlate_german
                0x0000000000000000       0x58 drivers/built-in.o
 .bss           0x0000000000000000        0x0 drivers/built-in.o
 .text          0x0000000000000000        0x0 drivers/gpio/built-in.o
 .text.gpio_requestf
                0x0000000000000000       0x2a drivers/gpio/built-in.o
 .text.dm_gpio_get_open_drain
                0x0000000000000000       0x2c drivers/gpio/built-in.o
 .text.dm_gpio_set_open_drain
                0x0000000000000000       0x2c drivers/gpio/built-in.o
 .text.dm_gpio_set_dir
                0x0000000000000000        0x6 drivers/gpio/built-in.o
 .text.gpio_claim_vector
                0x0000000000000000       0x5e drivers/gpio/built-in.o
 .text.gpio_get_values_as_int
                0x0000000000000000       0x2c drivers/gpio/built-in.o
 .text.dm_gpio_get_values_as_int
                0x0000000000000000       0x30 drivers/gpio/built-in.o
 .text.gpio_request_by_name_nodev
                0x0000000000000000       0x44 drivers/gpio/built-in.o
 .text.gpio_get_number
                0x0000000000000000       0x14 drivers/gpio/built-in.o
 .text.gpio_is_valid
                0x0000000000000000        0xa drivers/gpio/built-in.o
 .data          0x0000000000000000        0x0 drivers/gpio/built-in.o
 .bss           0x0000000000000000        0x0 drivers/gpio/built-in.o
 .text          0x0000000000000000        0x0 drivers/i2c/built-in.o
 .text.i2c_dump_msgs
                0x0000000000000000       0x58 drivers/i2c/built-in.o
 .text.dm_i2c_xfer
                0x0000000000000000       0x20 drivers/i2c/built-in.o
 .text.dm_i2c_reg_read
                0x0000000000000000       0x1a drivers/i2c/built-in.o
 .text.dm_i2c_reg_write
                0x0000000000000000       0x16 drivers/i2c/built-in.o
 .text.i2c_get_bus_num_fdt
                0x0000000000000000       0x18 drivers/i2c/built-in.o
 .text.i2c_get_bus_num
                0x0000000000000000        0xc drivers/i2c/built-in.o
 .text.i2c_set_bus_num
                0x0000000000000000        0xc drivers/i2c/built-in.o
 .text.i2c_init
                0x0000000000000000        0x2 drivers/i2c/built-in.o
 .text.board_i2c_init
                0x0000000000000000        0x2 drivers/i2c/built-in.o
 .text.i2c_reg_read
                0x0000000000000000       0x20 drivers/i2c/built-in.o
 .text.i2c_reg_write
                0x0000000000000000       0x1e drivers/i2c/built-in.o
 .bss           0x0000000000000000        0x0 drivers/i2c/built-in.o
 .text          0x0000000000000000        0x0 drivers/mtd/built-in.o
 .text.idr_remove
                0x0000000000000000        0xe drivers/mtd/built-in.o
 .text.idr_find
                0x0000000000000000        0xe drivers/mtd/built-in.o
 .text.del_mtd_device
                0x0000000000000000       0x4c drivers/mtd/built-in.o
 .text.get_mtd_device
                0x0000000000000000       0x54 drivers/mtd/built-in.o
 .text.mtd_get_unmapped_area
                0x0000000000000000       0x48 drivers/mtd/built-in.o
 .text.mtd_panic_write
                0x0000000000000000       0x72 drivers/mtd/built-in.o
 .text.mtd_get_fact_prot_info
                0x0000000000000000       0x16 drivers/mtd/built-in.o
 .text.mtd_read_fact_prot_reg
                0x0000000000000000       0x2a drivers/mtd/built-in.o
 .text.mtd_get_user_prot_info
                0x0000000000000000       0x16 drivers/mtd/built-in.o
 .text.mtd_read_user_prot_reg
                0x0000000000000000       0x2a drivers/mtd/built-in.o
 .text.mtd_write_user_prot_reg
                0x0000000000000000       0x38 drivers/mtd/built-in.o
 .text.mtd_lock_user_prot_reg
                0x0000000000000000       0x1e drivers/mtd/built-in.o
 .text.mtd_lock
                0x0000000000000000       0x58 drivers/mtd/built-in.o
 .text.mtd_is_locked
                0x0000000000000000       0x58 drivers/mtd/built-in.o
 .text.mtd_block_isreserved
                0x0000000000000000       0x2e drivers/mtd/built-in.o
 .data          0x0000000000000000        0x0 drivers/mtd/built-in.o
 .bss           0x0000000000000000        0x0 drivers/mtd/built-in.o
 .bss.mtd_table
                0x0000000000000000       0x80 drivers/mtd/built-in.o
 .text          0x0000000000000000        0x0 drivers/mtd/nand/built-in.o
 .text.nand_mtd_to_devnum
                0x0000000000000000       0x1e drivers/mtd/nand/built-in.o
 .text.onfi_async_timing_mode_to_sdr_timings
                0x0000000000000000       0x18 drivers/mtd/nand/built-in.o
 .text.omap_correct_data
                0x0000000000000000       0xc0 drivers/mtd/nand/built-in.o
 .text.omap_nand_switch_ecc
                0x0000000000000000      0x290 drivers/mtd/nand/built-in.o
 .rodata.onfi_sdr_timings
                0x0000000000000000      0x360 drivers/mtd/nand/built-in.o
 .data          0x0000000000000000        0x0 drivers/mtd/nand/built-in.o
 .data.nand_manuf_ids
                0x0000000000000000       0x78 drivers/mtd/nand/built-in.o
 .bss           0x0000000000000000        0x0 drivers/mtd/nand/built-in.o
 .text          0x0000000000000000        0x0 drivers/mtd/spi/built-in.o
 .text.spi_flash_decode_fdt
                0x0000000000000000        0x4 drivers/mtd/spi/built-in.o
 .data          0x0000000000000000        0x0 drivers/mtd/spi/built-in.o
 .bss           0x0000000000000000        0x0 drivers/mtd/spi/built-in.o
 .text          0x0000000000000000        0x0 drivers/net/built-in.o
 .data          0x0000000000000000        0x0 drivers/net/built-in.o
 .bss           0x0000000000000000        0x0 drivers/net/built-in.o
 .text          0x0000000000000000        0x0 drivers/net/phy/built-in.o
 .text.phy_set_supported
                0x0000000000000000       0x3c drivers/net/phy/built-in.o
 .text.miiphy_reset
                0x0000000000000000       0x1a drivers/net/phy/built-in.o
 .text.phy_shutdown
                0x0000000000000000        0xe drivers/net/phy/built-in.o
 .data          0x0000000000000000        0x0 drivers/net/phy/built-in.o
 .bss           0x0000000000000000        0x0 drivers/net/phy/built-in.o
 .text          0x0000000000000000        0x0 drivers/power/pmic/built-in.o
 .text.tps65217_reg_read
                0x0000000000000000       0x16 drivers/power/pmic/built-in.o
 .text.tps65217_reg_write
                0x0000000000000000       0x9a drivers/power/pmic/built-in.o
 .text.tps65217_voltage_update
                0x0000000000000000       0x34 drivers/power/pmic/built-in.o
 .text.tps65910_set_i2c_control
                0x0000000000000000       0x36 drivers/power/pmic/built-in.o
 .text.tps65910_voltage_update
                0x0000000000000000       0x96 drivers/power/pmic/built-in.o
 .data          0x0000000000000000        0x0 drivers/power/pmic/built-in.o
 .bss           0x0000000000000000        0x0 drivers/power/pmic/built-in.o
 .comment       0x0000000000000000       0x5c drivers/power/pmic/built-in.o
 .debug_aranges
                0x0000000000000000       0x58 drivers/power/pmic/built-in.o
 .debug_info    0x0000000000000000      0x73f drivers/power/pmic/built-in.o
 .debug_abbrev  0x0000000000000000      0x233 drivers/power/pmic/built-in.o
 .debug_line    0x0000000000000000      0x23b drivers/power/pmic/built-in.o
 .debug_frame   0x0000000000000000       0xb8 drivers/power/pmic/built-in.o
 .debug_str     0x0000000000000000      0x8b9 drivers/power/pmic/built-in.o
 .debug_loc     0x0000000000000000      0x222 drivers/power/pmic/built-in.o
 .debug_ranges  0x0000000000000000       0x38 drivers/power/pmic/built-in.o
 .ARM.attributes
                0x0000000000000000       0x2d drivers/power/pmic/built-in.o
 .text          0x0000000000000000        0x0 drivers/serial/built-in.o
 .text.ns16550_calc_divisor
                0x0000000000000000       0x10 drivers/serial/built-in.o
 .text.NS16550_reinit
                0x0000000000000000       0x38 drivers/serial/built-in.o
 .text.NS16550_putc
                0x0000000000000000       0x2a drivers/serial/built-in.o
 .text.NS16550_getc
                0x0000000000000000       0x22 drivers/serial/built-in.o
 .text.NS16550_tstc
                0x0000000000000000       0x10 drivers/serial/built-in.o
 .data          0x0000000000000000        0x0 drivers/serial/built-in.o
 .bss           0x0000000000000000        0x0 drivers/serial/built-in.o
 .text          0x0000000000000000        0x0 drivers/spi/built-in.o
 .text.spi_set_wordlen
                0x0000000000000000       0x20 drivers/spi/built-in.o
 .data          0x0000000000000000        0x0 drivers/spi/built-in.o
 .bss           0x0000000000000000        0x0 drivers/spi/built-in.o
 .text          0x0000000000000000        0x0 drivers/usb/common/built-in.o
 .data          0x0000000000000000        0x0 drivers/usb/common/built-in.o
 .bss           0x0000000000000000        0x0 drivers/usb/common/built-in.o
 .text          0x0000000000000000        0x0 drivers/usb/gadget/built-in.o
 .text.usb_function_deactivate
                0x0000000000000000       0x26 drivers/usb/gadget/built-in.o
 .text.usb_function_activate
                0x0000000000000000       0x2e drivers/usb/gadget/built-in.o
 .text.usb_string_ids_tab
                0x0000000000000000       0x2c drivers/usb/gadget/built-in.o
 .text.usb_string_ids_n
                0x0000000000000000       0x1c drivers/usb/gadget/built-in.o
 .text.board_usb_init
                0x0000000000000000        0x4 drivers/usb/gadget/built-in.o
 .text.board_usb_cleanup
                0x0000000000000000        0x4 drivers/usb/gadget/built-in.o
 .text.fastboot_fail
                0x0000000000000000       0x28 drivers/usb/gadget/built-in.o
 .text.fastboot_okay
                0x0000000000000000       0x28 drivers/usb/gadget/built-in.o
 .text.fb_set_reboot_flag
                0x0000000000000000        0x6 drivers/usb/gadget/built-in.o
 .rodata        0x0000000000000000        0xc drivers/usb/gadget/built-in.o
 .data          0x0000000000000000        0x0 drivers/usb/gadget/built-in.o
 .bss           0x0000000000000000        0x0 drivers/usb/gadget/built-in.o
 .bss.fb_response_str
                0x0000000000000000        0x4 drivers/usb/gadget/built-in.o
 .text          0x0000000000000000        0x0 drivers/usb/host/built-in.o
 .text.create_int_queue
                0x0000000000000000       0x30 drivers/usb/host/built-in.o
 .text.poll_int_queue
                0x0000000000000000       0x1c drivers/usb/host/built-in.o
 .text.destroy_int_queue
                0x0000000000000000       0x1e drivers/usb/host/built-in.o
 .text.usb_setup_ehci_gadget
                0x0000000000000000       0x3e drivers/usb/host/built-in.o
 .text.usb_detect_change
                0x0000000000000000       0x6a drivers/usb/host/built-in.o
 .data          0x0000000000000000        0x0 drivers/usb/host/built-in.o
 .bss           0x0000000000000000        0x0 drivers/usb/host/built-in.o
 .text          0x0000000000000000        0x0 drivers/usb/musb-new/built-in.o
 .text.musb_gadget_cleanup
                0x0000000000000000        0x2 drivers/usb/musb-new/built-in.o
 .text.musb_g_resume
                0x0000000000000000        0x2 drivers/usb/musb-new/built-in.o
 .text.musb_g_suspend
                0x0000000000000000        0x2 drivers/usb/musb-new/built-in.o
 .text.musb_g_wakeup
                0x0000000000000000        0x2 drivers/usb/musb-new/built-in.o
 .text.musb_g_disconnect
                0x0000000000000000       0x48 drivers/usb/musb-new/built-in.o
 .text.musb_g_reset
                0x0000000000000000       0x72 drivers/usb/musb-new/built-in.o
 .text.musb_register
                0x0000000000000000       0x30 drivers/usb/musb-new/built-in.o
 .data          0x0000000000000000        0x0 drivers/usb/musb-new/built-in.o
 .bss           0x0000000000000000        0x0 drivers/usb/musb-new/built-in.o
 .text          0x0000000000000000        0x0 env/built-in.o
 .text.env_flags_parse_varaccess_from_binflags
                0x0000000000000000       0x30 env/built-in.o
 .data          0x0000000000000000        0x0 env/built-in.o
 .bss           0x0000000000000000        0x0 env/built-in.o
 .text          0x0000000000000000        0x0 fs/built-in.o
 .text.fs_uuid  0x0000000000000000       0x18 fs/built-in.o
 .text.do_fs_uuid
                0x0000000000000000       0x5c fs/built-in.o
 .text.print_revoke_blks
                0x0000000000000000       0x30 fs/built-in.o
 .text.fat_register_device
                0x0000000000000000       0x54 fs/built-in.o
 .text.file_getfsname
                0x0000000000000000       0x10 fs/built-in.o
 .text.file_cd  0x0000000000000000      0x128 fs/built-in.o
 .text.file_detectfs
                0x0000000000000000       0x2c fs/built-in.o
 .text.file_ls  0x0000000000000000       0x5c fs/built-in.o
 .text.file_read
                0x0000000000000000       0x64 fs/built-in.o
 .rodata.filesystems
                0x0000000000000000       0x18 fs/built-in.o
 .data          0x0000000000000000        0x0 fs/built-in.o
 .data.file_cwd
                0x0000000000000000      0x200 fs/built-in.o
 .data.current_filesystem
                0x0000000000000000        0x4 fs/built-in.o
 .bss           0x0000000000000000        0x0 fs/built-in.o
 .bss.ext4fs_symlinknest
                0x0000000000000000        0x4 fs/built-in.o
 .text          0x0000000000000000        0x0 lib/built-in.o
 .text.invalidate_icache_all
                0x0000000000000000        0x2 lib/built-in.o
 .text.efi_add_runtime_mmio
                0x0000000000000000       0x60 lib/built-in.o
 .text.inflateInit_
                0x0000000000000000       0x12 lib/built-in.o
 .text.z_error  0x0000000000000000       0x14 lib/built-in.o
 .text.fdt_node_offset_by_prop_value
                0x0000000000000000       0x52 lib/built-in.o
 .text.fdt_stringlist_count
                0x0000000000000000       0x38 lib/built-in.o
 .text.fdt_stringlist_search
                0x0000000000000000       0x66 lib/built-in.o
 .text.fdt_node_offset_by_compatible
                0x0000000000000000       0x3c lib/built-in.o
 .text.fdt_set_name
                0x0000000000000000       0x52 lib/built-in.o
 .text.fdt_appendprop
                0x0000000000000000       0x7e lib/built-in.o
 .text.fdt_pack
                0x0000000000000000       0x34 lib/built-in.o
 .text.fdt_remove_unused_strings
                0x0000000000000000       0x6a lib/built-in.o
 .text._fdt_sw_check_header
                0x0000000000000000       0x18 lib/built-in.o
 .text._fdt_grab_space
                0x0000000000000000       0x30 lib/built-in.o
 .text.fdt_create
                0x0000000000000000       0x40 lib/built-in.o
 .text.fdt_resize
                0x0000000000000000       0x72 lib/built-in.o
 .text.fdt_add_reservemap_entry
                0x0000000000000000       0x5c lib/built-in.o
 .text.fdt_finish_reservemap
                0x0000000000000000       0x14 lib/built-in.o
 .text.fdt_begin_node
                0x0000000000000000       0x42 lib/built-in.o
 .text.fdt_end_node
                0x0000000000000000       0x26 lib/built-in.o
 .text.fdt_property_placeholder
                0x0000000000000000       0xae lib/built-in.o
 .text.fdt_property
                0x0000000000000000       0x22 lib/built-in.o
 .text.fdt_finish
                0x0000000000000000       0x94 lib/built-in.o
 .text.fdt_nop_property
                0x0000000000000000       0x2e lib/built-in.o
 .text.fdt_nop_node
                0x0000000000000000       0x34 lib/built-in.o
 .text.fdt_find_regions
                0x0000000000000000      0x220 lib/built-in.o
 .text.fdt_create_empty_tree
                0x0000000000000000       0x44 lib/built-in.o
 .text.fdt_add_region
                0x0000000000000000       0x58 lib/built-in.o
 .text.fdt_add_alias_regions
                0x0000000000000000      0x118 lib/built-in.o
 .text.fdt_next_region
                0x0000000000000000      0x36c lib/built-in.o
 .text.fdt_first_region
                0x0000000000000000       0x3c lib/built-in.o
 .text.crc7     0x0000000000000000       0x1c lib/built-in.o
 .text.crc8     0x0000000000000000       0x32 lib/built-in.o
 .text.fdtdec_get_uint
                0x0000000000000000       0x54 lib/built-in.o
 .text.lmb_dump_all
                0x0000000000000000       0xa0 lib/built-in.o
 .text.lmb_is_reserved
                0x0000000000000000       0x28 lib/built-in.o
 .text.arch_lmb_reserve
                0x0000000000000000        0x2 lib/built-in.o
 .text.ldiv     0x0000000000000000       0x30 lib/built-in.o
 .text.md5      0x0000000000000000       0x48 lib/built-in.o
 .text.rc4_encode
                0x0000000000000000       0x88 lib/built-in.o
 .text.sha1_csum
                0x0000000000000000       0x26 lib/built-in.o
 .text.sha1_hmac
                0x0000000000000000       0xbe lib/built-in.o
 .text.sha1_self_test
                0x0000000000000000        0x4 lib/built-in.o
 .text.fdtdec_get_compatible
                0x0000000000000000       0x2c lib/built-in.o
 .text.fdtdec_get_uint64
                0x0000000000000000       0x26 lib/built-in.o
 .text.fdtdec_lookup
                0x0000000000000000       0x2c lib/built-in.o
 .text.fdtdec_next_compatible
                0x0000000000000000       0x10 lib/built-in.o
 .text.fdtdec_next_compatible_subnode
                0x0000000000000000       0x40 lib/built-in.o
 .text.fdtdec_next_alias
                0x0000000000000000       0x7c lib/built-in.o
 .text.fdtdec_add_aliases_for_id
                0x0000000000000000      0x208 lib/built-in.o
 .text.fdtdec_find_aliases_for_id
                0x0000000000000000       0x2a lib/built-in.o
 .text.fdtdec_check_fdt
                0x0000000000000000       0x28 lib/built-in.o
 .text.decode_timing_property
                0x0000000000000000       0x60 lib/built-in.o
 .text.fdtdec_get_int_array_count
                0x0000000000000000       0x54 lib/built-in.o
 .text.fdtdec_locate_array
                0x0000000000000000       0x18 lib/built-in.o
 .text.fdtdec_get_child_count
                0x0000000000000000       0x20 lib/built-in.o
 .text.fdtdec_get_byte_array
                0x0000000000000000       0x26 lib/built-in.o
 .text.fdtdec_locate_byte_array
                0x0000000000000000       0x16 lib/built-in.o
 .text.fdtdec_get_config_bool
                0x0000000000000000       0x40 lib/built-in.o
 .text.fdtdec_decode_region
                0x0000000000000000       0x70 lib/built-in.o
 .text.fdt_get_resource
                0x0000000000000000       0x8c lib/built-in.o
 .text.fdt_get_named_resource
                0x0000000000000000       0x2c lib/built-in.o
 .text.fdtdec_decode_memory_region
                0x0000000000000000      0x108 lib/built-in.o
 .text.fdtdec_decode_display_timing
                0x0000000000000000      0x1ec lib/built-in.o
 .text.fdtdec_setup_memory_size
                0x0000000000000000       0x6c lib/built-in.o
 .text.fdtdec_setup_memory_banksize
                0x0000000000000000       0x88 lib/built-in.o
 .text.print_freq
                0x0000000000000000      0x118 lib/built-in.o
 .text.div_s64_rem
                0x0000000000000000       0xb4 lib/built-in.o
 .text.div64_u64_rem
                0x0000000000000000      0x118 lib/built-in.o
 .text.div64_u64
                0x0000000000000000       0xf2 lib/built-in.o
 .text.div64_s64
                0x0000000000000000       0x34 lib/built-in.o
 .text.iter_div_u64_rem
                0x0000000000000000       0x22 lib/built-in.o
 .text.copy_from_user
                0x0000000000000000        0xa lib/built-in.o
 .text.get_mem  0x0000000000000000       0x10 lib/built-in.o
 .text.kmem_cache_alloc
                0x0000000000000000        0xa lib/built-in.o
 .text.membuff_purge
                0x0000000000000000        0x8 lib/built-in.o
 .text.membuff_putraw
                0x0000000000000000       0x66 lib/built-in.o
 .text.membuff_putbyte
                0x0000000000000000       0x1c lib/built-in.o
 .text.membuff_getraw
                0x0000000000000000       0x74 lib/built-in.o
 .text.membuff_getbyte
                0x0000000000000000       0x24 lib/built-in.o
 .text.membuff_peekbyte
                0x0000000000000000       0x22 lib/built-in.o
 .text.membuff_get
                0x0000000000000000       0x40 lib/built-in.o
 .text.membuff_put
                0x0000000000000000       0x3a lib/built-in.o
 .text.membuff_isempty
                0x0000000000000000        0xc lib/built-in.o
 .text.membuff_avail
                0x0000000000000000       0x34 lib/built-in.o
 .text.membuff_size
                0x0000000000000000        0x6 lib/built-in.o
 .text.membuff_makecontig
                0x0000000000000000       0x90 lib/built-in.o
 .text.membuff_free
                0x0000000000000000       0x1a lib/built-in.o
 .text.membuff_readline
                0x0000000000000000       0x62 lib/built-in.o
 .text.membuff_extend_by
                0x0000000000000000       0xa0 lib/built-in.o
 .text.membuff_init
                0x0000000000000000        0xc lib/built-in.o
 .text.membuff_new
                0x0000000000000000       0x22 lib/built-in.o
 .text.membuff_uninit
                0x0000000000000000        0xc lib/built-in.o
 .text.membuff_dispose
                0x0000000000000000       0x14 lib/built-in.o
 .text.strchrnul
                0x0000000000000000       0x16 lib/built-in.o
 .text.strcspn  0x0000000000000000       0x1e lib/built-in.o
 .text.strswab  0x0000000000000000       0x26 lib/built-in.o
 .text.memscan  0x0000000000000000       0x16 lib/built-in.o
 .text.memchr_inv
                0x0000000000000000       0xb6 lib/built-in.o
 .text.table_compute_checksum
                0x0000000000000000       0x18 lib/built-in.o
 .text.vsnprintf
                0x0000000000000000        0x4 lib/built-in.o
 .text.scnprintf
                0x0000000000000000       0x1a lib/built-in.o
 .text.print_grouped_ull
                0x0000000000000000       0x5c lib/built-in.o
 .text.strmhz   0x0000000000000000       0x4c lib/built-in.o
 .rodata.z_errmsg
                0x0000000000000000       0x28 lib/built-in.o
 .rodata.crc7_syndrome_table
                0x0000000000000000      0x100 lib/built-in.o
 .rodata.__func__.8568
                0x0000000000000000       0x10 lib/built-in.o
 .rodata.sha1_der_prefix
                0x0000000000000000        0xf lib/built-in.o
 .rodata.sha256_der_prefix
                0x0000000000000000       0x13 lib/built-in.o
 .rodata.__func__.9917
                0x0000000000000000       0x1a lib/built-in.o
 .rodata.__func__.10197
                0x0000000000000000       0x19 lib/built-in.o
 .rodata.__func__.10099
                0x0000000000000000       0x17 lib/built-in.o
 .rodata.__func__.9890
                0x0000000000000000       0x12 lib/built-in.o
 .rodata.compat_names
                0x0000000000000000       0xa0 lib/built-in.o
 .rodata.__func__.10205
                0x0000000000000000       0x1d lib/built-in.o
 .rodata.__func__.9794
                0x0000000000000000       0x16 lib/built-in.o
 .rodata.__func__.10117
                0x0000000000000000       0x15 lib/built-in.o
 .rodata.__func__.10015
                0x0000000000000000       0x1b lib/built-in.o
 .rodata.__func__.10167
                0x0000000000000000       0x1c lib/built-in.o
 .rodata.__func__.9968
                0x0000000000000000       0x11 lib/built-in.o
 .rodata.names.8159
                0x0000000000000000        0x3 lib/built-in.o
 .rodata.__func__.8096
                0x0000000000000000       0x12 lib/built-in.o
 .data          0x0000000000000000        0x0 lib/built-in.o
 .data.cur      0x0000000000000000        0x4 lib/built-in.o
 .data.current  0x0000000000000000        0x4 lib/built-in.o
 .bss           0x0000000000000000        0x0 lib/built-in.o
 .text          0x0000000000000000        0x0 net/built-in.o
 .text.add_ip_checksums
                0x0000000000000000       0x2c net/built-in.o
 .text.eth_init_state_only
                0x0000000000000000       0x1e net/built-in.o
 .text.eth_is_active
                0x0000000000000000       0x20 net/built-in.o
 .text.net_get_udp_handler
                0x0000000000000000        0xc net/built-in.o
 .text.net_set_arp_handler
                0x0000000000000000       0x18 net/built-in.o
 .text.random_port
                0x0000000000000000       0x12 net/built-in.o
 .text.vlan_to_string
                0x0000000000000000       0x30 net/built-in.o
 .text.env_get_vlan
                0x0000000000000000        0xe net/built-in.o
 .data          0x0000000000000000        0x0 net/built-in.o
 .data.tftp_timeout_ms
                0x0000000000000000        0x4 net/built-in.o
 .bss           0x0000000000000000        0x0 net/built-in.o
 .bss.net_busy_flag
                0x0000000000000000        0x4 net/built-in.o
 .text          0x0000000000000000        0x0 test/dm/built-in.o
 .data          0x0000000000000000        0x0 test/dm/built-in.o
 .bss           0x0000000000000000        0x0 test/dm/built-in.o
 .text          0x0000000000000000        0x0 arch/arm/lib/eabi_compat.o
 .data          0x0000000000000000        0x0 arch/arm/lib/eabi_compat.o
 .bss           0x0000000000000000        0x0 arch/arm/lib/eabi_compat.o
 .text.raise    0x0000000000000000       0x14 arch/arm/lib/eabi_compat.o
 .text.__aeabi_unwind_cpp_pr0
                0x0000000000000000        0x2 arch/arm/lib/eabi_compat.o
 .text.__aeabi_unwind_cpp_pr1
                0x0000000000000000        0x2 arch/arm/lib/eabi_compat.o
 .text.__aeabi_memcpy
                0x0000000000000000        0x4 arch/arm/lib/eabi_compat.o
 .text.__aeabi_memset
                0x0000000000000000        0xa arch/arm/lib/eabi_compat.o
 .rodata.str1.1
                0x0000000000000000       0x1b arch/arm/lib/eabi_compat.o
 .debug_info    0x0000000000000000      0x251 arch/arm/lib/eabi_compat.o
 .debug_abbrev  0x0000000000000000      0x156 arch/arm/lib/eabi_compat.o
 .debug_loc     0x0000000000000000      0x108 arch/arm/lib/eabi_compat.o
 .debug_aranges
                0x0000000000000000       0x40 arch/arm/lib/eabi_compat.o
 .debug_ranges  0x0000000000000000       0x30 arch/arm/lib/eabi_compat.o
 .debug_line    0x0000000000000000      0x101 arch/arm/lib/eabi_compat.o
 .debug_str     0x0000000000000000      0x2fe arch/arm/lib/eabi_compat.o
 .comment       0x0000000000000000       0x2e arch/arm/lib/eabi_compat.o
 .debug_frame   0x0000000000000000       0x68 arch/arm/lib/eabi_compat.o
 .ARM.attributes
                0x0000000000000000       0x2d arch/arm/lib/eabi_compat.o
 .text          0x0000000000000000        0x0 arch/arm/lib/lib.a(ashldi3.o)
 .data          0x0000000000000000        0x0 arch/arm/lib/lib.a(ashldi3.o)
 .bss           0x0000000000000000        0x0 arch/arm/lib/lib.a(ashldi3.o)
 .text          0x0000000000000000        0x0 arch/arm/lib/lib.a(ashrdi3.o)
 .data          0x0000000000000000        0x0 arch/arm/lib/lib.a(ashrdi3.o)
 .bss           0x0000000000000000        0x0 arch/arm/lib/lib.a(ashrdi3.o)
 .text          0x0000000000000000        0x0 arch/arm/lib/lib.a(lib1funcs.o)
 .data          0x0000000000000000        0x0 arch/arm/lib/lib.a(lib1funcs.o)
 .bss           0x0000000000000000        0x0 arch/arm/lib/lib.a(lib1funcs.o)
 .text.__umodsi3
                0x0000000000000000       0xa0 arch/arm/lib/lib.a(lib1funcs.o)
 .text.__modsi3
                0x0000000000000000       0xb8 arch/arm/lib/lib.a(lib1funcs.o)
 .text          0x0000000000000000        0x0 arch/arm/lib/lib.a(lshrdi3.o)
 .data          0x0000000000000000        0x0 arch/arm/lib/lib.a(lshrdi3.o)
 .bss           0x0000000000000000        0x0 arch/arm/lib/lib.a(lshrdi3.o)
 .text          0x0000000000000000        0x0 arch/arm/lib/lib.a(div0.o)
 .data          0x0000000000000000        0x0 arch/arm/lib/lib.a(div0.o)
 .bss           0x0000000000000000        0x0 arch/arm/lib/lib.a(div0.o)

Memory Configuration

Name             Origin             Length             Attributes
*default*        0x0000000000000000 0xffffffffffffffff

Linker script and memory map

Address of section .text set to 0x80800000
                0x0000000000000000                . = 0x0
                0x0000000000000000                . = ALIGN (0x4)

.text           0x0000000080800000    0x4b5b4
 *(.__image_copy_start)
 .__image_copy_start
                0x0000000080800000        0x0 arch/arm/lib/built-in.o
                0x0000000080800000                __image_copy_start
 *(.vectors)
 .vectors       0x0000000080800000      0x300 arch/arm/lib/built-in.o
                0x0000000080800000                _start
                0x0000000080800020                _undefined_instruction
                0x0000000080800024                _software_interrupt
                0x0000000080800028                _prefetch_abort
                0x000000008080002c                _data_abort
                0x0000000080800030                _not_used
                0x0000000080800034                _irq
                0x0000000080800038                _fiq
                0x0000000080800040                IRQ_STACK_START_IN
 arch/arm/cpu/armv7/start.o(.text*)
 .text          0x0000000080800300       0xa4 arch/arm/cpu/armv7/start.o
                0x0000000080800300                reset
                0x0000000080800304                save_boot_params_ret
                0x0000000080800338                c_runtime_cpu_setup
                0x000000008080034c                cpu_init_cp15
 board/ti/am335x/built-in.o(.text*)
 .text.request_and_set_gpio
                0x00000000808003a4       0x58 board/ti/am335x/built-in.o
 .text.board_init
                0x00000000808003fc      0x18c board/ti/am335x/built-in.o
                0x00000000808003fc                board_init
 .text.board_late_init
                0x0000000080800588      0x19c board/ti/am335x/built-in.o
                0x0000000080800588                board_late_init
 *(.text*)
 .text          0x0000000080800724      0x158 arch/arm/cpu/armv7/built-in.o
                0x0000000080800724                __v7_flush_dcache_all
                0x00000000808007c0                v7_flush_dcache_all
                0x00000000808007d0                __v7_invalidate_dcache_all
                0x000000008080086c                v7_invalidate_dcache_all
 .text.invalidate_icache_all
                0x000000008080087c       0x14 arch/arm/cpu/armv7/built-in.o
                0x000000008080087c                invalidate_icache_all
 .text.v7_outer_cache_enable
                0x0000000080800890        0x2 arch/arm/cpu/armv7/built-in.o
                0x0000000080800890                v7_outer_cache_enable
 .text.v7_outer_cache_disable
                0x0000000080800892        0x2 arch/arm/cpu/armv7/built-in.o
                0x0000000080800892                v7_outer_cache_disable
 .text.v7_outer_cache_flush_all
                0x0000000080800894        0x2 arch/arm/cpu/armv7/built-in.o
                0x0000000080800894                v7_outer_cache_flush_all
 .text.flush_dcache_all
                0x0000000080800896        0xe arch/arm/cpu/armv7/built-in.o
                0x0000000080800896                flush_dcache_all
 .text.v7_outer_cache_inval_all
                0x00000000808008a4        0x2 arch/arm/cpu/armv7/built-in.o
                0x00000000808008a4                v7_outer_cache_inval_all
 .text.invalidate_dcache_all
                0x00000000808008a6        0xe arch/arm/cpu/armv7/built-in.o
                0x00000000808008a6                invalidate_dcache_all
 .text.arm_init_before_mmu
                0x00000000808008b4       0x22 arch/arm/cpu/armv7/built-in.o
                0x00000000808008b4                arm_init_before_mmu
 .text.v7_outer_cache_flush_range
                0x00000000808008d6        0x2 arch/arm/cpu/armv7/built-in.o
                0x00000000808008d6                v7_outer_cache_flush_range
 .text.flush_dcache_range
                0x00000000808008d8       0x3a arch/arm/cpu/armv7/built-in.o
                0x00000000808008d8                flush_dcache_range
 .text.v7_outer_cache_inval_range
                0x0000000080800912        0x2 arch/arm/cpu/armv7/built-in.o
                0x0000000080800912                v7_outer_cache_inval_range
 .text.invalidate_dcache_range
                0x0000000080800914       0x42 arch/arm/cpu/armv7/built-in.o
                0x0000000080800914                invalidate_dcache_range
 .text.cpu_cache_initialization
                0x0000000080800956        0x2 arch/arm/cpu/armv7/built-in.o
                0x0000000080800956                cpu_cache_initialization
 .text.cleanup_before_linux_select
                0x0000000080800958       0x3e arch/arm/cpu/armv7/built-in.o
                0x0000000080800958                cleanup_before_linux_select
 .text.cleanup_before_linux
                0x0000000080800996        0x6 arch/arm/cpu/armv7/built-in.o
                0x0000000080800996                cleanup_before_linux
 .text.sdelay   0x000000008080099c        0x6 arch/arm/cpu/armv7/built-in.o
                0x000000008080099c                sdelay
 *fill*         0x00000000808009a2       0x1e 
 .text          0x00000000808009c0      0x420 arch/arm/lib/built-in.o
                0x00000000808009c0                _main
                0x0000000080800a60                memset
                0x0000000080800b00                memcpy
 .text.relocate_vectors
                0x0000000080800de0       0x70 arch/arm/lib/built-in.o
                0x0000000080800de0                relocate_vectors
                0x0000000080800dec                relocate_code
 .text.arch_fixup_fdt
                0x0000000080800e50       0x26 arch/arm/lib/built-in.o
                0x0000000080800e50                arch_fixup_fdt
 *fill*         0x0000000080800e76        0x2 
 .text.arch_lmb_reserve
                0x0000000080800e78       0x30 arch/arm/lib/built-in.o
                0x0000000080800e78                arch_lmb_reserve
 .text.board_quiesce_devices
                0x0000000080800ea8        0x2 arch/arm/lib/built-in.o
                0x0000000080800ea8                board_quiesce_devices
 *fill*         0x0000000080800eaa        0x2 
 .text.boot_jump_linux
                0x0000000080800eac       0xa8 arch/arm/lib/built-in.o
 .text.setup_board_tags
                0x0000000080800f54        0x2 arch/arm/lib/built-in.o
                0x0000000080800f54                setup_board_tags
 *fill*         0x0000000080800f56        0x2 
 .text.boot_prep_linux
                0x0000000080800f58      0x12c arch/arm/lib/built-in.o
 .text.do_bootm_linux
                0x0000000080801084       0x40 arch/arm/lib/built-in.o
                0x0000000080801084                do_bootm_linux
 .text.boot_prep_vxworks
                0x00000000808010c4       0x34 arch/arm/lib/built-in.o
                0x00000000808010c4                boot_prep_vxworks
 .text.boot_jump_vxworks
                0x00000000808010f8        0xe arch/arm/lib/built-in.o
                0x00000000808010f8                boot_jump_vxworks
 *fill*         0x0000000080801106        0x2 
 .text.bootz_setup
                0x0000000080801108       0x6c arch/arm/lib/built-in.o
                0x0000000080801108                bootz_setup
 .text.arch_reserve_stacks
                0x0000000080801174       0x10 arch/arm/lib/built-in.o
                0x0000000080801174                arch_reserve_stacks
 .text.interrupt_init
                0x0000000080801184       0x14 arch/arm/lib/built-in.o
                0x0000000080801184                interrupt_init
 .text.enable_interrupts
                0x0000000080801198        0x2 arch/arm/lib/built-in.o
                0x0000000080801198                enable_interrupts
 .text.disable_interrupts
                0x000000008080119a        0x4 arch/arm/lib/built-in.o
                0x000000008080119a                disable_interrupts
 *fill*         0x000000008080119e        0x2 
 .text.bad_mode
                0x00000000808011a0        0xc arch/arm/lib/built-in.o
                0x00000000808011a0                bad_mode
 .text.show_regs
                0x00000000808011ac      0x104 arch/arm/lib/built-in.o
                0x00000000808011ac                show_regs
 .text.do_undefined_instruction
                0x00000000808012b0       0x24 arch/arm/lib/built-in.o
                0x00000000808012b0                do_undefined_instruction
 .text.do_software_interrupt
                0x00000000808012d4       0x24 arch/arm/lib/built-in.o
                0x00000000808012d4                do_software_interrupt
 .text.do_prefetch_abort
                0x00000000808012f8       0x24 arch/arm/lib/built-in.o
                0x00000000808012f8                do_prefetch_abort
 .text.do_data_abort
                0x000000008080131c       0x24 arch/arm/lib/built-in.o
                0x000000008080131c                do_data_abort
 .text.do_not_used
                0x0000000080801340       0x24 arch/arm/lib/built-in.o
                0x0000000080801340                do_not_used
 .text.do_fiq   0x0000000080801364       0x24 arch/arm/lib/built-in.o
                0x0000000080801364                do_fiq
 .text.do_irq   0x0000000080801388       0x24 arch/arm/lib/built-in.o
                0x0000000080801388                do_irq
 .text.reset_misc
                0x00000000808013ac        0x2 arch/arm/lib/built-in.o
                0x00000000808013ac                reset_misc
 *fill*         0x00000000808013ae        0x2 
 .text.do_reset
                0x00000000808013b0       0x28 arch/arm/lib/built-in.o
                0x00000000808013b0                do_reset
 .text.flush_cache
                0x00000000808013d8        0x6 arch/arm/lib/built-in.o
                0x00000000808013d8                flush_cache
 *fill*         0x00000000808013de        0x2 
 .text.check_cache_range
                0x00000000808013e0       0x24 arch/arm/lib/built-in.o
                0x00000000808013e0                check_cache_range
 .text.set_section_dcache
                0x0000000080801404       0x14 arch/arm/lib/built-in.o
                0x0000000080801404                set_section_dcache
 .text.icache_enable
                0x0000000080801418       0x12 arch/arm/lib/built-in.o
                0x0000000080801418                icache_enable
 .text.icache_disable
                0x000000008080142a       0x16 arch/arm/lib/built-in.o
                0x000000008080142a                icache_disable
 .text.dcache_enable
                0x0000000080801440       0x70 arch/arm/lib/built-in.o
                0x0000000080801440                dcache_enable
 .text.dcache_disable
                0x00000000808014b0       0x20 arch/arm/lib/built-in.o
                0x00000000808014b0                dcache_disable
 .text.dcache_status
                0x00000000808014d0        0xa arch/arm/lib/built-in.o
                0x00000000808014d0                dcache_status
 *fill*         0x00000000808014da        0x2 
 .text          0x00000000808014dc       0x60 arch/arm/mach-omap2/built-in.o
                0x00000000808014dc                save_boot_params
                0x00000000808014e8                omap_smc1
                0x0000000080801504                omap_smc_sec
 .text.get_cpu_rev
                0x000000008080153c       0x10 arch/arm/mach-omap2/built-in.o
                0x000000008080153c                get_cpu_rev
 .text.get_cpu_type
                0x000000008080154c       0x14 arch/arm/mach-omap2/built-in.o
                0x000000008080154c                get_cpu_type
 .text.print_cpuinfo
                0x0000000080801560       0x90 arch/arm/mach-omap2/built-in.o
                0x0000000080801560                print_cpuinfo
 .text.dram_init
                0x00000000808015f0       0x16 arch/arm/mach-omap2/built-in.o
                0x00000000808015f0                dram_init
 .text.dram_init_banksize
                0x0000000080801606       0x14 arch/arm/mach-omap2/built-in.o
                0x0000000080801606                dram_init_banksize
 *fill*         0x000000008080161a        0x2 
 .text.arch_misc_init
                0x000000008080161c       0x38 arch/arm/mach-omap2/built-in.o
                0x000000008080161c                arch_misc_init
 .text.arch_cpu_init_dm
                0x0000000080801654        0xa arch/arm/mach-omap2/built-in.o
                0x0000000080801654                arch_cpu_init_dm
 *fill*         0x000000008080165e        0x2 
 .text.hw_data_init
                0x0000000080801660       0x14 arch/arm/mach-omap2/built-in.o
                0x0000000080801660                hw_data_init
 .text.clk_synthesizer_reg_write
                0x0000000080801674       0x38 arch/arm/mach-omap2/built-in.o
 .text.setup_clock_synthesizer
                0x00000000808016ac       0x84 arch/arm/mach-omap2/built-in.o
                0x00000000808016ac                setup_clock_synthesizer
 .text.reset_cpu
                0x0000000080801730       0x10 arch/arm/mach-omap2/built-in.o
                0x0000000080801730                reset_cpu
 .text.get_device_type
                0x0000000080801740       0x18 arch/arm/mach-omap2/built-in.o
                0x0000000080801740                get_device_type
 .text.enable_caches
                0x0000000080801758        0x4 arch/arm/mach-omap2/built-in.o
                0x0000000080801758                enable_caches
 .text.dram_bank_mmu_setup
                0x000000008080175c       0x38 arch/arm/mach-omap2/built-in.o
                0x000000008080175c                dram_bank_mmu_setup
 .text.arm_init_domains
                0x0000000080801794       0x16 arch/arm/mach-omap2/built-in.o
                0x0000000080801794                arm_init_domains
 *fill*         0x00000000808017aa        0x2 
 .text.fb_set_reboot_flag
                0x00000000808017ac       0x24 arch/arm/mach-omap2/built-in.o
                0x00000000808017ac                fb_set_reboot_flag
 .text.enable_gpmc_cs_config
                0x00000000808017d0       0x6c arch/arm/mach-omap2/built-in.o
                0x00000000808017d0                enable_gpmc_cs_config
 .text.set_gpmc_cs0
                0x000000008080183c       0x4c arch/arm/mach-omap2/built-in.o
                0x000000008080183c                set_gpmc_cs0
 .text.gpmc_init
                0x0000000080801888       0x50 arch/arm/mach-omap2/built-in.o
                0x0000000080801888                gpmc_init
 .text.board_ti_is
                0x00000000808018d8       0x30 board/ti/common/built-in.o
                0x00000000808018d8                board_ti_is
 .text.board_ti_get_rev
                0x0000000080801908        0x8 board/ti/common/built-in.o
                0x0000000080801908                board_ti_get_rev
 .text.set_board_info_env
                0x0000000080801910       0x3c board/ti/common/built-in.o
                0x0000000080801910                set_board_info_env
 .text.do_go_exec
                0x000000008080194c        0xc cmd/built-in.o
                0x000000008080194c                do_go_exec
 .text.do_go    0x0000000080801958       0x4c cmd/built-in.o
 .text.do_bootm
                0x00000000808019a4       0xa8 cmd/built-in.o
                0x00000000808019a4                do_bootm
 .text.do_bootd
                0x0000000080801a4c       0x18 cmd/built-in.o
                0x0000000080801a4c                do_bootd
 .text.image_info
                0x0000000080801a64       0xdc cmd/built-in.o
 .text.do_iminfo
                0x0000000080801b40       0x40 cmd/built-in.o
 .text.bootm_maybe_autostart
                0x0000000080801b80       0x4c cmd/built-in.o
                0x0000000080801b80                bootm_maybe_autostart
 .text.do_help  0x0000000080801bcc       0x30 cmd/built-in.o
 .text.do_version
                0x0000000080801bfc       0x30 cmd/built-in.o
 .text.blk_common_cmd
                0x0000000080801c2c      0x218 cmd/built-in.o
                0x0000000080801c2c                blk_common_cmd
 .text.source   0x0000000080801e44      0x130 cmd/built-in.o
                0x0000000080801e44                source
 .text.do_source
                0x0000000080801f74       0x70 cmd/built-in.o
 .text.print_num
                0x0000000080801fe4       0x10 cmd/built-in.o
 .text.do_bdinfo
                0x0000000080801ff4       0xc8 cmd/built-in.o
 .text.do_bootefi_exec
                0x00000000808020bc      0x230 cmd/built-in.o
 .text.do_bootefi
                0x00000000808022ec       0x5c cmd/built-in.o
 .text.efi_set_bootdev
                0x0000000080802348       0xf8 cmd/built-in.o
                0x0000000080802348                efi_set_bootdev
 .text.do_bootz
                0x0000000080802440       0xb4 cmd/built-in.o
                0x0000000080802440                do_bootz
 .text.do_coninfo
                0x00000000808024f4       0x7c cmd/built-in.o
 .text.do_echo  0x0000000080802570       0x70 cmd/built-in.o
 .text.parse_numeric_param
                0x00000000808025e0       0x1c cmd/built-in.o
 .text.parse_i2c_bus_addr
                0x00000000808025fc       0x54 cmd/built-in.o
 .text.eeprom_write_enable
                0x0000000080802650        0x4 cmd/built-in.o
                0x0000000080802650                eeprom_write_enable
 .text.eeprom_read
                0x0000000080802654       0x4a cmd/built-in.o
                0x0000000080802654                eeprom_read
 .text.eeprom_write
                0x000000008080269e       0x66 cmd/built-in.o
                0x000000008080269e                eeprom_write
 .text.do_eeprom
                0x0000000080802704      0x100 cmd/built-in.o
                0x0000000080802704                do_eeprom
 .text.load_elf_image_shdr
                0x0000000080802804       0xa4 cmd/built-in.o
 .text.valid_elf_image
                0x00000000808028a8       0x30 cmd/built-in.o
                0x00000000808028a8                valid_elf_image
 .text.do_bootelf
                0x00000000808028d8      0x138 cmd/built-in.o
                0x00000000808028d8                do_bootelf
 .text.do_bootvx
                0x0000000080802a10      0x238 cmd/built-in.o
                0x0000000080802a10                do_bootvx
 .text.do_exit  0x0000000080802c48       0x1e cmd/built-in.o
 .text.do_ext4_size
                0x0000000080802c66        0xe cmd/built-in.o
                0x0000000080802c66                do_ext4_size
 .text.do_ext4_load
                0x0000000080802c74        0xe cmd/built-in.o
                0x0000000080802c74                do_ext4_load
 .text.do_ext4_ls
                0x0000000080802c82        0xe cmd/built-in.o
                0x0000000080802c82                do_ext4_ls
 .text.do_ext4_write
                0x0000000080802c90        0xe cmd/built-in.o
                0x0000000080802c90                do_ext4_write
 .text.do_ext2load
                0x0000000080802c9e        0xe cmd/built-in.o
                0x0000000080802c9e                do_ext2load
 .text.do_ext2ls
                0x0000000080802cac        0xe cmd/built-in.o
 .text.do_fat_size
                0x0000000080802cba        0xe cmd/built-in.o
                0x0000000080802cba                do_fat_size
 .text.do_fat_fsload
                0x0000000080802cc8        0xe cmd/built-in.o
                0x0000000080802cc8                do_fat_fsload
 .text.do_fat_ls
                0x0000000080802cd6        0xe cmd/built-in.o
 .text.do_fat_fsinfo
                0x0000000080802ce4       0x58 cmd/built-in.o
 .text.do_fat_fswrite
                0x0000000080802d3c       0xc0 cmd/built-in.o
 .text.fdt_valid
                0x0000000080802dfc       0x74 cmd/built-in.o
 .text.is_printable_string
                0x0000000080802e70       0x50 cmd/built-in.o
 .text.print_data
                0x0000000080802ec0       0xf8 cmd/built-in.o
 .text.set_working_fdt_addr
                0x0000000080802fb8       0x14 cmd/built-in.o
                0x0000000080802fb8                set_working_fdt_addr
 .text.do_fdt   0x0000000080802fcc      0xac0 cmd/built-in.o
 .text.do_size_wrapper
                0x0000000080803a8c        0xe cmd/built-in.o
 *fill*         0x0000000080803a9a        0x2 
 .text.do_load_wrapper
                0x0000000080803a9c       0x40 cmd/built-in.o
 .text.do_save_wrapper
                0x0000000080803adc        0xe cmd/built-in.o
 .text.do_ls_wrapper
                0x0000000080803aea        0xe cmd/built-in.o
 .text.do_fstype_wrapper
                0x0000000080803af8        0x4 cmd/built-in.o
 .text.gpio_get_description
                0x0000000080803afc       0x7c cmd/built-in.o
 .text.do_gpio  0x0000000080803b78      0x22c cmd/built-in.o
 .text.do_i2c   0x0000000080803da4       0x3c cmd/built-in.o
 .text.i2c_get_cur_bus
                0x0000000080803de0       0x24 cmd/built-in.o
 .text.do_i2c_bus_speed
                0x0000000080803e04       0x64 cmd/built-in.o
 .text.do_i2c_reset
                0x0000000080803e68       0x24 cmd/built-in.o
 .text.i2c_get_cur_bus_chip
                0x0000000080803e8c       0x1e cmd/built-in.o
 *fill*         0x0000000080803eaa        0x2 
 .text.do_i2c_probe
                0x0000000080803eac       0x74 cmd/built-in.o
 .text.do_i2c_bus_num
                0x0000000080803f20       0x80 cmd/built-in.o
 .text.show_bus
                0x0000000080803fa0       0x64 cmd/built-in.o
 .text.do_i2c_show_bus
                0x0000000080804004       0x6c cmd/built-in.o
 .text.get_alen.constprop.4
                0x0000000080804070       0x1e cmd/built-in.o
 *fill*         0x000000008080408e        0x2 
 .text.do_i2c_crc
                0x0000000080804090       0xdc cmd/built-in.o
 .text.do_i2c_olen
                0x000000008080416c       0x78 cmd/built-in.o
 .text.do_i2c_flags
                0x00000000808041e4       0x7c cmd/built-in.o
 .text.do_i2c_write
                0x0000000080804260      0x104 cmd/built-in.o
 .text.do_i2c_mw
                0x0000000080804364       0xbc cmd/built-in.o
 .text.do_i2c_read
                0x0000000080804420       0x94 cmd/built-in.o
 .text.do_i2c_md
                0x00000000808044b4      0x158 cmd/built-in.o
 .text.mod_i2c_mem.isra.2
                0x000000008080460c      0x16c cmd/built-in.o
 .text.do_i2c_nm
                0x0000000080804778        0x6 cmd/built-in.o
 .text.do_i2c_mm
                0x000000008080477e        0x6 cmd/built-in.o
 .text.do_i2c_loop
                0x0000000080804784       0xb8 cmd/built-in.o
 .text.evalexp  0x000000008080483c       0x4a cmd/built-in.o
 .text.evalstr  0x0000000080804886       0x3e cmd/built-in.o
 .text.binary_test
                0x00000000808048c4      0x130 cmd/built-in.o
 .text.do_itest
                0x00000000808049f4       0x58 cmd/built-in.o
 .text.bin_data_init
                0x0000000080804a4c       0x1c cmd/built-in.o
 .text.k_data_save
                0x0000000080804a68       0x34 cmd/built-in.o
 .text.k_data_restore
                0x0000000080804a9c       0x34 cmd/built-in.o
 .text.getcxmodem
                0x0000000080804ad0       0x16 cmd/built-in.o
 *fill*         0x0000000080804ae6        0x2 
 .text.load_serial_ymodem
                0x0000000080804ae8       0x8c cmd/built-in.o
 .text.bin_data_char
                0x0000000080804b74       0x1c cmd/built-in.o
 .text.chk1.constprop.1
                0x0000000080804b90       0x20 cmd/built-in.o
 .text.s1_sendpacket.constprop.2
                0x0000000080804bb0       0x34 cmd/built-in.o
 .text.load_serial
                0x0000000080804be4      0x128 cmd/built-in.o
 .text.do_load_serial
                0x0000000080804d0c       0x90 cmd/built-in.o
 .text.do_load_serial_bin
                0x0000000080804d9c      0x550 cmd/built-in.o
 .text.do_mem_mw
                0x00000000808052ec       0x80 cmd/built-in.o
 .text.do_mem_loop
                0x000000008080536c       0x8e cmd/built-in.o
 *fill*         0x00000000808053fa        0x2 
 .text.do_mem_md
                0x00000000808053fc       0xa0 cmd/built-in.o
 .text.do_mem_base
                0x000000008080549c       0x28 cmd/built-in.o
 .text.do_mem_cp
                0x00000000808054c4       0x74 cmd/built-in.o
 .text.do_mem_cmp
                0x0000000080805538       0xf8 cmd/built-in.o
 .text.do_mem_crc
                0x0000000080805630       0x2c cmd/built-in.o
 .text.mod_mem.isra.2
                0x000000008080565c       0xec cmd/built-in.o
 .text.do_mem_mm
                0x0000000080805748        0x6 cmd/built-in.o
 .text.do_mem_nm
                0x000000008080574e        0x6 cmd/built-in.o
 .text.extract_range
                0x0000000080805754       0x78 cmd/built-in.o
 .text.do_mii   0x00000000808057cc      0x620 cmd/built-in.o
 .text.do_mdio  0x0000000080805dec      0x31c cmd/built-in.o
 .text.do_sleep
                0x0000000080806108       0x84 cmd/built-in.o
 .text.do_mmcops
                0x000000008080618c       0x74 cmd/built-in.o
 .text.init_mmc_device
                0x0000000080806200       0x34 cmd/built-in.o
 .text.do_mmc_rescan
                0x0000000080806234       0x1c cmd/built-in.o
 .text.do_mmc_hwpartition
                0x0000000080806250      0x3c0 cmd/built-in.o
 .text.do_mmc_list
                0x0000000080806610        0xc cmd/built-in.o
 .text.do_mmc_dev
                0x000000008080661c       0xcc cmd/built-in.o
 .text.do_mmc_part
                0x00000000808066e8       0x38 cmd/built-in.o
 .text.do_mmc_erase
                0x0000000080806720       0x9c cmd/built-in.o
 .text.do_mmc_write
                0x00000000808067bc       0xb0 cmd/built-in.o
 .text.do_mmc_read
                0x000000008080686c       0xa8 cmd/built-in.o
 .text.do_mmcinfo
                0x0000000080806914      0x29c cmd/built-in.o
 .text.do_mmc_setdsr
                0x0000000080806bb0       0x74 cmd/built-in.o
 .text.part_delall
                0x0000000080806c24       0x26 cmd/built-in.o
 .text.memsize_parse
                0x0000000080806c4a       0x54 cmd/built-in.o
 *fill*         0x0000000080806c9e        0x2 
 .text.mtd_part_info
                0x0000000080806ca0       0x88 cmd/built-in.o
 .text.index_partitions
                0x0000000080806d28       0xb4 cmd/built-in.o
 .text.current_save
                0x0000000080806ddc       0x98 cmd/built-in.o
 .text.part_sort_add
                0x0000000080806e74       0xc8 cmd/built-in.o
 .text.env_get_mtdparts
                0x0000000080806f3c       0x30 cmd/built-in.o
 .text.memsize_format
                0x0000000080806f6c       0x74 cmd/built-in.o
 .text.device_del
                0x0000000080806fe0       0x50 cmd/built-in.o
 .text.generate_mtdparts_save.constprop.7
                0x0000000080807030      0x1d0 cmd/built-in.o
 .text.device_delall.constprop.9
                0x0000000080807200       0x3c cmd/built-in.o
 .text.mtd_devices_init
                0x000000008080723c       0x20 cmd/built-in.o
 .text.get_mtd_info.constprop.10
                0x000000008080725c       0x58 cmd/built-in.o
 .text.part_validate
                0x00000000808072b4      0x250 cmd/built-in.o
 .text.device_find
                0x0000000080807504       0x2c cmd/built-in.o
                0x0000000080807504                device_find
 .text.device_parse
                0x0000000080807530      0x410 cmd/built-in.o
 .text.mtd_id_parse
                0x0000000080807940       0xa0 cmd/built-in.o
                0x0000000080807940                mtd_id_parse
 .text.find_dev_and_part
                0x00000000808079e0      0x130 cmd/built-in.o
                0x00000000808079e0                find_dev_and_part
 .text.mtdparts_init
                0x0000000080807b10      0x548 cmd/built-in.o
                0x0000000080807b10                mtdparts_init
 .text.do_chpart
                0x0000000080808058       0x88 cmd/built-in.o
 .text.do_mtdparts
                0x00000000808080e0      0x468 cmd/built-in.o
 .text.set_dev  0x0000000080808548       0x40 cmd/built-in.o
 .text.nand_print_and_set_info
                0x0000000080808588       0xb4 cmd/built-in.o
 .text.do_nand  0x000000008080863c      0x8a8 cmd/built-in.o
 .text.nand_load_image
                0x0000000080808ee4      0x174 cmd/built-in.o
 .text.do_nandboot
                0x0000000080809058      0x15c cmd/built-in.o
 .text.netboot_common
                0x00000000808091b4      0x1c8 cmd/built-in.o
 .text.do_bootp
                0x000000008080937c        0x8 cmd/built-in.o
 .text.do_dhcp  0x0000000080809384        0x8 cmd/built-in.o
 .text.do_nfs   0x000000008080938c        0x8 cmd/built-in.o
 .text.do_tftpb
                0x0000000080809394       0x26 cmd/built-in.o
                0x0000000080809394                do_tftpb
 *fill*         0x00000000808093ba        0x2 
 .text.do_ping  0x00000000808093bc       0x4c cmd/built-in.o
 .text.do_part_list
                0x0000000080809408       0xe4 cmd/built-in.o
 .text.do_part_start
                0x00000000808094ec       0x84 cmd/built-in.o
 .text.do_part_size
                0x0000000080809570       0x84 cmd/built-in.o
 .text.do_part  0x00000000808095f4       0xb0 cmd/built-in.o
 .text.eol_or_eof
                0x00000000808096a4       0x12 cmd/built-in.o
 *fill*         0x00000000808096b6        0x2 
 .text.do_pxe   0x00000000808096b8       0x48 cmd/built-in.o
 .text.label_print
                0x0000000080809700       0x14 cmd/built-in.o
 .text.do_get_tftp
                0x0000000080809714       0x2c cmd/built-in.o
 .text.from_env
                0x0000000080809740       0x1c cmd/built-in.o
 .text.get_string
                0x000000008080975c       0x7c cmd/built-in.o
 .text.label_destroy
                0x00000000808097d8       0x3e cmd/built-in.o
 .text.destroy_pxe_menu
                0x0000000080809816       0x36 cmd/built-in.o
 .text.get_token
                0x000000008080984c       0xa4 cmd/built-in.o
 .text.parse_sliteral
                0x00000000808098f0       0x34 cmd/built-in.o
 .text.parse_integer
                0x0000000080809924       0x44 cmd/built-in.o
 .text.do_get_any
                0x0000000080809968       0x2c cmd/built-in.o
 .text.do_get_fat
                0x0000000080809994       0x28 cmd/built-in.o
 .text.do_get_ext2
                0x00000000808099bc       0x28 cmd/built-in.o
 .text.format_mac_pxe.constprop.9
                0x00000000808099e4       0x54 cmd/built-in.o
 .text.get_relfile
                0x0000000080809a38       0xcc cmd/built-in.o
 .text.get_pxe_file
                0x0000000080809b04       0x3c cmd/built-in.o
 .text.handle_include
                0x0000000080809b40       0x68 cmd/built-in.o
 .text.parse_pxefile_top
                0x0000000080809ba8      0x318 cmd/built-in.o
 .text.parse_pxefile
                0x0000000080809ec0       0x40 cmd/built-in.o
 .text.get_pxelinux_path
                0x0000000080809f00       0x54 cmd/built-in.o
 .text.do_pxe_get
                0x0000000080809f54       0xdc cmd/built-in.o
 .text.get_relfile_envaddr
                0x000000008080a030       0x34 cmd/built-in.o
 .text.label_boot
                0x000000008080a064      0x3d4 cmd/built-in.o
 .text.handle_pxe_menu
                0x000000008080a438       0xdc cmd/built-in.o
 .text.do_pxe_boot
                0x000000008080a514       0x94 cmd/built-in.o
 .text.do_sysboot
                0x000000008080a5a8      0x140 cmd/built-in.o
 .text.bytes_per_second
                0x000000008080a6e8       0x34 cmd/built-in.o
 .text.do_spi_flash
                0x000000008080a71c      0x598 cmd/built-in.o
 .text.do_spi   0x000000008080acb4      0x1ac cmd/built-in.o
                0x000000008080acb4                do_spi
 .text.do_time  0x000000008080ae60       0x88 cmd/built-in.o
 .text.do_false
                0x000000008080aee8        0x4 cmd/built-in.o
 .text.do_true  0x000000008080aeec        0x4 cmd/built-in.o
 .text.do_test  0x000000008080aef0      0x238 cmd/built-in.o
 .text.usb_get_class_desc
                0x000000008080b128       0x74 cmd/built-in.o
 .text.usb_display_class_sub
                0x000000008080b19c       0xf4 cmd/built-in.o
 .text.usb_display_desc
                0x000000008080b290       0xec cmd/built-in.o
 .text.usb_show_tree_graph
                0x000000008080b37c      0x148 cmd/built-in.o
 .text.usb_show_subtree
                0x000000008080b4c4       0x1c cmd/built-in.o
 .text.usb_for_each_root_dev
                0x000000008080b4e0       0x38 cmd/built-in.o
 .text.usb_display_string
                0x000000008080b518       0x2c cmd/built-in.o
 .text.usb_display_config
                0x000000008080b544      0x198 cmd/built-in.o
 .text.usb_show_info
                0x000000008080b6dc       0x36 cmd/built-in.o
 .text.usb_find_device
                0x000000008080b712       0x62 cmd/built-in.o
 .text.do_usbboot
                0x000000008080b774        0xc cmd/built-in.o
 .text.do_usb_start
                0x000000008080b780       0x20 cmd/built-in.o
 .text.usb_show_tree
                0x000000008080b7a0        0xc cmd/built-in.o
                0x000000008080b7a0                usb_show_tree
 .text.do_usb   0x000000008080b7ac      0x2a8 cmd/built-in.o
 .text.common_diskboot
                0x000000008080ba54      0x1dc cmd/built-in.o
                0x000000008080ba54                common_diskboot
 .text.do_fastboot
                0x000000008080bc30       0x94 cmd/built-in.o
 .text.do_imgextract
                0x000000008080bcc4      0x294 cmd/built-in.o
 .text.do_spl   0x000000008080bf58      0x184 cmd/built-in.o
 .text.do_dfu   0x000000008080c0dc       0x54 cmd/built-in.o
 .text.extract_val
                0x000000008080c130       0x58 cmd/built-in.o
 .text.extract_env
                0x000000008080c188       0xa4 cmd/built-in.o
 .text.set_gpt_info.constprop.1
                0x000000008080c22c      0x344 cmd/built-in.o
 .text.do_gpt   0x000000008080c570      0x210 cmd/built-in.o
 .text.do_env_delete
                0x000000008080c780       0x78 cmd/built-in.o
 .text.do_env_exists
                0x000000008080c7f8       0x40 cmd/built-in.o
 .text.do_env_save
                0x000000008080c838       0x20 cmd/built-in.o
 .text.do_env   0x000000008080c858       0x3c cmd/built-in.o
 .text.env_print
                0x000000008080c894       0x74 cmd/built-in.o
 .text.do_env_print
                0x000000008080c908       0x74 cmd/built-in.o
 .text.do_env_import
                0x000000008080c97c      0x188 cmd/built-in.o
 .text.do_env_default
                0x000000008080cb04       0x7c cmd/built-in.o
 .text._do_env_set.isra.1
                0x000000008080cb80      0x138 cmd/built-in.o
 .text.do_env_set
                0x000000008080ccb8       0x14 cmd/built-in.o
 .text.do_env_ask
                0x000000008080cccc       0xe0 cmd/built-in.o
                0x000000008080cccc                do_env_ask
 .text.get_env_id
                0x000000008080cdac        0xc cmd/built-in.o
                0x000000008080cdac                get_env_id
 .text.env_set  0x000000008080cdb8       0x3c cmd/built-in.o
                0x000000008080cdb8                env_set
 .text.env_set_ulong
                0x000000008080cdf4       0x16 cmd/built-in.o
                0x000000008080cdf4                env_set_ulong
 *fill*         0x000000008080ce0a        0x2 
 .text.env_set_hex
                0x000000008080ce0c       0x20 cmd/built-in.o
                0x000000008080ce0c                env_set_hex
 .text.do_env_export
                0x000000008080ce2c      0x184 cmd/built-in.o
 .text.envmatch
                0x000000008080cfb0       0x46 cmd/built-in.o
                0x000000008080cfb0                envmatch
 *fill*         0x000000008080cff6        0x2 
 .text.env_get_f
                0x000000008080cff8       0x80 cmd/built-in.o
                0x000000008080cff8                env_get_f
 .text.env_get  0x000000008080d078       0x54 cmd/built-in.o
                0x000000008080d078                env_get
 .text.env_get_hex
                0x000000008080d0cc       0x22 cmd/built-in.o
                0x000000008080d0cc                env_get_hex
 .text.env_get_ulong
                0x000000008080d0ee       0x1c cmd/built-in.o
                0x000000008080d0ee                env_get_ulong
 *fill*         0x000000008080d10a        0x2 
 .text.do_env_edit.part.3
                0x000000008080d10c       0x6c cmd/built-in.o
 .text.do_env_edit
                0x000000008080d178       0x1c cmd/built-in.o
 .text.board_init_f_alloc_reserve
                0x000000008080d194        0xa common/built-in.o
                0x000000008080d194                board_init_f_alloc_reserve
 .text.board_init_f_init_reserve
                0x000000008080d19e       0x16 common/built-in.o
                0x000000008080d19e                board_init_f_init_reserve
 .text.show_boot_progress
                0x000000008080d1b4        0x4 common/built-in.o
                0x000000008080d1b4                show_boot_progress
 .text.main_loop
                0x000000008080d1b8       0x48 common/built-in.o
                0x000000008080d1b8                main_loop
 .text.mdelay   0x000000008080d200       0x14 common/built-in.o
 .text.dummy    0x000000008080d214        0x2 common/built-in.o
 .text.get_version
                0x000000008080d216        0x4 common/built-in.o
                0x000000008080d216                get_version
 *fill*         0x000000008080d21a        0x2 
 .text.jumptable_init
                0x000000008080d21c      0x198 common/built-in.o
                0x000000008080d21c                jumptable_init
 .text.hash_finish_crc32
                0x000000008080d3b4       0x1c common/built-in.o
 .text.hash_update_crc32
                0x000000008080d3d0       0x14 common/built-in.o
 .text.hash_init_crc32
                0x000000008080d3e4       0x14 common/built-in.o
 .text.hash_finish_sha256
                0x000000008080d3f8       0x22 common/built-in.o
 .text.hash_update_sha256
                0x000000008080d41a       0x10 common/built-in.o
 .text.hash_init_sha256
                0x000000008080d42a       0x16 common/built-in.o
 .text.hash_finish_sha1
                0x000000008080d440       0x22 common/built-in.o
 .text.hash_update_sha1
                0x000000008080d462       0x10 common/built-in.o
 .text.hash_init_sha1
                0x000000008080d472       0x16 common/built-in.o
 .text.hash_lookup_algo
                0x000000008080d488       0x44 common/built-in.o
                0x000000008080d488                hash_lookup_algo
 .text.hash_command
                0x000000008080d4cc      0x11c common/built-in.o
                0x000000008080d4cc                hash_command
 .text.b_reset  0x000000008080d5e8        0xe common/built-in.o
 .text.static_get
                0x000000008080d5f6       0x12 common/built-in.o
 .text.static_peek
                0x000000008080d608        0x6 common/built-in.o
 .text.file_peek
                0x000000008080d60e        0x6 common/built-in.o
 .text.mapset   0x000000008080d614       0x14 common/built-in.o
 .text.syntax_err
                0x000000008080d628        0xc common/built-in.o
 .text.free_pipe_list
                0x000000008080d634       0x92 common/built-in.o
 *fill*         0x000000008080d6c6        0x2 
 .text.xmalloc  0x000000008080d6c8       0x18 common/built-in.o
 .text.new_pipe
                0x000000008080d6e0       0x16 common/built-in.o
 *fill*         0x000000008080d6f6        0x2 
 .text.xrealloc
                0x000000008080d6f8       0x18 common/built-in.o
 .text.done_command
                0x000000008080d710       0x42 common/built-in.o
 .text.done_pipe
                0x000000008080d752       0x2a common/built-in.o
 .text.done_word
                0x000000008080d77c      0x1d8 common/built-in.o
 .text.do_showvar
                0x000000008080d954       0xa0 common/built-in.o
 .text.is_assignment
                0x000000008080d9f4       0x30 common/built-in.o
 .text.file_get
                0x000000008080da24      0x120 common/built-in.o
 .text.b_addchr
                0x000000008080db44       0x42 common/built-in.o
 *fill*         0x000000008080db86        0x2 
 .text.b_addqchr
                0x000000008080db88       0x30 common/built-in.o
 .text.get_local_var
                0x000000008080dbb8       0x58 common/built-in.o
                0x000000008080dbb8                get_local_var
 .text.set_local_var
                0x000000008080dc10      0x104 common/built-in.o
                0x000000008080dc10                set_local_var
 .text.insert_var_value_sub
                0x000000008080dd14      0x1b0 common/built-in.o
 .text.parse_string_outer
                0x000000008080dec4       0x94 common/built-in.o
                0x000000008080dec4                parse_string_outer
 .text.run_list_real
                0x000000008080df58      0x4f4 common/built-in.o
 .text.parse_stream_outer
                0x000000008080e44c      0x448 common/built-in.o
 .text.parse_file_outer
                0x000000008080e894       0x2c common/built-in.o
                0x000000008080e894                parse_file_outer
 .text.u_boot_hush_start
                0x000000008080e8c0       0x30 common/built-in.o
                0x000000008080e8c0                u_boot_hush_start
 .text.bootdelay_process
                0x000000008080e8f0       0xd4 common/built-in.o
                0x000000008080e8f0                bootdelay_process
 .text.autoboot_command
                0x000000008080e9c4       0xb8 common/built-in.o
                0x000000008080e9c4                autoboot_command
 .text.setup_mon_len
                0x000000008080ea7c       0x18 common/built-in.o
 .text.arch_cpu_init
                0x000000008080ea94        0x4 common/built-in.o
                0x000000008080ea94                arch_cpu_init
 .text.mach_cpu_init
                0x000000008080ea98        0x4 common/built-in.o
                0x000000008080ea98                mach_cpu_init
 .text.reserve_round_4k
                0x000000008080ea9c       0x12 common/built-in.o
 .text.reserve_video
                0x000000008080eaae        0x4 common/built-in.o
 .text.reserve_trace
                0x000000008080eab2        0x4 common/built-in.o
 .text.setup_machine
                0x000000008080eab6        0xe common/built-in.o
 .text.reserve_bootstage
                0x000000008080eac4        0x4 common/built-in.o
 .text.reloc_bootstage
                0x000000008080eac8        0x4 common/built-in.o
 .text.initf_console_record
                0x000000008080eacc        0x4 common/built-in.o
 .text.reserve_arch
                0x000000008080ead0        0x4 common/built-in.o
                0x000000008080ead0                reserve_arch
 .text.init_func_watchdog_reset
                0x000000008080ead4        0xa common/built-in.o
                0x000000008080ead4                init_func_watchdog_reset
 .text.init_func_watchdog_init
                0x000000008080eade        0xa common/built-in.o
 .text.reserve_mmu
                0x000000008080eae8       0x40 common/built-in.o
                0x000000008080eae8                reserve_mmu
 .text.display_new_sp
                0x000000008080eb28       0x14 common/built-in.o
 .text.reserve_fdt
                0x000000008080eb3c       0x3c common/built-in.o
 .text.reserve_global_data
                0x000000008080eb78       0x20 common/built-in.o
 .text.reserve_malloc
                0x000000008080eb98       0x24 common/built-in.o
 .text.reserve_uboot
                0x000000008080ebbc       0x34 common/built-in.o
 .text.display_text_info
                0x000000008080ebf0       0x24 common/built-in.o
 .text.setup_reloc
                0x000000008080ec14       0x4c common/built-in.o
 .text.reloc_fdt
                0x000000008080ec60       0x22 common/built-in.o
 *fill*         0x000000008080ec82        0x2 
 .text.reserve_board
                0x000000008080ec84       0x30 common/built-in.o
 .text.announce_dram_init
                0x000000008080ecb4       0x10 common/built-in.o
 .text.init_baud_rate
                0x000000008080ecc4       0x1c common/built-in.o
 .text.initf_dm
                0x000000008080ece0        0x6 common/built-in.o
 .text.initf_bootstage
                0x000000008080ece6        0xc common/built-in.o
 .text.coloured_LED_init
                0x000000008080ecf2        0x2 common/built-in.o
                0x000000008080ecf2                coloured_LED_init
 .text.red_led_on
                0x000000008080ecf4        0x2 common/built-in.o
                0x000000008080ecf4                red_led_on
 .text.board_add_ram_info
                0x000000008080ecf6        0x2 common/built-in.o
                0x000000008080ecf6                board_add_ram_info
 .text.show_dram_config
                0x000000008080ecf8       0x60 common/built-in.o
 .text.board_get_usable_ram_top
                0x000000008080ed58        0xe common/built-in.o
                0x000000008080ed58                board_get_usable_ram_top
 *fill*         0x000000008080ed66        0x2 
 .text.setup_dest_addr
                0x000000008080ed68       0x50 common/built-in.o
 .text.reserve_stacks
                0x000000008080edb8       0x14 common/built-in.o
 .text.board_init_f
                0x000000008080edcc       0x1c common/built-in.o
                0x000000008080edcc                board_init_f
 .text.bootstage_relocate
                0x000000008080ede8        0x4 common/built-in.o
 .text.initr_trace
                0x000000008080edec        0x4 common/built-in.o
 .text.initr_reloc
                0x000000008080edf0       0x12 common/built-in.o
 .text.initr_barrier
                0x000000008080ee02        0x4 common/built-in.o
 .text.initr_console_record
                0x000000008080ee06        0x4 common/built-in.o
 .text.power_init_board
                0x000000008080ee0a        0x4 common/built-in.o
                0x000000008080ee0a                power_init_board
 .text.run_main_loop
                0x000000008080ee0e        0x8 common/built-in.o
 *fill*         0x000000008080ee16        0x2 
 .text.initr_net
                0x000000008080ee18       0x14 common/built-in.o
 .text.initr_ethaddr
                0x000000008080ee2c       0x18 common/built-in.o
 .text.initr_enable_interrupts
                0x000000008080ee44        0xa common/built-in.o
 .text.initr_jumptable
                0x000000008080ee4e        0xa common/built-in.o
 .text.initr_env
                0x000000008080ee58       0x48 common/built-in.o
 .text.initr_mmc
                0x000000008080eea0       0x18 common/built-in.o
 .text.initr_nand
                0x000000008080eeb8       0x24 common/built-in.o
 .text.initr_announce
                0x000000008080eedc       0x14 common/built-in.o
 .text.initr_serial
                0x000000008080eef0        0xa common/built-in.o
 .text.initr_dm
                0x000000008080eefa       0x10 common/built-in.o
 .text.initr_bootstage
                0x000000008080ef0a        0xc common/built-in.o
 *fill*         0x000000008080ef16        0x2 
 .text.initr_malloc
                0x000000008080ef18       0x34 common/built-in.o
 .text.initr_reloc_global_data
                0x000000008080ef4c       0x28 common/built-in.o
 .text.initr_caches
                0x000000008080ef74        0xa common/built-in.o
 .text.cpu_secondary_init_r
                0x000000008080ef7e        0x2 common/built-in.o
                0x000000008080ef7e                cpu_secondary_init_r
 .text.initr_secondary_cpu
                0x000000008080ef80        0xa common/built-in.o
 *fill*         0x000000008080ef8a        0x2 
 .text.board_init_r
                0x000000008080ef8c       0x10 common/built-in.o
                0x000000008080ef8c                board_init_r
 .text.checkboard
                0x000000008080ef9c        0x4 common/built-in.o
                0x000000008080ef9c                checkboard
 .text.show_board_info
                0x000000008080efa0       0x2c common/built-in.o
                0x000000008080efa0                show_board_info
 .text.bootm_find_images
                0x000000008080efcc       0x88 common/built-in.o
                0x000000008080efcc                bootm_find_images
 .text.bootm_decomp_image
                0x000000008080f054      0x108 common/built-in.o
                0x000000008080f054                bootm_decomp_image
 .text.bootm_disable_interrupts
                0x000000008080f15c       0x10 common/built-in.o
                0x000000008080f15c                bootm_disable_interrupts
 .text.do_bootm_states
                0x000000008080f16c      0x6a0 common/built-in.o
                0x000000008080f16c                do_bootm_states
 .text.copy_args
                0x000000008080f80c       0x36 common/built-in.o
 *fill*         0x000000008080f842        0x2 
 .text.do_bootm_rtems
                0x000000008080f844       0x34 common/built-in.o
 .text.do_bootm_plan9
                0x000000008080f878       0x70 common/built-in.o
 .text.do_bootm_standalone
                0x000000008080f8e8       0x40 common/built-in.o
 .text.do_bootm_qnxelf
                0x000000008080f928       0x54 common/built-in.o
 .text.do_bootm_netbsd
                0x000000008080f97c       0xb0 common/built-in.o
 .text.do_bootvx_fdt
                0x000000008080fa2c       0xcc common/built-in.o
                0x000000008080fa2c                do_bootvx_fdt
 .text.do_bootm_vxworks
                0x000000008080faf8       0x1c common/built-in.o
 .text.arch_preboot_os
                0x000000008080fb14        0x2 common/built-in.o
                0x000000008080fb14                arch_preboot_os
 *fill*         0x000000008080fb16        0x2 
 .text.boot_selected_os
                0x000000008080fb18       0x44 common/built-in.o
                0x000000008080fb18                boot_selected_os
 .text.bootm_os_get_boot_func
                0x000000008080fb5c        0xc common/built-in.o
                0x000000008080fb5c                bootm_os_get_boot_func
 .text.of_bus_default_map
                0x000000008080fb68       0xbc common/built-in.o
 .text.of_dump_addr
                0x000000008080fc24       0x38 common/built-in.o
 .text.fdt_support_default_count_cells
                0x000000008080fc5c       0x34 common/built-in.o
                0x000000008080fc5c                fdt_support_default_count_cells
 .text.of_bus_default_translate
                0x000000008080fc90       0x76 common/built-in.o
 .text.fdt_find_and_setprop
                0x000000008080fd06       0x48 common/built-in.o
                0x000000008080fd06                fdt_find_and_setprop
 *fill*         0x000000008080fd4e        0x2 
 .text.fdt_find_or_add_subnode
                0x000000008080fd50       0x40 common/built-in.o
                0x000000008080fd50                fdt_find_or_add_subnode
 .text.fdt_root
                0x000000008080fd90       0x64 common/built-in.o
                0x000000008080fd90                fdt_root
 .text.fdt_initrd
                0x000000008080fdf4      0x16c common/built-in.o
                0x000000008080fdf4                fdt_initrd
 .text.fdt_chosen
                0x000000008080ff60       0x6c common/built-in.o
                0x000000008080ff60                fdt_chosen
 .text.do_fixup_by_path
                0x000000008080ffcc       0x70 common/built-in.o
                0x000000008080ffcc                do_fixup_by_path
 .text.fdt_fixup_memory_banks
                0x000000008081003c      0x118 common/built-in.o
                0x000000008081003c                fdt_fixup_memory_banks
 .text.fdt_fixup_memory
                0x0000000080810154       0x18 common/built-in.o
                0x0000000080810154                fdt_fixup_memory
 .text.fdt_fixup_ethernet
                0x000000008081016c       0xfc common/built-in.o
                0x000000008081016c                fdt_fixup_ethernet
 .text.fdt_shrink_to_minimum
                0x0000000080810268       0x8e common/built-in.o
                0x0000000080810268                fdt_shrink_to_minimum
 *fill*         0x00000000808102f6        0x2 
 .text.fdt_translate_address
                0x00000000808102f8      0x250 common/built-in.o
                0x00000000808102f8                fdt_translate_address
 .text.miiphy_get_dev_by_name
                0x0000000080810548       0x38 common/built-in.o
                0x0000000080810548                miiphy_get_dev_by_name
 .text.miiphy_init
                0x0000000080810580       0x18 common/built-in.o
                0x0000000080810580                miiphy_init
 .text.mdio_alloc
                0x0000000080810598       0x1c common/built-in.o
                0x0000000080810598                mdio_alloc
 .text.mdio_register
                0x00000000808105b4       0x50 common/built-in.o
                0x00000000808105b4                mdio_register
 .text.mdio_list_devices
                0x0000000080810604       0x60 common/built-in.o
                0x0000000080810604                mdio_list_devices
 .text.miiphy_set_current_dev
                0x0000000080810664       0x28 common/built-in.o
                0x0000000080810664                miiphy_set_current_dev
 .text.miiphy_get_active_dev
                0x000000008081068c       0x30 common/built-in.o
 .text.mdio_get_current_dev
                0x00000000808106bc        0xc common/built-in.o
                0x00000000808106bc                mdio_get_current_dev
 .text.mdio_phydev_for_ethname
                0x00000000808106c8       0x4c common/built-in.o
                0x00000000808106c8                mdio_phydev_for_ethname
 .text.miiphy_get_current_dev
                0x0000000080810714       0x10 common/built-in.o
                0x0000000080810714                miiphy_get_current_dev
 .text.miiphy_read
                0x0000000080810724       0x28 common/built-in.o
                0x0000000080810724                miiphy_read
 .text.miiphy_write
                0x000000008081074c       0x24 common/built-in.o
                0x000000008081074c                miiphy_write
 .text.miiphy_listdev
                0x0000000080810770       0x54 common/built-in.o
                0x0000000080810770                miiphy_listdev
 .text.miiphy_info
                0x00000000808107c4       0x5c common/built-in.o
                0x00000000808107c4                miiphy_info
 .text.miiphy_is_1000base_x
                0x0000000080810820       0x30 common/built-in.o
                0x0000000080810820                miiphy_is_1000base_x
 .text.miiphy_speed
                0x0000000080810850       0xc0 common/built-in.o
                0x0000000080810850                miiphy_speed
 .text.miiphy_duplex
                0x0000000080810910       0xd4 common/built-in.o
                0x0000000080810910                miiphy_duplex
 .text.usb_set_maxpacket_ep
                0x00000000808109e4       0x6c common/built-in.o
 .text.usb_control_msg
                0x0000000080810a50       0x90 common/built-in.o
                0x0000000080810a50                usb_control_msg
 .text.usb_get_descriptor
                0x0000000080810ae0       0x38 common/built-in.o
 .text.get_descriptor_len
                0x0000000080810b18       0x60 common/built-in.o
 .text.usb_get_string
                0x0000000080810b78       0x4c common/built-in.o
 .text.usb_string_sub
                0x0000000080810bc4       0x94 common/built-in.o
 .text.usb_bulk_msg
                0x0000000080810c58       0x52 common/built-in.o
                0x0000000080810c58                usb_bulk_msg
 .text.usb_maxpacket
                0x0000000080810caa       0x1a common/built-in.o
                0x0000000080810caa                usb_maxpacket
 .text.usb_clear_halt
                0x0000000080810cc4       0x5e common/built-in.o
                0x0000000080810cc4                usb_clear_halt
 *fill*         0x0000000080810d22        0x2 
 .text.usb_get_configuration_len
                0x0000000080810d24       0x50 common/built-in.o
                0x0000000080810d24                usb_get_configuration_len
 .text.usb_get_configuration_no
                0x0000000080810d74       0x38 common/built-in.o
                0x0000000080810d74                usb_get_configuration_no
 .text.usb_set_interface
                0x0000000080810dac       0x74 common/built-in.o
                0x0000000080810dac                usb_set_interface
 .text.usb_string
                0x0000000080810e20       0xcc common/built-in.o
                0x0000000080810e20                usb_string
 .text.usb_select_config
                0x0000000080810eec      0x3a0 common/built-in.o
                0x0000000080810eec                usb_select_config
 .text.usb_setup_device
                0x000000008081128c      0x110 common/built-in.o
                0x000000008081128c                usb_setup_device
 .text.board_usb_init
                0x000000008081139c        0x4 common/built-in.o
                0x000000008081139c                board_usb_init
 .text.board_usb_cleanup
                0x00000000808113a0        0x4 common/built-in.o
                0x00000000808113a0                board_usb_cleanup
 .text.usb_device_has_child_on_port
                0x00000000808113a4        0x4 common/built-in.o
                0x00000000808113a4                usb_device_has_child_on_port
 .text.usb_find_usb2_hub_address_port
                0x00000000808113a8       0x4c common/built-in.o
                0x00000000808113a8                usb_find_usb2_hub_address_port
 .text.usb_set_port_feature
                0x00000000808113f4       0x2e common/built-in.o
 .text.usb_clear_port_feature
                0x0000000080811422       0x2e common/built-in.o
 .text.usb_get_hub_descriptor
                0x0000000080811450       0x42 common/built-in.o
 .text.usb_hub_reset_devices
                0x0000000080811492        0x2 common/built-in.o
                0x0000000080811492                usb_hub_reset_devices
 .text.usb_hub_is_root_hub
                0x0000000080811494       0x10 common/built-in.o
                0x0000000080811494                usb_hub_is_root_hub
 .text.usb_get_port_status
                0x00000000808114a4       0x70 common/built-in.o
                0x00000000808114a4                usb_get_port_status
 .text.usb_hub_port_connect_change
                0x0000000080811514      0x1f0 common/built-in.o
                0x0000000080811514                usb_hub_port_connect_change
 .text.usb_hub_configure
                0x0000000080811704      0x61c common/built-in.o
 .text.usb_hub_scan
                0x0000000080811d20        0xe common/built-in.o
                0x0000000080811d20                usb_hub_scan
 *fill*         0x0000000080811d2e        0x2 
 .text.usb_hub_post_probe
                0x0000000080811d30       0x20 common/built-in.o
 .text.usb_stor_irq
                0x0000000080811d50       0x10 common/built-in.o
 .text.usb_stor_BBB_reset
                0x0000000080811d60      0x108 common/built-in.o
 .text.usb_stor_CB_reset
                0x0000000080811e68       0xc0 common/built-in.o
 .text.usb_stor_BBB_clear_endpt_stall.isra.0
                0x0000000080811f28       0x2c common/built-in.o
 .text.usb_stor_BBB_transport
                0x0000000080811f54      0x288 common/built-in.o
 .text.usb_stor_CB_comdat
                0x00000000808121dc      0x2f8 common/built-in.o
 .text.usb_stor_CBI_get_status.isra.2
                0x00000000808124d4       0x9c common/built-in.o
 .text.usb_stor_CB_transport
                0x0000000080812570      0x1cc common/built-in.o
 .text.usb_request_sense.constprop.9
                0x000000008081273c       0x60 common/built-in.o
 .text.usb_stor_write
                0x000000008081279c      0x188 common/built-in.o
 .text.usb_stor_read
                0x0000000080812924      0x188 common/built-in.o
 .text.usb_stor_info
                0x0000000080812aac       0x4c common/built-in.o
                0x0000000080812aac                usb_stor_info
 .text.usb_stor_reset
                0x0000000080812af8        0xc common/built-in.o
                0x0000000080812af8                usb_stor_reset
 .text.usb_stor_scan
                0x0000000080812b04       0x30 common/built-in.o
                0x0000000080812b04                usb_stor_scan
 .text.usb_storage_probe
                0x0000000080812b34      0x18c common/built-in.o
                0x0000000080812b34                usb_storage_probe
 .text.usb_stor_get_info
                0x0000000080812cc0      0x284 common/built-in.o
                0x0000000080812cc0                usb_stor_get_info
 .text.usb_mass_storage_probe
                0x0000000080812f44      0x174 common/built-in.o
 .text.menu_display_statusline
                0x00000000808130b8        0x2 common/built-in.o
                0x00000000808130b8                menu_display_statusline
 .text.menu_default_set
                0x00000000808130ba       0x4a common/built-in.o
                0x00000000808130ba                menu_default_set
 .text.menu_get_choice
                0x0000000080813104      0x11c common/built-in.o
                0x0000000080813104                menu_get_choice
 .text.menu_item_add
                0x0000000080813220       0x8a common/built-in.o
                0x0000000080813220                menu_item_add
 .text.menu_create
                0x00000000808132aa       0x54 common/built-in.o
                0x00000000808132aa                menu_create
 .text.menu_destroy
                0x00000000808132fe       0x44 common/built-in.o
                0x00000000808132fe                menu_destroy
 *fill*         0x0000000080813342        0x2 
 .text.delete_char.part.0
                0x0000000080813344       0x7c common/built-in.o
 .text.cread_add_char
                0x00000000808133c0       0x80 common/built-in.o
 .text.cli_readline_into_buffer
                0x0000000080813440      0x670 common/built-in.o
                0x0000000080813440                cli_readline_into_buffer
 .text.cli_readline
                0x0000000080813ab0       0x10 common/built-in.o
                0x0000000080813ab0                cli_readline
 .text.cli_simple_process_macros
                0x0000000080813ac0      0x112 common/built-in.o
                0x0000000080813ac0                cli_simple_process_macros
 *fill*         0x0000000080813bd2        0x2 
 .text.console_setfile
                0x0000000080813bd4       0x70 common/built-in.o
 .text.fgetc    0x0000000080813c44       0x1c common/built-in.o
                0x0000000080813c44                fgetc
 .text.getc     0x0000000080813c60       0x18 common/built-in.o
                0x0000000080813c60                getc
 .text.ftstc    0x0000000080813c78       0x1c common/built-in.o
                0x0000000080813c78                ftstc
 .text.tstc     0x0000000080813c94       0x18 common/built-in.o
                0x0000000080813c94                tstc
 .text.fputc    0x0000000080813cac       0x18 common/built-in.o
                0x0000000080813cac                fputc
 .text.putc     0x0000000080813cc4       0x1a common/built-in.o
                0x0000000080813cc4                putc
 .text.puts     0x0000000080813cde       0x12 common/built-in.o
                0x0000000080813cde                puts
 .text.fputs    0x0000000080813cf0       0x18 common/built-in.o
                0x0000000080813cf0                fputs
 .text.fprintf  0x0000000080813d08       0x36 common/built-in.o
                0x0000000080813d08                fprintf
 *fill*         0x0000000080813d3e        0x2 
 .text.ctrlc    0x0000000080813d40       0x34 common/built-in.o
                0x0000000080813d40                ctrlc
 .text.confirm_yesno
                0x0000000080813d74       0x88 common/built-in.o
                0x0000000080813d74                confirm_yesno
 .text.disable_ctrlc
                0x0000000080813dfc       0x10 common/built-in.o
                0x0000000080813dfc                disable_ctrlc
 .text.had_ctrlc
                0x0000000080813e0c        0xc common/built-in.o
                0x0000000080813e0c                had_ctrlc
 .text.clear_ctrlc
                0x0000000080813e18        0xc common/built-in.o
                0x0000000080813e18                clear_ctrlc
 .text.search_device
                0x0000000080813e24       0x16 common/built-in.o
                0x0000000080813e24                search_device
 .text.console_assign
                0x0000000080813e3a       0x2a common/built-in.o
                0x0000000080813e3a                console_assign
 .text.on_console
                0x0000000080813e64       0x70 common/built-in.o
 .text.console_init_f
                0x0000000080813ed4        0xa common/built-in.o
                0x0000000080813ed4                console_init_f
 *fill*         0x0000000080813ede        0x2 
 .text.console_init_r
                0x0000000080813ee0       0x84 common/built-in.o
                0x0000000080813ee0                console_init_r
 .text.do_check_chunk
                0x0000000080813f64       0x90 common/built-in.o
 .text.do_check_free_chunk
                0x0000000080813ff4      0x114 common/built-in.o
 .text.do_check_inuse_chunk
                0x0000000080814108       0xc4 common/built-in.o
 .text.do_check_malloced_chunk
                0x00000000808141cc       0xa8 common/built-in.o
 .text.sbrk     0x0000000080814274       0x44 common/built-in.o
                0x0000000080814274                sbrk
 .text.mem_malloc_init
                0x00000000808142b8       0x3c common/built-in.o
                0x00000000808142b8                mem_malloc_init
 .text.malloc_trim
                0x00000000808142f4       0x90 common/built-in.o
                0x00000000808142f4                malloc_trim
 .text.free     0x0000000080814384      0x160 common/built-in.o
                0x0000000080814384                free
 .text.malloc   0x00000000808144e4      0x424 common/built-in.o
                0x00000000808144e4                malloc
 .text.calloc   0x0000000080814908       0xbc common/built-in.o
                0x0000000080814908                calloc
 .text.realloc  0x00000000808149c4      0x2e8 common/built-in.o
                0x00000000808149c4                realloc
 .text.memalign
                0x0000000080814cac      0x13c common/built-in.o
                0x0000000080814cac                memalign
 .text.initf_malloc
                0x0000000080814de8       0x38 common/built-in.o
                0x0000000080814de8                initf_malloc
 .text.malloc_simple
                0x0000000080814e20       0x64 common/built-in.o
                0x0000000080814e20                malloc_simple
 .text.on_loadaddr
                0x0000000080814e84       0x20 common/built-in.o
 .text.image_check_hcrc
                0x0000000080814ea4       0x2a common/built-in.o
                0x0000000080814ea4                image_check_hcrc
 .text.image_check_dcrc
                0x0000000080814ece       0x22 common/built-in.o
                0x0000000080814ece                image_check_dcrc
 .text.image_multi_count
                0x0000000080814ef0       0x12 common/built-in.o
                0x0000000080814ef0                image_multi_count
 .text.image_multi_getimg
                0x0000000080814f02       0x4c common/built-in.o
                0x0000000080814f02                image_multi_getimg
 *fill*         0x0000000080814f4e        0x2 
 .text.env_get_bootm_low
                0x0000000080814f50       0x20 common/built-in.o
                0x0000000080814f50                env_get_bootm_low
 .text.env_get_bootm_size
                0x0000000080814f70       0x44 common/built-in.o
                0x0000000080814f70                env_get_bootm_size
 .text.env_get_bootm_mapsize
                0x0000000080814fb4       0x20 common/built-in.o
                0x0000000080814fb4                env_get_bootm_mapsize
 .text.memmove_wd
                0x0000000080814fd4       0x4a common/built-in.o
                0x0000000080814fd4                memmove_wd
 *fill*         0x000000008081501e        0x2 
 .text.genimg_print_size
                0x0000000080815020       0x24 common/built-in.o
                0x0000000080815020                genimg_print_size
 .text.genimg_print_time
                0x0000000080815044       0x2c common/built-in.o
                0x0000000080815044                genimg_print_time
 .text.get_table_entry
                0x0000000080815070       0x12 common/built-in.o
                0x0000000080815070                get_table_entry
 .text.get_table_entry_name
                0x0000000080815082       0x14 common/built-in.o
                0x0000000080815082                get_table_entry_name
 *fill*         0x0000000080815096        0x2 
 .text.genimg_get_os_name
                0x0000000080815098       0x14 common/built-in.o
                0x0000000080815098                genimg_get_os_name
 .text.genimg_get_arch_name
                0x00000000808150ac       0x14 common/built-in.o
                0x00000000808150ac                genimg_get_arch_name
 .text.genimg_get_type_name
                0x00000000808150c0       0x14 common/built-in.o
                0x00000000808150c0                genimg_get_type_name
 .text.genimg_get_comp_name
                0x00000000808150d4       0x14 common/built-in.o
                0x00000000808150d4                genimg_get_comp_name
 .text.image_print_contents
                0x00000000808150e8      0x11c common/built-in.o
                0x00000000808150e8                image_print_contents
 .text.get_table_entry_id
                0x0000000080815204       0x40 common/built-in.o
                0x0000000080815204                get_table_entry_id
 .text.genimg_get_os_id
                0x0000000080815244       0x14 common/built-in.o
                0x0000000080815244                genimg_get_os_id
 .text.genimg_get_arch_id
                0x0000000080815258       0x14 common/built-in.o
                0x0000000080815258                genimg_get_arch_id
 .text.genimg_get_type_id
                0x000000008081526c       0x14 common/built-in.o
                0x000000008081526c                genimg_get_type_id
 .text.genimg_get_comp_id
                0x0000000080815280       0x14 common/built-in.o
                0x0000000080815280                genimg_get_comp_id
 .text.genimg_get_kernel_addr_fit
                0x0000000080815294       0x6c common/built-in.o
                0x0000000080815294                genimg_get_kernel_addr_fit
 .text.genimg_get_kernel_addr
                0x0000000080815300       0x16 common/built-in.o
                0x0000000080815300                genimg_get_kernel_addr
 *fill*         0x0000000080815316        0x2 
 .text.genimg_get_format
                0x0000000080815318       0x30 common/built-in.o
                0x0000000080815318                genimg_get_format
 .text.genimg_get_image
                0x0000000080815348        0x2 common/built-in.o
                0x0000000080815348                genimg_get_image
 .text.genimg_has_config
                0x000000008081534a        0xa common/built-in.o
                0x000000008081534a                genimg_has_config
 .text.boot_get_ramdisk
                0x0000000080815354      0x2b4 common/built-in.o
                0x0000000080815354                boot_get_ramdisk
 .text.boot_ramdisk_high
                0x0000000080815608       0xf8 common/built-in.o
                0x0000000080815608                boot_ramdisk_high
 .text.boot_get_setup
                0x0000000080815700        0x4 common/built-in.o
                0x0000000080815700                boot_get_setup
 .text.boot_get_loadable
                0x0000000080815704       0xf0 common/built-in.o
                0x0000000080815704                boot_get_loadable
 .text.image_setup_linux
                0x00000000808157f4       0x42 common/built-in.o
                0x00000000808157f4                image_setup_linux
 *fill*         0x0000000080815836        0x2 
 .text.android_image_get_kernel
                0x0000000080815838      0x15c common/built-in.o
                0x0000000080815838                android_image_get_kernel
 .text.android_image_check_header
                0x0000000080815994       0x10 common/built-in.o
                0x0000000080815994                android_image_check_header
 .text.android_image_get_end
                0x00000000808159a4       0x78 common/built-in.o
                0x00000000808159a4                android_image_get_end
 .text.android_image_get_kload
                0x0000000080815a1c       0x44 common/built-in.o
                0x0000000080815a1c                android_image_get_kload
 .text.android_image_get_ramdisk
                0x0000000080815a60       0xa4 common/built-in.o
                0x0000000080815a60                android_image_get_ramdisk
 .text.android_print_contents
                0x0000000080815b04      0x1a8 common/built-in.o
                0x0000000080815b04                android_print_contents
 .text.fdt_error
                0x0000000080815cac       0x24 common/built-in.o
 .text.boot_fdt_add_mem_rsv_regions
                0x0000000080815cd0       0x54 common/built-in.o
                0x0000000080815cd0                boot_fdt_add_mem_rsv_regions
 .text.boot_relocate_fdt
                0x0000000080815d24      0x120 common/built-in.o
                0x0000000080815d24                boot_relocate_fdt
 .text.boot_get_fdt
                0x0000000080815e44      0x2d0 common/built-in.o
                0x0000000080815e44                boot_get_fdt
 .text.ft_verify_fdt
                0x0000000080816114        0x4 common/built-in.o
                0x0000000080816114                ft_verify_fdt
 .text.image_setup_libfdt
                0x0000000080816118       0xb0 common/built-in.o
                0x0000000080816118                image_setup_libfdt
 .text.fit_get_debug
                0x00000000808161c8       0x38 common/built-in.o
 .text.fit_image_get_address
                0x0000000080816200       0x60 common/built-in.o
 .text.fit_parse_conf
                0x0000000080816260       0x3e common/built-in.o
                0x0000000080816260                fit_parse_conf
 .text.fit_parse_subimage
                0x000000008081629e       0x3e common/built-in.o
                0x000000008081629e                fit_parse_subimage
 .text.fit_get_desc
                0x00000000808162dc       0x30 common/built-in.o
                0x00000000808162dc                fit_get_desc
 .text.fit_get_timestamp
                0x000000008081630c       0x4c common/built-in.o
                0x000000008081630c                fit_get_timestamp
 .text.fit_image_get_node
                0x0000000080816358       0x48 common/built-in.o
                0x0000000080816358                fit_image_get_node
 .text.fit_image_get_os
                0x00000000808163a0       0x38 common/built-in.o
                0x00000000808163a0                fit_image_get_os
 .text.fit_image_get_arch
                0x00000000808163d8       0x38 common/built-in.o
                0x00000000808163d8                fit_image_get_arch
 .text.fit_image_get_type
                0x0000000080816410       0x38 common/built-in.o
                0x0000000080816410                fit_image_get_type
 .text.fit_image_get_comp
                0x0000000080816448       0x38 common/built-in.o
                0x0000000080816448                fit_image_get_comp
 .text.fit_image_get_load
                0x0000000080816480        0xc common/built-in.o
                0x0000000080816480                fit_image_get_load
 .text.fit_image_get_entry
                0x000000008081648c        0xc common/built-in.o
                0x000000008081648c                fit_image_get_entry
 .text.fit_image_get_data
                0x0000000080816498       0x40 common/built-in.o
                0x0000000080816498                fit_image_get_data
 .text.fit_image_hash_get_algo
                0x00000000808164d8       0x30 common/built-in.o
                0x00000000808164d8                fit_image_hash_get_algo
 .text.fit_image_hash_get_value
                0x0000000080816508       0x40 common/built-in.o
                0x0000000080816508                fit_image_hash_get_value
 .text.fit_image_print_data
                0x0000000080816548      0x134 common/built-in.o
 .text.fit_image_print
                0x000000008081667c      0x23c common/built-in.o
                0x000000008081667c                fit_image_print
 .text.fit_get_end
                0x00000000808168b8        0x8 common/built-in.o
                0x00000000808168b8                fit_get_end
 .text.calculate_hash
                0x00000000808168c0       0xb0 common/built-in.o
                0x00000000808168c0                calculate_hash
 .text.fit_image_verify
                0x0000000080816970      0x150 common/built-in.o
                0x0000000080816970                fit_image_verify
 .text.fit_all_image_verify
                0x0000000080816ac0       0x8c common/built-in.o
                0x0000000080816ac0                fit_all_image_verify
 .text.fit_image_check_os
                0x0000000080816b4c       0x20 common/built-in.o
                0x0000000080816b4c                fit_image_check_os
 .text.fit_image_check_arch
                0x0000000080816b6c       0x2c common/built-in.o
                0x0000000080816b6c                fit_image_check_arch
 .text.fit_image_check_type
                0x0000000080816b98       0x20 common/built-in.o
                0x0000000080816b98                fit_image_check_type
 .text.fit_image_check_comp
                0x0000000080816bb8       0x20 common/built-in.o
                0x0000000080816bb8                fit_image_check_comp
 .text.fit_check_format
                0x0000000080816bd8       0x58 common/built-in.o
                0x0000000080816bd8                fit_check_format
 .text.fit_conf_get_node
                0x0000000080816c30       0x88 common/built-in.o
                0x0000000080816c30                fit_conf_get_node
 .text.fit_conf_get_prop_node
                0x0000000080816cb8       0x1c common/built-in.o
                0x0000000080816cb8                fit_conf_get_prop_node
 .text.fit_conf_print
                0x0000000080816cd4      0x10c common/built-in.o
                0x0000000080816cd4                fit_conf_print
 .text.fit_print_contents
                0x0000000080816de0      0x170 common/built-in.o
                0x0000000080816de0                fit_print_contents
 .text.fit_get_node_from_config
                0x0000000080816f50       0x54 common/built-in.o
                0x0000000080816f50                fit_get_node_from_config
 .text.fit_image_load
                0x0000000080816fa4      0x394 common/built-in.o
                0x0000000080816fa4                fit_image_load
 .text.boot_get_setup_fit
                0x0000000080817338       0x40 common/built-in.o
                0x0000000080817338                boot_get_setup_fit
 .text.get_ram_size
                0x0000000080817378       0x96 common/built-in.o
                0x0000000080817378                get_ram_size
 .text.get_effective_memsize
                0x000000008081740e        0x6 common/built-in.o
                0x000000008081740e                get_effective_memsize
 .text.stdio_serial_tstc
                0x0000000080817414        0x4 common/built-in.o
 .text.stdio_serial_getc
                0x0000000080817418        0x4 common/built-in.o
 .text.stdio_serial_puts
                0x000000008081741c        0x6 common/built-in.o
 .text.stdio_serial_putc
                0x0000000080817422        0x6 common/built-in.o
 .text.stdio_get_list
                0x0000000080817428        0x8 common/built-in.o
                0x0000000080817428                stdio_get_list
 .text.stdio_get_by_name
                0x0000000080817430       0x34 common/built-in.o
                0x0000000080817430                stdio_get_by_name
 .text.stdio_clone
                0x0000000080817464       0x22 common/built-in.o
                0x0000000080817464                stdio_clone
 *fill*         0x0000000080817486        0x2 
 .text.stdio_register_dev
                0x0000000080817488       0x30 common/built-in.o
                0x0000000080817488                stdio_register_dev
 .text.stdio_register
                0x00000000808174b8        0x6 common/built-in.o
                0x00000000808174b8                stdio_register
 *fill*         0x00000000808174be        0x2 
 .text.stdio_init_tables
                0x00000000808174c0       0x14 common/built-in.o
                0x00000000808174c0                stdio_init_tables
 .text.stdio_add_devices
                0x00000000808174d4       0x50 common/built-in.o
                0x00000000808174d4                stdio_add_devices
 .text.run_command
                0x0000000080817524        0xe common/built-in.o
                0x0000000080817524                run_command
 .text.run_command_list
                0x0000000080817532       0x46 common/built-in.o
                0x0000000080817532                run_command_list
 .text.do_run   0x0000000080817578       0x4c common/built-in.o
                0x0000000080817578                do_run
 .text.cli_process_fdt
                0x00000000808175c4       0x30 common/built-in.o
                0x00000000808175c4                cli_process_fdt
 .text.cli_secure_boot_cmd
                0x00000000808175f4       0x4c common/built-in.o
                0x00000000808175f4                cli_secure_boot_cmd
 .text.cli_loop
                0x0000000080817640        0x8 common/built-in.o
                0x0000000080817640                cli_loop
 .text.cli_init
                0x0000000080817648        0x4 common/built-in.o
                0x0000000080817648                cli_init
 .text.run_usb_dnl_gadget
                0x000000008081764c       0xe0 common/built-in.o
                0x000000008081764c                run_usb_dnl_gadget
 .text.find_cmd_tbl
                0x000000008081772c       0x62 common/built-in.o
                0x000000008081772c                find_cmd_tbl
 *fill*         0x000000008081778e        0x2 
 .text.find_cmd
                0x0000000080817790       0x1c common/built-in.o
                0x0000000080817790                find_cmd
 .text.cmd_usage
                0x00000000808177ac       0x3c common/built-in.o
                0x00000000808177ac                cmd_usage
 .text._do_help
                0x00000000808177e8      0x10c common/built-in.o
                0x00000000808177e8                _do_help
 .text.var_complete
                0x00000000808178f4       0x40 common/built-in.o
                0x00000000808178f4                var_complete
 .text.cmd_auto_complete
                0x0000000080817934      0x304 common/built-in.o
                0x0000000080817934                cmd_auto_complete
 .text.cmd_get_data_size
                0x0000000080817c38       0x38 common/built-in.o
                0x0000000080817c38                cmd_get_data_size
 .text.cmd_process
                0x0000000080817c70       0xa4 common/built-in.o
                0x0000000080817c70                cmd_process
 .text.cmd_process_error
                0x0000000080817d14       0x1c common/built-in.o
                0x0000000080817d14                cmd_process_error
 .text.hex1_bin
                0x0000000080817d30       0x2a common/built-in.o
 .text.hex2_bin
                0x0000000080817d5a       0x24 common/built-in.o
 .text.srec_decode
                0x0000000080817d7e      0x170 common/built-in.o
                0x0000000080817d7e                srec_decode
 *fill*         0x0000000080817eee        0x2 
 .text.zm_save  0x0000000080817ef0       0x10 common/built-in.o
 .text.zm_dprintf
                0x0000000080817f00       0x28 common/built-in.o
 .text.zm_dump  0x0000000080817f28        0xc common/built-in.o
 .text.CYGACC_COMM_IF_GETC_TIMEOUT.isra.1
                0x0000000080817f34       0x2e common/built-in.o
 .text.xyzModem_flush
                0x0000000080817f62       0x14 common/built-in.o
 *fill*         0x0000000080817f76        0x2 
 .text.xyzModem_get_hdr
                0x0000000080817f78      0x224 common/built-in.o
 .text.xyzModem_stream_open
                0x000000008081819c      0x1a0 common/built-in.o
                0x000000008081819c                xyzModem_stream_open
 .text.xyzModem_stream_read
                0x000000008081833c      0x208 common/built-in.o
                0x000000008081833c                xyzModem_stream_read
 .text.xyzModem_stream_close
                0x0000000080818544       0x50 common/built-in.o
                0x0000000080818544                xyzModem_stream_close
 .text.xyzModem_stream_terminate
                0x0000000080818594       0x9c common/built-in.o
                0x0000000080818594                xyzModem_stream_terminate
 .text.xyzModem_error
                0x0000000080818630       0x18 common/built-in.o
                0x0000000080818630                xyzModem_error
 .text.get_dev_hwpart
                0x0000000080818648       0x44 disk/built-in.o
 .text.blk_get_dev
                0x000000008081868c        0x6 disk/built-in.o
                0x000000008081868c                blk_get_dev
 *fill*         0x0000000080818692        0x2 
 .text.dev_print
                0x0000000080818694      0x154 disk/built-in.o
                0x0000000080818694                dev_print
 .text.part_init
                0x00000000808187e8       0x4c disk/built-in.o
                0x00000000808187e8                part_init
 .text.part_print
                0x0000000080818834       0xc8 disk/built-in.o
                0x0000000080818834                part_print
 .text.part_get_info
                0x00000000808188fc       0x58 disk/built-in.o
                0x00000000808188fc                part_get_info
 .text.blk_get_device_by_str
                0x0000000080818954       0xb8 disk/built-in.o
                0x0000000080818954                blk_get_device_by_str
 .text.blk_get_device_part_str
                0x0000000080818a0c      0x260 disk/built-in.o
                0x0000000080818a0c                blk_get_device_part_str
 .text.part_set_generic_name
                0x0000000080818c6c       0x34 disk/built-in.o
                0x0000000080818c6c                part_set_generic_name
 .text.test_block_type
                0x0000000080818ca0       0x58 disk/built-in.o
 .text.print_partition_extended
                0x0000000080818cf8      0x198 disk/built-in.o
 .text.part_print_dos
                0x0000000080818e90       0x20 disk/built-in.o
                0x0000000080818e90                part_print_dos
 .text.part_test_dos
                0x0000000080818eb0       0x40 disk/built-in.o
 .text.part_get_info_extended
                0x0000000080818ef0      0x1e8 disk/built-in.o
 .text.part_get_info_dos
                0x00000000808190d8       0x18 disk/built-in.o
                0x00000000808190d8                part_get_info_dos
 .text.iso_dread
                0x00000000808190f0       0x22 disk/built-in.o
                0x00000000808190f0                iso_dread
 *fill*         0x0000000080819112        0x2 
 .text.part_get_info_iso_verb
                0x0000000080819114      0x258 disk/built-in.o
                0x0000000080819114                part_get_info_iso_verb
 .text.part_test_iso
                0x000000008081936c       0x14 disk/built-in.o
 .text.part_print_iso
                0x0000000080819380       0x5c disk/built-in.o
 .text.part_get_info_iso
                0x00000000808193dc        0x6 disk/built-in.o
 *fill*         0x00000000808193e2        0x2 
 .text.print_efiname
                0x00000000808193e4       0x34 disk/built-in.o
 .text.part_test_efi
                0x0000000080819418       0x82 disk/built-in.o
 *fill*         0x000000008081949a        0x2 
 .text.set_protective_mbr
                0x000000008081949c       0xa8 disk/built-in.o
 .text.validate_gpt_entries
                0x0000000080819544       0x80 disk/built-in.o
 *fill*         0x00000000808195c4        0x4 
 .text.validate_gpt_header
                0x00000000808195c8      0x1d0 disk/built-in.o
 .text.is_gpt_valid
                0x0000000080819798      0x154 disk/built-in.o
 .text.is_pte_valid
                0x00000000808198ec       0x4c disk/built-in.o
 .text.part_print_efi
                0x0000000080819938      0x200 disk/built-in.o
                0x0000000080819938                part_print_efi
 .text.part_get_info_efi
                0x0000000080819b38      0x19c disk/built-in.o
                0x0000000080819b38                part_get_info_efi
 .text.get_disk_guid
                0x0000000080819cd4       0xa4 disk/built-in.o
                0x0000000080819cd4                get_disk_guid
 .text.write_gpt_table
                0x0000000080819d78      0x2f0 disk/built-in.o
                0x0000000080819d78                write_gpt_table
 .text.gpt_fill_pte
                0x000000008081a068      0x2b8 disk/built-in.o
                0x000000008081a068                gpt_fill_pte
 .text.gpt_fill_header
                0x000000008081a320      0x1b8 disk/built-in.o
                0x000000008081a320                gpt_fill_header
 .text.gpt_restore
                0x000000008081a4d8       0xa8 disk/built-in.o
                0x000000008081a4d8                gpt_restore
 .text.gpt_verify_headers
                0x000000008081a580       0x50 disk/built-in.o
                0x000000008081a580                gpt_verify_headers
 .text.gpt_verify_partitions
                0x000000008081a5d0      0x28c disk/built-in.o
                0x000000008081a5d0                gpt_verify_partitions
 .text.device_bind_common.isra.4
                0x000000008081a85c      0x210 drivers/built-in.o
 .text.alloc_priv
                0x000000008081aa6c       0x36 drivers/built-in.o
 .text.device_bind_with_driver_data
                0x000000008081aaa2       0x18 drivers/built-in.o
                0x000000008081aaa2                device_bind_with_driver_data
 .text.device_bind
                0x000000008081aaba       0x16 drivers/built-in.o
                0x000000008081aaba                device_bind
 .text.device_bind_by_name
                0x000000008081aad0       0x44 drivers/built-in.o
                0x000000008081aad0                device_bind_by_name
 .text.device_probe
                0x000000008081ab14      0x14c drivers/built-in.o
                0x000000008081ab14                device_probe
 .text.dev_get_platdata
                0x000000008081ac60       0x20 drivers/built-in.o
                0x000000008081ac60                dev_get_platdata
 .text.dev_get_parent_platdata
                0x000000008081ac80       0x20 drivers/built-in.o
                0x000000008081ac80                dev_get_parent_platdata
 .text.dev_get_uclass_platdata
                0x000000008081aca0       0x20 drivers/built-in.o
                0x000000008081aca0                dev_get_uclass_platdata
 .text.dev_get_priv
                0x000000008081acc0       0x20 drivers/built-in.o
                0x000000008081acc0                dev_get_priv
 .text.dev_get_uclass_priv
                0x000000008081ace0       0x20 drivers/built-in.o
                0x000000008081ace0                dev_get_uclass_priv
 .text.dev_get_parent_priv
                0x000000008081ad00       0x20 drivers/built-in.o
                0x000000008081ad00                dev_get_parent_priv
 .text.device_find_first_child
                0x000000008081ad20       0x14 drivers/built-in.o
                0x000000008081ad20                device_find_first_child
 .text.device_find_next_child
                0x000000008081ad34       0x16 drivers/built-in.o
                0x000000008081ad34                device_find_next_child
 .text.dev_get_parent
                0x000000008081ad4a        0x4 drivers/built-in.o
                0x000000008081ad4a                dev_get_parent
 .text.dev_get_driver_data
                0x000000008081ad4e        0x4 drivers/built-in.o
                0x000000008081ad4e                dev_get_driver_data
 .text.device_get_uclass_id
                0x000000008081ad52        0x8 drivers/built-in.o
                0x000000008081ad52                device_get_uclass_id
 .text.device_has_active_children
                0x000000008081ad5a       0x22 drivers/built-in.o
                0x000000008081ad5a                device_has_active_children
 .text.device_is_last_sibling
                0x000000008081ad7c       0x14 drivers/built-in.o
                0x000000008081ad7c                device_is_last_sibling
 .text.device_is_compatible
                0x000000008081ad90       0x1a drivers/built-in.o
                0x000000008081ad90                device_is_compatible
 .text.of_machine_is_compatible
                0x000000008081adaa       0x18 drivers/built-in.o
                0x000000008081adaa                of_machine_is_compatible
 *fill*         0x000000008081adc2        0x2 
 .text.devfdt_get_addr_index
                0x000000008081adc4       0x88 drivers/built-in.o
                0x000000008081adc4                devfdt_get_addr_index
 .text.devfdt_get_addr
                0x000000008081ae4c        0x6 drivers/built-in.o
                0x000000008081ae4c                devfdt_get_addr
 *fill*         0x000000008081ae52        0x2 
 .text.lists_driver_lookup_name
                0x000000008081ae54       0x34 drivers/built-in.o
                0x000000008081ae54                lists_driver_lookup_name
 .text.lists_uclass_lookup
                0x000000008081ae88       0x2c drivers/built-in.o
                0x000000008081ae88                lists_uclass_lookup
 .text.lists_bind_drivers
                0x000000008081aeb4       0x60 drivers/built-in.o
                0x000000008081aeb4                lists_bind_drivers
 .text.device_bind_driver_to_node
                0x000000008081af14       0x3c drivers/built-in.o
                0x000000008081af14                device_bind_driver_to_node
 .text.device_bind_driver
                0x000000008081af50       0x12 drivers/built-in.o
                0x000000008081af50                device_bind_driver
 *fill*         0x000000008081af62        0x2 
 .text.lists_bind_fdt
                0x000000008081af64      0x15c drivers/built-in.o
                0x000000008081af64                lists_bind_fdt
 .text.dm_scan_fdt_node
                0x000000008081b0c0       0x8c drivers/built-in.o
 .text.dm_root  0x000000008081b14c       0x1c drivers/built-in.o
                0x000000008081b14c                dm_root
 .text.dm_get_translation_offset
                0x000000008081b168        0xe drivers/built-in.o
                0x000000008081b168                dm_get_translation_offset
 *fill*         0x000000008081b176        0x2 
 .text.dm_init  0x000000008081b178       0x44 drivers/built-in.o
                0x000000008081b178                dm_init
 .text.dm_remove_devices_flags
                0x000000008081b1bc       0x12 drivers/built-in.o
                0x000000008081b1bc                dm_remove_devices_flags
 *fill*         0x000000008081b1ce        0x2 
 .text.dm_scan_platdata
                0x000000008081b1d0       0x20 drivers/built-in.o
                0x000000008081b1d0                dm_scan_platdata
 .text.dm_scan_fdt_dev
                0x000000008081b1f0       0x1c drivers/built-in.o
                0x000000008081b1f0                dm_scan_fdt_dev
 .text.dm_scan_fdt
                0x000000008081b20c       0x10 drivers/built-in.o
                0x000000008081b20c                dm_scan_fdt
 .text.dm_scan_other
                0x000000008081b21c        0x4 drivers/built-in.o
                0x000000008081b21c                dm_scan_other
 .text.dm_init_and_scan
                0x000000008081b220       0x50 drivers/built-in.o
                0x000000008081b220                dm_init_and_scan
 .text.uclass_get_device_tail.part.3
                0x000000008081b270       0x30 drivers/built-in.o
 .text.uclass_find
                0x000000008081b2a0       0x2c drivers/built-in.o
                0x000000008081b2a0                uclass_find
 .text.uclass_get
                0x000000008081b2cc       0xb4 drivers/built-in.o
                0x000000008081b2cc                uclass_get
 .text.uclass_find_device
                0x000000008081b380       0x40 drivers/built-in.o
                0x000000008081b380                uclass_find_device
 .text.uclass_find_first_device
                0x000000008081b3c0       0x22 drivers/built-in.o
                0x000000008081b3c0                uclass_find_first_device
 .text.uclass_find_next_device
                0x000000008081b3e2       0x18 drivers/built-in.o
                0x000000008081b3e2                uclass_find_next_device
 *fill*         0x000000008081b3fa        0x2 
 .text.uclass_find_device_by_seq
                0x000000008081b3fc       0x84 drivers/built-in.o
                0x000000008081b3fc                uclass_find_device_by_seq
 .text.uclass_find_device_by_of_offset
                0x000000008081b480       0x42 drivers/built-in.o
                0x000000008081b480                uclass_find_device_by_of_offset
 .text.uclass_find_device_by_ofnode
                0x000000008081b4c2       0x42 drivers/built-in.o
                0x000000008081b4c2                uclass_find_device_by_ofnode
 .text.uclass_get_device_tail
                0x000000008081b504        0xc drivers/built-in.o
                0x000000008081b504                uclass_get_device_tail
 .text.uclass_get_device
                0x000000008081b510       0x1c drivers/built-in.o
                0x000000008081b510                uclass_get_device
 .text.uclass_get_device_by_seq
                0x000000008081b52c       0x34 drivers/built-in.o
                0x000000008081b52c                uclass_get_device_by_seq
 .text.uclass_get_device_by_of_offset
                0x000000008081b560       0x1c drivers/built-in.o
                0x000000008081b560                uclass_get_device_by_of_offset
 .text.uclass_get_device_by_ofnode
                0x000000008081b57c       0x1c drivers/built-in.o
                0x000000008081b57c                uclass_get_device_by_ofnode
 .text.uclass_first_device
                0x000000008081b598       0x1e drivers/built-in.o
                0x000000008081b598                uclass_first_device
 .text.uclass_first_device_err
                0x000000008081b5b6       0x18 drivers/built-in.o
                0x000000008081b5b6                uclass_first_device_err
 .text.uclass_next_device
                0x000000008081b5ce       0x24 drivers/built-in.o
                0x000000008081b5ce                uclass_next_device
 .text.uclass_bind_device
                0x000000008081b5f2       0x3a drivers/built-in.o
                0x000000008081b5f2                uclass_bind_device
 .text.uclass_unbind_device
                0x000000008081b62c       0x24 drivers/built-in.o
                0x000000008081b62c                uclass_unbind_device
 .text.uclass_resolve_seq
                0x000000008081b650       0x84 drivers/built-in.o
                0x000000008081b650                uclass_resolve_seq
 .text.uclass_pre_probe_device
                0x000000008081b6d4       0x2c drivers/built-in.o
                0x000000008081b6d4                uclass_pre_probe_device
 .text.uclass_post_probe_device
                0x000000008081b700       0x12 drivers/built-in.o
                0x000000008081b700                uclass_post_probe_device
 .text.uclass_pre_remove_device
                0x000000008081b712       0x12 drivers/built-in.o
                0x000000008081b712                uclass_pre_remove_device
 .text.dm_warn  0x000000008081b724       0x1a drivers/built-in.o
                0x000000008081b724                dm_warn
 .text.dm_dbg   0x000000008081b73e       0x1a drivers/built-in.o
                0x000000008081b73e                dm_dbg
 .text.dm_fdt_pre_reloc
                0x000000008081b758       0x44 drivers/built-in.o
                0x000000008081b758                dm_fdt_pre_reloc
 .text.device_unbind
                0x000000008081b79c       0xd4 drivers/built-in.o
                0x000000008081b79c                device_unbind
 .text.device_free
                0x000000008081b870       0x44 drivers/built-in.o
                0x000000008081b870                device_free
 .text.device_remove
                0x000000008081b8b4      0x108 drivers/built-in.o
                0x000000008081b8b4                device_remove
 .text.simple_bus_post_bind
                0x000000008081b9bc       0x34 drivers/built-in.o
 .text.show_devices
                0x000000008081b9f0       0xa8 drivers/built-in.o
 .text.dm_dump_all
                0x000000008081ba98       0x30 drivers/built-in.o
                0x000000008081ba98                dm_dump_all
 .text.dm_dump_uclass
                0x000000008081bac8       0x8c drivers/built-in.o
                0x000000008081bac8                dm_dump_uclass
 .text.ofnode_read_u32
                0x000000008081bb54       0x70 drivers/built-in.o
                0x000000008081bb54                ofnode_read_u32
 .text.ofnode_read_u32_default
                0x000000008081bbc4       0x34 drivers/built-in.o
                0x000000008081bbc4                ofnode_read_u32_default
 .text.ofnode_read_u32_array
                0x000000008081bbf8       0x48 drivers/built-in.o
                0x000000008081bbf8                ofnode_read_u32_array
 .text.ofnode_get_name
                0x000000008081bc40       0x30 drivers/built-in.o
                0x000000008081bc40                ofnode_get_name
 .text.ofnode_parse_phandle_with_args
                0x000000008081bc70       0x42 drivers/built-in.o
                0x000000008081bc70                ofnode_parse_phandle_with_args
 .text.ofnode_get_property
                0x000000008081bcb2       0x18 drivers/built-in.o
                0x000000008081bcb2                ofnode_get_property
 .text.timer_post_probe
                0x000000008081bcca       0x14 drivers/built-in.o
 *fill*         0x000000008081bcde        0x2 
 .text.timer_pre_probe
                0x000000008081bce0       0x24 drivers/built-in.o
 .text.timer_get_count
                0x000000008081bd04       0x14 drivers/built-in.o
                0x000000008081bd04                timer_get_count
 .text.timer_get_rate
                0x000000008081bd18        0x6 drivers/built-in.o
                0x000000008081bd18                timer_get_rate
 *fill*         0x000000008081bd1e        0x2 
 .text.dm_timer_init
                0x000000008081bd20       0x68 drivers/built-in.o
                0x000000008081bd20                dm_timer_init
 .text.omap_timer_get_count
                0x000000008081bd88       0x1a drivers/built-in.o
 .text.omap_timer_ofdata_to_platdata
                0x000000008081bda2       0x16 drivers/built-in.o
 .text.omap_timer_probe
                0x000000008081bdb8       0x30 drivers/built-in.o
 .text.get_desc
                0x000000008081bde8       0x36 drivers/built-in.o
 *fill*         0x000000008081be1e        0x2 
 .text.blk_driver_lookup_type
                0x000000008081be20       0x2c drivers/built-in.o
                0x000000008081be20                blk_driver_lookup_type
 .text.blk_get_if_type_name
                0x000000008081be4c        0xc drivers/built-in.o
                0x000000008081be4c                blk_get_if_type_name
 .text.blk_list_part
                0x000000008081be58       0x52 drivers/built-in.o
                0x000000008081be58                blk_list_part
 .text.blk_print_part_devnum
                0x000000008081beaa       0x36 drivers/built-in.o
                0x000000008081beaa                blk_print_part_devnum
 .text.blk_list_devices
                0x000000008081bee0       0x40 drivers/built-in.o
                0x000000008081bee0                blk_list_devices
 .text.blk_print_device_num
                0x000000008081bf20       0x3c drivers/built-in.o
                0x000000008081bf20                blk_print_device_num
 .text.blk_show_device
                0x000000008081bf5c       0x58 drivers/built-in.o
                0x000000008081bf5c                blk_show_device
 .text.blk_get_devnum_by_type
                0x000000008081bfb4       0x20 drivers/built-in.o
                0x000000008081bfb4                blk_get_devnum_by_type
 .text.blk_dselect_hwpart
                0x000000008081bfd4       0x24 drivers/built-in.o
                0x000000008081bfd4                blk_dselect_hwpart
 .text.blk_get_devnum_by_typename
                0x000000008081bff8       0x48 drivers/built-in.o
                0x000000008081bff8                blk_get_devnum_by_typename
 .text.blk_read_devnum
                0x000000008081c040       0x48 drivers/built-in.o
                0x000000008081c040                blk_read_devnum
 .text.blk_write_devnum
                0x000000008081c088       0x2e drivers/built-in.o
                0x000000008081c088                blk_write_devnum
 .text.blk_select_hwpart_devnum
                0x000000008081c0b6       0x2a drivers/built-in.o
                0x000000008081c0b6                blk_select_hwpart_devnum
 .text.bootcount_store
                0x000000008081c0e0       0x44 drivers/built-in.o
                0x000000008081c0f4                bootcount_store
 .text.bootcount_load
                0x000000008081c124       0x44 drivers/built-in.o
                0x000000008081c148                bootcount_load
 .text.mod_exp_sw
                0x000000008081c168       0x28 drivers/built-in.o
                0x000000008081c168                mod_exp_sw
 .text.mmc_send_ext_csd
                0x000000008081c190       0x2e drivers/built-in.o
 *fill*         0x000000008081c1be        0x2 
 .text.mmc_send_op_cond_iter
                0x000000008081c1c0       0x44 drivers/built-in.o
 .text.mmc_go_idle
                0x000000008081c204       0x32 drivers/built-in.o
 .text.mmc_set_capacity
                0x000000008081c236       0x74 drivers/built-in.o
 *fill*         0x000000008081c2aa        0x2 
 .text.mmc_send_status
                0x000000008081c2ac       0x84 drivers/built-in.o
                0x000000008081c2ac                mmc_send_status
 .text.mmc_set_blocklen
                0x000000008081c330       0x26 drivers/built-in.o
                0x000000008081c330                mmc_set_blocklen
 *fill*         0x000000008081c356        0x2 
 .text.mmc_bread
                0x000000008081c358       0xf0 drivers/built-in.o
                0x000000008081c358                mmc_bread
 .text.mmc_switch
                0x000000008081c448       0x3e drivers/built-in.o
                0x000000008081c448                mmc_switch
 .text.mmc_switch_part
                0x000000008081c486       0x40 drivers/built-in.o
                0x000000008081c486                mmc_switch_part
 *fill*         0x000000008081c4c6        0x2 
 .text.mmc_hwpart_config
                0x000000008081c4c8      0x2e0 drivers/built-in.o
                0x000000008081c4c8                mmc_hwpart_config
 .text.mmc_set_clock
                0x000000008081c7a8       0x1e drivers/built-in.o
                0x000000008081c7a8                mmc_set_clock
 *fill*         0x000000008081c7c6        0x2 
 .text.mmc_startup
                0x000000008081c7c8      0x99c drivers/built-in.o
 .text.mmc_start_init
                0x000000008081d164      0x164 drivers/built-in.o
                0x000000008081d164                mmc_start_init
 .text.mmc_init
                0x000000008081d2c8       0xcc drivers/built-in.o
                0x000000008081d2c8                mmc_init
 .text.mmc_set_dsr
                0x000000008081d394        0x6 drivers/built-in.o
                0x000000008081d394                mmc_set_dsr
 *fill*         0x000000008081d39a        0x2 
 .text.mmc_initialize
                0x000000008081d39c       0x7c drivers/built-in.o
                0x000000008081d39c                mmc_initialize
 .text.dm_mmc_set_ios
                0x000000008081d418       0x14 drivers/built-in.o
                0x000000008081d418                dm_mmc_set_ios
 .text.mmc_set_ios
                0x000000008081d42c        0x8 drivers/built-in.o
                0x000000008081d42c                mmc_set_ios
 .text.dm_mmc_get_wp
                0x000000008081d434       0x14 drivers/built-in.o
                0x000000008081d434                dm_mmc_get_wp
 .text.mmc_getwp
                0x000000008081d448        0x8 drivers/built-in.o
                0x000000008081d448                mmc_getwp
 .text.dm_mmc_get_cd
                0x000000008081d450       0x14 drivers/built-in.o
                0x000000008081d450                dm_mmc_get_cd
 .text.mmc_getcd
                0x000000008081d464        0x8 drivers/built-in.o
                0x000000008081d464                mmc_getcd
 .text.mmc_get_mmc_dev
                0x000000008081d46c       0x16 drivers/built-in.o
                0x000000008081d46c                mmc_get_mmc_dev
 .text.dm_mmc_send_cmd
                0x000000008081d482       0x24 drivers/built-in.o
                0x000000008081d482                dm_mmc_send_cmd
 .text.mmc_send_cmd
                0x000000008081d4a6        0x8 drivers/built-in.o
                0x000000008081d4a6                mmc_send_cmd
 *fill*         0x000000008081d4ae        0x2 
 .text.find_mmc_device
                0x000000008081d4b0       0x30 drivers/built-in.o
                0x000000008081d4b0                find_mmc_device
 .text.mmc_select_hwpartp
                0x000000008081d4e0       0x36 drivers/built-in.o
 .text.mmc_get_dev
                0x000000008081d516       0x1e drivers/built-in.o
 .text.mmc_get_next_devnum
                0x000000008081d534       0x10 drivers/built-in.o
                0x000000008081d534                mmc_get_next_devnum
 .text.mmc_get_blk_desc
                0x000000008081d544        0x4 drivers/built-in.o
                0x000000008081d544                mmc_get_blk_desc
 .text.get_mmc_num
                0x000000008081d548        0xc drivers/built-in.o
                0x000000008081d548                get_mmc_num
 .text.mmc_do_preinit
                0x000000008081d554       0x24 drivers/built-in.o
                0x000000008081d554                mmc_do_preinit
 .text.mmc_list_init
                0x000000008081d578       0x18 drivers/built-in.o
                0x000000008081d578                mmc_list_init
 .text.mmc_list_add
                0x000000008081d590       0x14 drivers/built-in.o
                0x000000008081d590                mmc_list_add
 .text.print_mmc_devices
                0x000000008081d5a4       0x7c drivers/built-in.o
                0x000000008081d5a4                print_mmc_devices
 .text.mmc_create
                0x000000008081d620       0x78 drivers/built-in.o
                0x000000008081d620                mmc_create
 .text.mmc_berase
                0x000000008081d698      0x120 drivers/built-in.o
                0x000000008081d698                mmc_berase
 .text.mmc_bwrite
                0x000000008081d7b8      0x104 drivers/built-in.o
                0x000000008081d7b8                mmc_bwrite
 .text.mmc_reset_controller_fsm
                0x000000008081d8bc       0x84 drivers/built-in.o
 .text.omap_hsmmc_getwp
                0x000000008081d940       0x12 drivers/built-in.o
 .text.omap_hsmmc_getcd
                0x000000008081d952       0x24 drivers/built-in.o
 *fill*         0x000000008081d976        0x2 
 .text.omap_hsmmc_set_ios
                0x000000008081d978      0x124 drivers/built-in.o
 .text.omap_hsmmc_send_cmd
                0x000000008081da9c      0x344 drivers/built-in.o
 .text.omap_hsmmc_ofdata_to_platdata
                0x000000008081dde0       0xc0 drivers/built-in.o
 .text.mmc_init_stream
                0x000000008081dea0       0xa0 drivers/built-in.o
                0x000000008081dea0                mmc_init_stream
 .text.omap_hsmmc_probe
                0x000000008081df40      0x1dc drivers/built-in.o
 .text.dfu_write_buffer_drain
                0x000000008081e11c       0x80 drivers/built-in.o
 .text.dfu_usb_get_reset
                0x000000008081e19c        0x4 drivers/built-in.o
                0x000000008081e19c                dfu_usb_get_reset
 .text.dfu_free_buf
                0x000000008081e1a0       0x14 drivers/built-in.o
                0x000000008081e1a0                dfu_free_buf
 .text.dfu_get_buf_size
                0x000000008081e1b4        0xc drivers/built-in.o
                0x000000008081e1b4                dfu_get_buf_size
 .text.dfu_get_buf
                0x000000008081e1c0       0x6c drivers/built-in.o
                0x000000008081e1c0                dfu_get_buf
 .text.dfu_transaction_cleanup
                0x000000008081e22c       0x3e drivers/built-in.o
                0x000000008081e22c                dfu_transaction_cleanup
 *fill*         0x000000008081e26a        0x2 
 .text.dfu_transaction_initiate
                0x000000008081e26c       0x6c drivers/built-in.o
                0x000000008081e26c                dfu_transaction_initiate
 .text.dfu_flush
                0x000000008081e2d8       0x38 drivers/built-in.o
                0x000000008081e2d8                dfu_flush
 .text.dfu_write
                0x000000008081e310      0x100 drivers/built-in.o
                0x000000008081e310                dfu_write
 .text.dfu_read
                0x000000008081e410      0x190 drivers/built-in.o
                0x000000008081e410                dfu_read
 .text.dfu_free_entities
                0x000000008081e5a0       0x58 drivers/built-in.o
                0x000000008081e5a0                dfu_free_entities
 .text.dfu_config_entities
                0x000000008081e5f8      0x1ec drivers/built-in.o
                0x000000008081e5f8                dfu_config_entities
 .text.dfu_init_env_entities
                0x000000008081e7e4       0x60 drivers/built-in.o
                0x000000008081e7e4                dfu_init_env_entities
 .text.dfu_get_dev_type
                0x000000008081e844       0x28 drivers/built-in.o
                0x000000008081e844                dfu_get_dev_type
 .text.dfu_get_layout
                0x000000008081e86c       0x28 drivers/built-in.o
                0x000000008081e86c                dfu_get_layout
 .text.dfu_show_entities
                0x000000008081e894       0x4c drivers/built-in.o
                0x000000008081e894                dfu_show_entities
 .text.dfu_get_alt_number
                0x000000008081e8e0        0xc drivers/built-in.o
                0x000000008081e8e0                dfu_get_alt_number
 .text.dfu_get_entity
                0x000000008081e8ec       0x24 drivers/built-in.o
                0x000000008081e8ec                dfu_get_entity
 .text.mmc_block_op
                0x000000008081e910      0x178 drivers/built-in.o
 .text.mmc_file_op
                0x000000008081ea88      0x124 drivers/built-in.o
 .text.dfu_free_entity_mmc
                0x000000008081ebac       0x18 drivers/built-in.o
                0x000000008081ebac                dfu_free_entity_mmc
 .text.dfu_write_medium_mmc
                0x000000008081ebc4       0x9c drivers/built-in.o
                0x000000008081ebc4                dfu_write_medium_mmc
 .text.dfu_flush_medium_mmc
                0x000000008081ec60       0x30 drivers/built-in.o
                0x000000008081ec60                dfu_flush_medium_mmc
 .text.dfu_get_medium_size_mmc
                0x000000008081ec90       0x78 drivers/built-in.o
                0x000000008081ec90                dfu_get_medium_size_mmc
 .text.dfu_read_medium_mmc
                0x000000008081ed08       0xa4 drivers/built-in.o
                0x000000008081ed08                dfu_read_medium_mmc
 .text.dfu_fill_entity_mmc
                0x000000008081edac      0x204 drivers/built-in.o
                0x000000008081edac                dfu_fill_entity_mmc
 .text.dfu_get_medium_size_nand
                0x000000008081efb0        0xc drivers/built-in.o
                0x000000008081efb0                dfu_get_medium_size_nand
 .text.dfu_polltimeout_nand
                0x000000008081efbc        0x4 drivers/built-in.o
                0x000000008081efbc                dfu_polltimeout_nand
 .text.dfu_flush_medium_nand
                0x000000008081efc0       0xb0 drivers/built-in.o
 .text.nand_block_op
                0x000000008081f070      0x128 drivers/built-in.o
 .text.dfu_write_medium_nand
                0x000000008081f198       0x30 drivers/built-in.o
 .text.dfu_read_medium_nand
                0x000000008081f1c8       0x30 drivers/built-in.o
 .text.dfu_fill_entity_nand
                0x000000008081f1f8      0x15c drivers/built-in.o
                0x000000008081f1f8                dfu_fill_entity_nand
 .text.dfu_get_medium_size_ram
                0x000000008081f354        0xc drivers/built-in.o
                0x000000008081f354                dfu_get_medium_size_ram
 .text.dfu_write_medium_ram
                0x000000008081f360       0x64 drivers/built-in.o
 .text.dfu_read_medium_ram
                0x000000008081f3c4       0x64 drivers/built-in.o
 .text.dfu_fill_entity_ram
                0x000000008081f428       0xb8 drivers/built-in.o
                0x000000008081f428                dfu_fill_entity_ram
 .text.rtc_calc_weekday
                0x000000008081f4e0       0x90 drivers/built-in.o
                0x000000008081f4e0                rtc_calc_weekday
 .text.rtc_to_tm
                0x000000008081f570       0xac drivers/built-in.o
                0x000000008081f570                rtc_to_tm
 .text.hw_watchdog_reset
                0x000000008081f61c       0x30 drivers/built-in.o
                0x000000008081f61c                hw_watchdog_reset
 .text.hw_watchdog_disable
                0x000000008081f64c       0x34 drivers/built-in.o
                0x000000008081f64c                hw_watchdog_disable
 .text.hw_watchdog_init
                0x000000008081f680       0x78 drivers/built-in.o
                0x000000008081f680                hw_watchdog_init
 .text.get_function
                0x000000008081f6f8       0x5e drivers/gpio/built-in.o
 .text.gpio_to_device
                0x000000008081f756       0x48 drivers/gpio/built-in.o
 *fill*         0x000000008081f79e        0x2 
 .text.check_reserved
                0x000000008081f7a0       0x4c drivers/gpio/built-in.o
 .text.gpio_renumber
                0x000000008081f7ec       0x44 drivers/gpio/built-in.o
 .text.gpio_pre_remove
                0x000000008081f830       0x32 drivers/gpio/built-in.o
 .text.gpio_post_probe
                0x000000008081f862       0x24 drivers/gpio/built-in.o
 *fill*         0x000000008081f886        0x2 
 .text.dm_gpio_lookup_name
                0x000000008081f888       0x9c drivers/gpio/built-in.o
                0x000000008081f888                dm_gpio_lookup_name
 .text.gpio_lookup_name
                0x000000008081f924       0x3c drivers/gpio/built-in.o
                0x000000008081f924                gpio_lookup_name
 .text.gpio_xlate_offs_flags
                0x000000008081f960       0x26 drivers/gpio/built-in.o
                0x000000008081f960                gpio_xlate_offs_flags
 .text.dm_gpio_request
                0x000000008081f986       0x66 drivers/gpio/built-in.o
                0x000000008081f986                dm_gpio_request
 .text.dm_gpio_requestf
                0x000000008081f9ec       0x2a drivers/gpio/built-in.o
 .text.gpio_request
                0x000000008081fa16       0x18 drivers/gpio/built-in.o
                0x000000008081fa16                gpio_request
 .text._dm_gpio_free
                0x000000008081fa2e       0x42 drivers/gpio/built-in.o
                0x000000008081fa2e                _dm_gpio_free
 .text.gpio_free
                0x000000008081fa70       0x18 drivers/gpio/built-in.o
                0x000000008081fa70                gpio_free
 .text.gpio_direction_input
                0x000000008081fa88       0x2c drivers/gpio/built-in.o
                0x000000008081fa88                gpio_direction_input
 .text.gpio_direction_output
                0x000000008081fab4       0x2c drivers/gpio/built-in.o
                0x000000008081fab4                gpio_direction_output
 .text.dm_gpio_get_value
                0x000000008081fae0       0x2c drivers/gpio/built-in.o
                0x000000008081fae0                dm_gpio_get_value
 .text.dm_gpio_set_value
                0x000000008081fb0c       0x34 drivers/gpio/built-in.o
                0x000000008081fb0c                dm_gpio_set_value
 .text.dm_gpio_set_dir_flags
                0x000000008081fb40       0x4c drivers/gpio/built-in.o
                0x000000008081fb40                dm_gpio_set_dir_flags
 .text.gpio_request_tail
                0x000000008081fb8c       0xd4 drivers/gpio/built-in.o
 .text.gpio_get_value
                0x000000008081fc60       0x16 drivers/gpio/built-in.o
                0x000000008081fc60                gpio_get_value
 .text.gpio_set_value
                0x000000008081fc76       0x18 drivers/gpio/built-in.o
                0x000000008081fc76                gpio_set_value
 *fill*         0x000000008081fc8e        0x2 
 .text.gpio_get_bank_info
                0x000000008081fc90       0x30 drivers/gpio/built-in.o
                0x000000008081fc90                gpio_get_bank_info
 .text.gpio_get_function
                0x000000008081fcc0        0x8 drivers/gpio/built-in.o
                0x000000008081fcc0                gpio_get_function
 .text.gpio_get_raw_function
                0x000000008081fcc8        0x8 drivers/gpio/built-in.o
                0x000000008081fcc8                gpio_get_raw_function
 .text.gpio_get_status
                0x000000008081fcd0       0xcc drivers/gpio/built-in.o
                0x000000008081fcd0                gpio_get_status
 .text.gpio_request_by_name
                0x000000008081fd9c       0x48 drivers/gpio/built-in.o
                0x000000008081fd9c                gpio_request_by_name
 .text.gpio_get_list_count
                0x000000008081fde4       0x44 drivers/gpio/built-in.o
                0x000000008081fde4                gpio_get_list_count
 .text.dm_gpio_free
                0x000000008081fe28        0x8 drivers/gpio/built-in.o
                0x000000008081fe28                dm_gpio_free
 .text.gpio_free_list
                0x000000008081fe30       0x22 drivers/gpio/built-in.o
                0x000000008081fe30                gpio_free_list
 .text.gpio_free_list_nodev
                0x000000008081fe52        0xc drivers/gpio/built-in.o
                0x000000008081fe52                gpio_free_list_nodev
 *fill*         0x000000008081fe5e        0x2 
 .text.gpio_request_list_by_name_nodev
                0x000000008081fe60       0x68 drivers/gpio/built-in.o
                0x000000008081fe60                gpio_request_list_by_name_nodev
 .text.gpio_request_list_by_name
                0x000000008081fec8       0x10 drivers/gpio/built-in.o
                0x000000008081fec8                gpio_request_list_by_name
 .text.omap_gpio_get_function
                0x000000008081fed8       0x1e drivers/gpio/built-in.o
 .text.omap_gpio_direction_output
                0x000000008081fef6       0x2e drivers/gpio/built-in.o
 .text.omap_gpio_probe
                0x000000008081ff24       0x28 drivers/gpio/built-in.o
 .text.omap_gpio_bind
                0x000000008081ff4c       0x42 drivers/gpio/built-in.o
 .text.omap_gpio_direction_input
                0x000000008081ff8e       0x1e drivers/gpio/built-in.o
 .text.omap_gpio_get_value
                0x000000008081ffac       0x2c drivers/gpio/built-in.o
 .text.omap_gpio_set_value
                0x000000008081ffd8       0x24 drivers/gpio/built-in.o
 .text.i2c_setup_offset
                0x000000008081fffc       0x60 drivers/i2c/built-in.o
 .text.dm_i2c_read
                0x000000008082005c       0xe8 drivers/i2c/built-in.o
                0x000000008082005c                dm_i2c_read
 .text.dm_i2c_write
                0x0000000080820144      0x136 drivers/i2c/built-in.o
                0x0000000080820144                dm_i2c_write
 *fill*         0x000000008082027a        0x2 
 .text.i2c_get_chip
                0x000000008082027c       0xec drivers/i2c/built-in.o
                0x000000008082027c                i2c_get_chip
 .text.i2c_get_chip_for_busnum
                0x0000000080820368       0x50 drivers/i2c/built-in.o
                0x0000000080820368                i2c_get_chip_for_busnum
 .text.dm_i2c_probe
                0x00000000808203b8       0x8c drivers/i2c/built-in.o
                0x00000000808203b8                dm_i2c_probe
 .text.dm_i2c_set_bus_speed
                0x0000000080820444       0x26 drivers/i2c/built-in.o
                0x0000000080820444                dm_i2c_set_bus_speed
 *fill*         0x000000008082046a        0x2 
 .text.i2c_post_probe
                0x000000008082046c       0x2c drivers/i2c/built-in.o
 .text.dm_i2c_get_bus_speed
                0x0000000080820498       0x1a drivers/i2c/built-in.o
                0x0000000080820498                dm_i2c_get_bus_speed
 .text.i2c_set_chip_flags
                0x00000000808204b2       0x28 drivers/i2c/built-in.o
                0x00000000808204b2                i2c_set_chip_flags
 .text.i2c_get_chip_flags
                0x00000000808204da       0x10 drivers/i2c/built-in.o
                0x00000000808204da                i2c_get_chip_flags
 .text.i2c_set_chip_offset_len
                0x00000000808204ea       0x16 drivers/i2c/built-in.o
                0x00000000808204ea                i2c_set_chip_offset_len
 .text.i2c_get_chip_offset_len
                0x0000000080820500        0xa drivers/i2c/built-in.o
                0x0000000080820500                i2c_get_chip_offset_len
 .text.i2c_deblock
                0x000000008082050a       0x14 drivers/i2c/built-in.o
                0x000000008082050a                i2c_deblock
 *fill*         0x000000008082051e        0x2 
 .text.i2c_chip_ofdata_to_platdata
                0x0000000080820520       0x54 drivers/i2c/built-in.o
                0x0000000080820520                i2c_chip_ofdata_to_platdata
 .text.i2c_child_post_bind
                0x0000000080820574       0x1e drivers/i2c/built-in.o
 *fill*         0x0000000080820592        0x2 
 .text.i2c_compat_get_device
                0x0000000080820594       0x44 drivers/i2c/built-in.o
 .text.i2c_probe
                0x00000000808205d8       0x44 drivers/i2c/built-in.o
                0x00000000808205d8                i2c_probe
 .text.i2c_read
                0x000000008082061c       0x20 drivers/i2c/built-in.o
                0x000000008082061c                i2c_read
 .text.i2c_write
                0x000000008082063c       0x20 drivers/i2c/built-in.o
                0x000000008082063c                i2c_write
 .text.__omap24_i2c_setspeed
                0x000000008082065c      0x11c drivers/i2c/built-in.o
 .text.omap_i2c_set_bus_speed
                0x0000000080820778       0x1a drivers/i2c/built-in.o
 *fill*         0x0000000080820792        0x2 
 .text.wait_for_bb
                0x0000000080820794       0x58 drivers/i2c/built-in.o
 .text.wait_for_event
                0x00000000808207ec       0x50 drivers/i2c/built-in.o
 .text.flush_fifo
                0x000000008082083c       0x2a drivers/i2c/built-in.o
 *fill*         0x0000000080820866        0x2 
 .text.omap_i2c_probe_chip
                0x0000000080820868       0xac drivers/i2c/built-in.o
 .text.omap_i2c_ofdata_to_platdata
                0x0000000080820914       0x20 drivers/i2c/built-in.o
 .text.omap_i2c_xfer
                0x0000000080820934      0x218 drivers/i2c/built-in.o
 .text.omap_i2c_probe
                0x0000000080820b4c      0x18c drivers/i2c/built-in.o
 .text.idr_get_next
                0x0000000080820cd8       0x2a drivers/mtd/built-in.o
                0x0000000080820cd8                idr_get_next
 .text.idr_alloc
                0x0000000080820d02       0x1e drivers/mtd/built-in.o
                0x0000000080820d02                idr_alloc
 .text.__mtd_next_device
                0x0000000080820d20       0x18 drivers/mtd/built-in.o
                0x0000000080820d20                __mtd_next_device
 .text.__get_mtd_device
                0x0000000080820d38       0x20 drivers/mtd/built-in.o
                0x0000000080820d38                __get_mtd_device
 .text.get_mtd_device_nm
                0x0000000080820d58       0x30 drivers/mtd/built-in.o
                0x0000000080820d58                get_mtd_device_nm
 .text.__put_mtd_device
                0x0000000080820d88       0x34 drivers/mtd/built-in.o
                0x0000000080820d88                __put_mtd_device
 .text.put_mtd_device
                0x0000000080820dbc        0x4 drivers/mtd/built-in.o
                0x0000000080820dbc                put_mtd_device
 .text.mtd_erase
                0x0000000080820dc0       0x6a drivers/mtd/built-in.o
                0x0000000080820dc0                mtd_erase
 .text.mtd_read
                0x0000000080820e2a       0x76 drivers/mtd/built-in.o
                0x0000000080820e2a                mtd_read
 .text.mtd_write
                0x0000000080820ea0       0x68 drivers/mtd/built-in.o
                0x0000000080820ea0                mtd_write
 .text.mtd_read_oob
                0x0000000080820f08       0x36 drivers/mtd/built-in.o
                0x0000000080820f08                mtd_read_oob
 .text.mtd_unlock
                0x0000000080820f3e       0x58 drivers/mtd/built-in.o
                0x0000000080820f3e                mtd_unlock
 *fill*         0x0000000080820f96        0x2 
 .text.add_mtd_device
                0x0000000080820f98      0x130 drivers/mtd/built-in.o
                0x0000000080820f98                add_mtd_device
 .text.mtd_block_isbad
                0x00000000808210c8       0x2e drivers/mtd/built-in.o
                0x00000000808210c8                mtd_block_isbad
 .text.mtd_block_markbad
                0x00000000808210f6       0x46 drivers/mtd/built-in.o
                0x00000000808210f6                mtd_block_markbad
 .text.mtd_arg_off
                0x000000008082113c       0xa8 drivers/mtd/built-in.o
                0x000000008082113c                mtd_arg_off
 .text.mtd_arg_off_size
                0x00000000808211e4       0xc8 drivers/mtd/built-in.o
                0x00000000808211e4                mtd_arg_off_size
 .text.get_nand_dev_by_index
                0x00000000808212ac       0x1c drivers/mtd/nand/built-in.o
                0x00000000808212ac                get_nand_dev_by_index
 .text.nand_register
                0x00000000808212c8       0x64 drivers/mtd/nand/built-in.o
                0x00000000808212c8                nand_register
 .text.nand_size
                0x000000008082132c        0xc drivers/mtd/nand/built-in.o
                0x000000008082132c                nand_size
 .text.nand_init
                0x0000000080821338       0x40 drivers/mtd/nand/built-in.o
                0x0000000080821338                nand_init
 .text.verify_bbt_descr
                0x0000000080821378       0xf0 drivers/mtd/nand/built-in.o
 .text.create_bbt
                0x0000000080821468      0x160 drivers/mtd/nand/built-in.o
 .text.scan_read
                0x00000000808215c8       0x9c drivers/mtd/nand/built-in.o
 .text.read_bbt
                0x0000000080821664      0x164 drivers/mtd/nand/built-in.o
 .text.write_bbt
                0x00000000808217c8      0x43e drivers/mtd/nand/built-in.o
 .text.nand_update_bbt
                0x0000000080821c06       0xc6 drivers/mtd/nand/built-in.o
 .text.mark_bbt_region
                0x0000000080821ccc      0x12c drivers/mtd/nand/built-in.o
 .text.search_bbt
                0x0000000080821df8      0x10e drivers/mtd/nand/built-in.o
 .text.read_abs_bbt
                0x0000000080821f06       0x94 drivers/mtd/nand/built-in.o
 *fill*         0x0000000080821f9a        0x2 
 .text.nand_default_bbt
                0x0000000080821f9c      0x3d4 drivers/mtd/nand/built-in.o
                0x0000000080821f9c                nand_default_bbt
 .text.nand_isreserved_bbt
                0x0000000080822370       0x2e drivers/mtd/nand/built-in.o
                0x0000000080822370                nand_isreserved_bbt
 .text.nand_isbad_bbt
                0x000000008082239e       0x3c drivers/mtd/nand/built-in.o
                0x000000008082239e                nand_isbad_bbt
 .text.nand_markbad_bbt
                0x00000000808223da       0x48 drivers/mtd/nand/built-in.o
                0x00000000808223da                nand_markbad_bbt
 .text.check_skip_len
                0x0000000080822422       0x80 drivers/mtd/nand/built-in.o
 *fill*         0x00000000808224a2        0x2 
 .text.nand_erase_opts
                0x00000000808224a4      0x254 drivers/mtd/nand/built-in.o
                0x00000000808224a4                nand_erase_opts
 .text.nand_verify_page_oob
                0x00000000808226f8       0x7c drivers/mtd/nand/built-in.o
                0x00000000808226f8                nand_verify_page_oob
 .text.nand_verify
                0x0000000080822774       0xa4 drivers/mtd/nand/built-in.o
                0x0000000080822774                nand_verify
 .text.nand_write_skip_bad
                0x0000000080822818      0x1d8 drivers/mtd/nand/built-in.o
                0x0000000080822818                nand_write_skip_bad
 .text.nand_read_skip_bad
                0x00000000808229f0      0x190 drivers/mtd/nand/built-in.o
                0x00000000808229f0                nand_read_skip_bad
 .text.nand_calculate_ecc
                0x0000000080822b80       0xc0 drivers/mtd/nand/built-in.o
                0x0000000080822b80                nand_calculate_ecc
 .text.nand_correct_data
                0x0000000080822c40       0xc0 drivers/mtd/nand/built-in.o
                0x0000000080822c40                nand_correct_data
 .text.nand_release_device
                0x0000000080822d00        0xe drivers/mtd/nand/built-in.o
 .text.nand_read_byte
                0x0000000080822d0e        0xe drivers/mtd/nand/built-in.o
                0x0000000080822d0e                nand_read_byte
 .text.nand_read_byte16
                0x0000000080822d1c       0x10 drivers/mtd/nand/built-in.o
 .text.nand_read_word
                0x0000000080822d2c        0xe drivers/mtd/nand/built-in.o
 .text.nand_write_byte
                0x0000000080822d3a       0x16 drivers/mtd/nand/built-in.o
 .text.nand_write_byte16
                0x0000000080822d50       0x16 drivers/mtd/nand/built-in.o
 .text.nand_write_buf
                0x0000000080822d66       0x1a drivers/mtd/nand/built-in.o
                0x0000000080822d66                nand_write_buf
 .text.nand_read_buf
                0x0000000080822d80       0x1c drivers/mtd/nand/built-in.o
                0x0000000080822d80                nand_read_buf
 .text.nand_write_buf16
                0x0000000080822d9c       0x1e drivers/mtd/nand/built-in.o
                0x0000000080822d9c                nand_write_buf16
 .text.nand_read_buf16
                0x0000000080822dba       0x20 drivers/mtd/nand/built-in.o
                0x0000000080822dba                nand_read_buf16
 .text.nand_read_page_raw_syndrome
                0x0000000080822dda       0x88 drivers/mtd/nand/built-in.o
 .text.nand_read_page_swecc
                0x0000000080822e62       0xe4 drivers/mtd/nand/built-in.o
 .text.nand_read_oob_std
                0x0000000080822f46       0x24 drivers/mtd/nand/built-in.o
 .text.nand_read_oob_syndrome
                0x0000000080822f6a       0xb0 drivers/mtd/nand/built-in.o
 .text.nand_write_oob_std
                0x000000008082301a       0x50 drivers/mtd/nand/built-in.o
 .text.nand_write_oob_syndrome
                0x000000008082306a      0x104 drivers/mtd/nand/built-in.o
 .text.nand_write_page_raw_syndrome
                0x000000008082316e       0x88 drivers/mtd/nand/built-in.o
 .text.nand_write_page_swecc
                0x00000000808231f6       0x80 drivers/mtd/nand/built-in.o
 .text.nand_write_page_hwecc
                0x0000000080823276       0x8c drivers/mtd/nand/built-in.o
 .text.nand_write_page_syndrome
                0x0000000080823302       0xa0 drivers/mtd/nand/built-in.o
 .text.single_erase
                0x00000000808233a2       0x2e drivers/mtd/nand/built-in.o
 .text.nand_sync
                0x00000000808233d0        0xa drivers/mtd/nand/built-in.o
 .text.nand_onfi_set_features
                0x00000000808233da       0x50 drivers/mtd/nand/built-in.o
 .text.nand_onfi_get_features
                0x000000008082342a       0x40 drivers/mtd/nand/built-in.o
 *fill*         0x000000008082346a        0x2 
 .text.nand_set_defaults
                0x000000008082346c      0x138 drivers/mtd/nand/built-in.o
 .text.nand_setup_read_retry_micron
                0x00000000808235a4       0x1a drivers/mtd/nand/built-in.o
 .text.nand_write_subpage_hwecc
                0x00000000808235be       0xfe drivers/mtd/nand/built-in.o
 .text.nand_check_erased_buf
                0x00000000808236bc       0xc8 drivers/mtd/nand/built-in.o
 .text.nand_block_bad
                0x0000000080823784       0xec drivers/mtd/nand/built-in.o
 .text.nand_write_page
                0x0000000080823870       0xd4 drivers/mtd/nand/built-in.o
 .text.nand_wait
                0x0000000080823944       0x74 drivers/mtd/nand/built-in.o
 .text.unlikely.sanitize_string
                0x00000000808239b8       0x1e drivers/mtd/nand/built-in.o
 .text.nand_block_isreserved
                0x00000000808239d6        0xe drivers/mtd/nand/built-in.o
 .text.nand_check_wp
                0x00000000808239e4       0x2e drivers/mtd/nand/built-in.o
 .text.nand_read_page_raw
                0x0000000080823a12       0x26 drivers/mtd/nand/built-in.o
 .text.nand_write_page_raw
                0x0000000080823a38       0x26 drivers/mtd/nand/built-in.o
 *fill*         0x0000000080823a5e        0x2 
 .text.nand_block_checkbad
                0x0000000080823a60       0x50 drivers/mtd/nand/built-in.o
 .text.nand_block_isbad
                0x0000000080823ab0       0x4e drivers/mtd/nand/built-in.o
 *fill*         0x0000000080823afe        0x2 
 .text.nand_fill_oob
                0x0000000080823b00       0xbc drivers/mtd/nand/built-in.o
 .text.nand_do_write_oob
                0x0000000080823bbc      0x144 drivers/mtd/nand/built-in.o
 .text.nand_default_block_markbad
                0x0000000080823d00       0x98 drivers/mtd/nand/built-in.o
 .text.nand_do_write_ops
                0x0000000080823d98      0x258 drivers/mtd/nand/built-in.o
 .text.nand_write_oob
                0x0000000080823ff0       0x60 drivers/mtd/nand/built-in.o
 .text.nand_write
                0x0000000080824050       0x48 drivers/mtd/nand/built-in.o
 .text.nand_select_chip
                0x0000000080824098       0x38 drivers/mtd/nand/built-in.o
 .text.nand_transfer_oob
                0x00000000808240d0       0xac drivers/mtd/nand/built-in.o
 .text.onfi_crc16.constprop.18
                0x000000008082417c       0x36 drivers/mtd/nand/built-in.o
 .text.panic_nand_write
                0x00000000808241b2       0x6e drivers/mtd/nand/built-in.o
 .text.nand_wait_status_ready.constprop.20
                0x0000000080824220       0x2a drivers/mtd/nand/built-in.o
 .text.nand_wait_ready
                0x000000008082424a       0x32 drivers/mtd/nand/built-in.o
                0x000000008082424a                nand_wait_ready
 .text.nand_command
                0x000000008082427c      0x142 drivers/mtd/nand/built-in.o
 .text.nand_command_lp
                0x00000000808243be      0x186 drivers/mtd/nand/built-in.o
 .text.nand_do_read_ops
                0x0000000080824544      0x2d0 drivers/mtd/nand/built-in.o
 .text.nand_read_oob
                0x0000000080824814      0x1e8 drivers/mtd/nand/built-in.o
 .text.nand_read
                0x00000000808249fc       0x48 drivers/mtd/nand/built-in.o
 .text.nand_check_erased_ecc_chunk
                0x0000000080824a44       0x74 drivers/mtd/nand/built-in.o
                0x0000000080824a44                nand_check_erased_ecc_chunk
 .text.nand_read_page_syndrome
                0x0000000080824ab8      0x118 drivers/mtd/nand/built-in.o
 .text.nand_read_subpage
                0x0000000080824bd0      0x1f8 drivers/mtd/nand/built-in.o
 .text.nand_read_page_hwecc
                0x0000000080824dc8      0x122 drivers/mtd/nand/built-in.o
 .text.nand_read_page_hwecc_oob_first
                0x0000000080824eea      0x120 drivers/mtd/nand/built-in.o
 .text.nand_erase_nand
                0x000000008082500a      0x1bc drivers/mtd/nand/built-in.o
                0x000000008082500a                nand_erase_nand
 .text.nand_block_markbad
                0x00000000808251c6       0x92 drivers/mtd/nand/built-in.o
 .text.nand_erase
                0x0000000080825258        0x6 drivers/mtd/nand/built-in.o
 *fill*         0x000000008082525e        0x2 
 .text.nand_scan_ident
                0x0000000080825260      0xcc0 drivers/mtd/nand/built-in.o
                0x0000000080825260                nand_scan_ident
 .text.nand_scan_tail
                0x0000000080825f20      0x460 drivers/mtd/nand/built-in.o
                0x0000000080825f20                nand_scan_tail
 .text.nand_scan
                0x0000000080826380       0x18 drivers/mtd/nand/built-in.o
                0x0000000080826380                nand_scan
 .text.omap_nand_hwcontrol
                0x0000000080826398       0x58 drivers/mtd/nand/built-in.o
 .text.omap_dev_ready
                0x00000000808263f0       0x1c drivers/mtd/nand/built-in.o
 .text.omap_enable_hwecc
                0x000000008082640c       0x98 drivers/mtd/nand/built-in.o
 .text.omap_calculate_ecc
                0x00000000808264a4      0x10c drivers/mtd/nand/built-in.o
 .text.omap_reverse_list
                0x00000000808265b0       0x1e drivers/mtd/nand/built-in.o
 .text.omap_read_page_bch
                0x00000000808265ce      0x128 drivers/mtd/nand/built-in.o
 *fill*         0x00000000808266f6        0x2 
 .text.omap_correct_data_bch
                0x00000000808266f8      0x12c drivers/mtd/nand/built-in.o
 .text.omap_nand_read_prefetch
                0x0000000080826824      0x108 drivers/mtd/nand/built-in.o
 .text.board_nand_init
                0x000000008082692c      0x174 drivers/mtd/nand/built-in.o
                0x000000008082692c                board_nand_init
 .text.elm_check_error
                0x0000000080826aa0      0x178 drivers/mtd/nand/built-in.o
                0x0000000080826aa0                elm_check_error
 .text.elm_config
                0x0000000080826c18       0x48 drivers/mtd/nand/built-in.o
                0x0000000080826c18                elm_config
 .text.elm_reset
                0x0000000080826c60       0x28 drivers/mtd/nand/built-in.o
                0x0000000080826c60                elm_reset
 .text.elm_init
                0x0000000080826c88       0x14 drivers/mtd/nand/built-in.o
                0x0000000080826c88                elm_init
 .text.spi_flash_probe
                0x0000000080826c9c       0x60 drivers/mtd/spi/built-in.o
                0x0000000080826c9c                spi_flash_probe
 .text.spi_flash_free
                0x0000000080826cfc       0x14 drivers/mtd/spi/built-in.o
                0x0000000080826cfc                spi_flash_free
 .text.spi_flash_read_common
                0x0000000080826d10       0x4c drivers/mtd/spi/built-in.o
                0x0000000080826d10                spi_flash_read_common
 .text.read_sr  0x0000000080826d5c       0x2c drivers/mtd/spi/built-in.o
 .text.spi_flash_write_common
                0x0000000080826d88      0x140 drivers/mtd/spi/built-in.o
                0x0000000080826d88                spi_flash_write_common
 .text.spi_flash_cmd_erase_ops
                0x0000000080826ec8       0xb8 drivers/mtd/spi/built-in.o
                0x0000000080826ec8                spi_flash_cmd_erase_ops
 .text.spi_flash_cmd_write_ops
                0x0000000080826f80       0xd4 drivers/mtd/spi/built-in.o
                0x0000000080826f80                spi_flash_cmd_write_ops
 .text.read_cr  0x0000000080827054       0x2c drivers/mtd/spi/built-in.o
 .text.spi_flash_copy_mmap
                0x0000000080827080        0x4 drivers/mtd/spi/built-in.o
                0x0000000080827080                spi_flash_copy_mmap
 .text.spi_flash_cmd_read_ops
                0x0000000080827084       0xf0 drivers/mtd/spi/built-in.o
                0x0000000080827084                spi_flash_cmd_read_ops
 .text.spi_flash_scan
                0x0000000080827174      0x2f8 drivers/mtd/spi/built-in.o
                0x0000000080827174                spi_flash_scan
 .text.spi_flash_read_write
                0x000000008082746c       0x5c drivers/mtd/spi/built-in.o
 .text.spi_flash_cmd_read
                0x00000000808274c8       0x14 drivers/mtd/spi/built-in.o
                0x00000000808274c8                spi_flash_cmd_read
 .text.spi_flash_cmd
                0x00000000808274dc       0x1c drivers/mtd/spi/built-in.o
                0x00000000808274dc                spi_flash_cmd
 .text.spi_flash_cmd_write
                0x00000000808274f8       0x12 drivers/mtd/spi/built-in.o
                0x00000000808274f8                spi_flash_cmd_write
 *fill*         0x000000008082750a        0x2 
 .text.cpsw_gmii_sel_am3352
                0x000000008082750c       0x74 drivers/net/built-in.o
 .text.cpsw_mdio_read
                0x0000000080827580       0x7c drivers/net/built-in.o
 .text.cpsw_mdio_write
                0x00000000808275fc       0x74 drivers/net/built-in.o
 .text.cpsw_eth_stop
                0x0000000080827670       0x30 drivers/net/built-in.o
 .text.cpsw_eth_ofdata_to_platdata
                0x00000000808276a0      0x3e4 drivers/net/built-in.o
 .text.cpsw_ale_read.isra.1
                0x0000000080827a84       0x12 drivers/net/built-in.o
 .text.cpsw_ale_match_free
                0x0000000080827a96       0x30 drivers/net/built-in.o
 .text.cpsw_ale_find_ageable
                0x0000000080827ac6       0x36 drivers/net/built-in.o
 .text.cpsw_ale_match_addr
                0x0000000080827afc       0x64 drivers/net/built-in.o
 .text.cpsw_ale_write.isra.2
                0x0000000080827b60       0x16 drivers/net/built-in.o
 .text.cpdma_submit
                0x0000000080827b76       0x4e drivers/net/built-in.o
 .text.cpsw_eth_free_pkt
                0x0000000080827bc4       0x1a drivers/net/built-in.o
 .text.cpdma_process
                0x0000000080827bde       0x4a drivers/net/built-in.o
 .text.cpsw_eth_recv
                0x0000000080827c28       0x2c drivers/net/built-in.o
 .text.cpsw_eth_send
                0x0000000080827c54       0x5c drivers/net/built-in.o
 .text.cpsw_ale_add_mcast.constprop.11
                0x0000000080827cb0       0xbc drivers/net/built-in.o
 .text.cpsw_eth_start
                0x0000000080827d6c      0x374 drivers/net/built-in.o
 .text._cpsw_register
                0x00000000808280e0      0x108 drivers/net/built-in.o
                0x00000000808280e0                _cpsw_register
 .text.cpsw_eth_probe
                0x00000000808281e8       0x12 drivers/net/built-in.o
 *fill*         0x00000000808281fa        0x2 
 .text.cpsw_am33xx_cm_get_macid
                0x00000000808281fc       0x88 drivers/net/built-in.o
 .text.davinci_emac_3517_get_macid
                0x0000000080828284       0x88 drivers/net/built-in.o
 .text.ti_cm_get_macid
                0x000000008082830c       0x98 drivers/net/built-in.o
                0x000000008082830c                ti_cm_get_macid
 .text.genphy_shutdown
                0x00000000808283a4        0x4 drivers/net/phy/built-in.o
                0x00000000808283a4                genphy_shutdown
 .text.genphy_restart_aneg
                0x00000000808283a8       0x36 drivers/net/phy/built-in.o
                0x00000000808283a8                genphy_restart_aneg
 .text.genphy_config_aneg
                0x00000000808283de      0x156 drivers/net/phy/built-in.o
                0x00000000808283de                genphy_config_aneg
 .text.genphy_config
                0x0000000080828534       0x90 drivers/net/phy/built-in.o
                0x0000000080828534                genphy_config
 .text.genphy_update_link
                0x00000000808285c4       0xd0 drivers/net/phy/built-in.o
                0x00000000808285c4                genphy_update_link
 .text.genphy_parse_link
                0x0000000080828694      0x11c drivers/net/phy/built-in.o
                0x0000000080828694                genphy_parse_link
 .text.genphy_startup
                0x00000000808287b0       0x16 drivers/net/phy/built-in.o
                0x00000000808287b0                genphy_startup
 .text.phy_init
                0x00000000808287c6        0xe drivers/net/phy/built-in.o
                0x00000000808287c6                phy_init
 .text.phy_register
                0x00000000808287d4       0x18 drivers/net/phy/built-in.o
                0x00000000808287d4                phy_register
 .text.get_phy_id
                0x00000000808287ec       0x40 drivers/net/phy/built-in.o
                0x00000000808287ec                get_phy_id
 .text.get_phy_device_by_mask
                0x000000008082882c      0x1ec drivers/net/phy/built-in.o
 .text.phy_reset
                0x0000000080828a18       0x88 drivers/net/phy/built-in.o
                0x0000000080828a18                phy_reset
 .text.phy_find_by_mask
                0x0000000080828aa0       0x24 drivers/net/phy/built-in.o
                0x0000000080828aa0                phy_find_by_mask
 .text.phy_connect_dev
                0x0000000080828ac4       0x40 drivers/net/phy/built-in.o
                0x0000000080828ac4                phy_connect_dev
 .text.phy_connect
                0x0000000080828b04       0x34 drivers/net/phy/built-in.o
                0x0000000080828b04                phy_connect
 .text.phy_startup
                0x0000000080828b38       0x10 drivers/net/phy/built-in.o
                0x0000000080828b38                phy_startup
 .text.board_phy_config
                0x0000000080828b48       0x10 drivers/net/phy/built-in.o
                0x0000000080828b48                board_phy_config
 .text.phy_config
                0x0000000080828b58        0x4 drivers/net/phy/built-in.o
                0x0000000080828b58                phy_config
 .text.phy_get_interface_by_name
                0x0000000080828b5c       0x28 drivers/net/phy/built-in.o
                0x0000000080828b5c                phy_get_interface_by_name
 .text.phy_write.constprop.0
                0x0000000080828b84       0x18 drivers/net/phy/built-in.o
 .text.ar8031_config
                0x0000000080828b9c       0x56 drivers/net/phy/built-in.o
 .text.ar8021_config
                0x0000000080828bf2       0x22 drivers/net/phy/built-in.o
 .text.ar8035_config
                0x0000000080828c14       0xba drivers/net/phy/built-in.o
 *fill*         0x0000000080828cce        0x2 
 .text.phy_atheros_init
                0x0000000080828cd0       0x24 drivers/net/phy/built-in.o
                0x0000000080828cd0                phy_atheros_init
 .text.smsc_startup
                0x0000000080828cf4       0x36 drivers/net/phy/built-in.o
 *fill*         0x0000000080828d2a        0x2 
 .text.phy_smsc_init
                0x0000000080828d2c       0x38 drivers/net/phy/built-in.o
                0x0000000080828d2c                phy_smsc_init
 .text._serial_putc
                0x0000000080828d64       0x22 drivers/serial/built-in.o
 .text.__serial_tstc
                0x0000000080828d86       0x14 drivers/serial/built-in.o
 .text.serial_stub_putc
                0x0000000080828d9a        0x6 drivers/serial/built-in.o
 .text.serial_stub_tstc
                0x0000000080828da0        0x6 drivers/serial/built-in.o
 .text.serial_pre_remove
                0x0000000080828da6        0x4 drivers/serial/built-in.o
 .text.__serial_getc
                0x0000000080828daa       0x20 drivers/serial/built-in.o
 .text.serial_stub_getc
                0x0000000080828dca        0x6 drivers/serial/built-in.o
 .text.serial_post_probe
                0x0000000080828dd0       0x74 drivers/serial/built-in.o
 .text.serial_stub_puts
                0x0000000080828e44       0x16 drivers/serial/built-in.o
 *fill*         0x0000000080828e5a        0x2 
 .text.serial_init
                0x0000000080828e5c       0xcc drivers/serial/built-in.o
                0x0000000080828e5c                serial_init
 .text.serial_initialize
                0x0000000080828f28        0x4 drivers/serial/built-in.o
                0x0000000080828f28                serial_initialize
 .text.serial_putc
                0x0000000080828f2c       0x14 drivers/serial/built-in.o
                0x0000000080828f2c                serial_putc
 .text.serial_puts
                0x0000000080828f40       0x20 drivers/serial/built-in.o
                0x0000000080828f40                serial_puts
 .text.serial_getc
                0x0000000080828f60       0x12 drivers/serial/built-in.o
                0x0000000080828f60                serial_getc
 .text.serial_tstc
                0x0000000080828f72       0x12 drivers/serial/built-in.o
                0x0000000080828f72                serial_tstc
 .text.serial_setbrg
                0x0000000080828f84       0x20 drivers/serial/built-in.o
                0x0000000080828f84                serial_setbrg
 .text.on_baudrate
                0x0000000080828fa4       0x9c drivers/serial/built-in.o
 .text.serial_stdio_init
                0x0000000080829040        0x2 drivers/serial/built-in.o
                0x0000000080829040                serial_stdio_init
 *fill*         0x0000000080829042        0x2 
 .text.ns16550_serial_ofdata_to_platdata
                0x0000000080829044       0x78 drivers/serial/built-in.o
                0x0000000080829044                ns16550_serial_ofdata_to_platdata
 .text.ns16550_writeb.isra.5
                0x00000000808290bc       0x16 drivers/serial/built-in.o
 .text.NS16550_setbrg
                0x00000000808290d2       0x34 drivers/serial/built-in.o
 .text.ns16550_serial_setbrg
                0x0000000080829106       0x24 drivers/serial/built-in.o
 .text.ns16550_readb.isra.6
                0x000000008082912a       0x14 drivers/serial/built-in.o
 .text.ns16550_serial_pending
                0x000000008082913e       0x28 drivers/serial/built-in.o
 .text.ns16550_serial_putc
                0x0000000080829166       0x34 drivers/serial/built-in.o
 .text.ns16550_serial_getc
                0x000000008082919a       0x26 drivers/serial/built-in.o
 .text.NS16550_init
                0x00000000808291c0       0x54 drivers/serial/built-in.o
                0x00000000808291c0                NS16550_init
 .text.ns16550_serial_probe
                0x0000000080829214       0x20 drivers/serial/built-in.o
                0x0000000080829214                ns16550_serial_probe
 .text.spi_do_alloc_slave
                0x0000000080829234       0x30 drivers/spi/built-in.o
                0x0000000080829234                spi_do_alloc_slave
 .text.omap3_spi_write_chconf
                0x0000000080829264       0x22 drivers/spi/built-in.o
 .text.omap3_spi_set_enable
                0x0000000080829286       0x22 drivers/spi/built-in.o
 .text._omap3_spi_set_speed
                0x00000000808292a8       0x40 drivers/spi/built-in.o
 .text._omap3_spi_set_mode
                0x00000000808292e8       0x52 drivers/spi/built-in.o
 .text.spi_init
                0x000000008082933a        0x2 drivers/spi/built-in.o
                0x000000008082933a                spi_init
 .text.spi_free_slave
                0x000000008082933c        0x4 drivers/spi/built-in.o
                0x000000008082933c                spi_free_slave
 .text.spi_claim_bus
                0x0000000080829340       0x7e drivers/spi/built-in.o
                0x0000000080829340                spi_claim_bus
 .text.spi_release_bus
                0x00000000808293be       0x26 drivers/spi/built-in.o
                0x00000000808293be                spi_release_bus
 .text.spi_setup_slave
                0x00000000808293e4       0xa0 drivers/spi/built-in.o
                0x00000000808293e4                spi_setup_slave
 .text.spi_xfer
                0x0000000080829484      0x374 drivers/spi/built-in.o
                0x0000000080829484                spi_xfer
 .text.usb_get_dr_mode
                0x00000000808297f8       0x58 drivers/usb/common/built-in.o
                0x00000000808297f8                usb_get_dr_mode
 .text.usb_ep_autoconfig
                0x0000000080829850      0x114 drivers/usb/gadget/built-in.o
                0x0000000080829850                usb_ep_autoconfig
 .text.usb_ep_autoconfig_reset
                0x0000000080829964       0x24 drivers/usb/gadget/built-in.o
                0x0000000080829964                usb_ep_autoconfig_reset
 .text.usb_descriptor_fillbuf
                0x0000000080829988       0x3a drivers/usb/gadget/built-in.o
                0x0000000080829988                usb_descriptor_fillbuf
 .text.usb_gadget_config_buf
                0x00000000808299c2       0x56 drivers/usb/gadget/built-in.o
                0x00000000808299c2                usb_gadget_config_buf
 .text.usb_gadget_get_string
                0x0000000080829a18       0xea drivers/usb/gadget/built-in.o
                0x0000000080829a18                usb_gadget_get_string
 .text.count_configs
                0x0000000080829b02       0x46 drivers/usb/gadget/built-in.o
 .text.collect_langs
                0x0000000080829b48       0x2a drivers/usb/gadget/built-in.o
 *fill*         0x0000000080829b72        0x2 
 .text.composite_resume
                0x0000000080829b74       0x50 drivers/usb/gadget/built-in.o
 .text.composite_suspend
                0x0000000080829bc4       0x50 drivers/usb/gadget/built-in.o
 .text.composite_setup_complete
                0x0000000080829c14       0x2c drivers/usb/gadget/built-in.o
 .text.g_dnl_unbind
                0x0000000080829c40       0x28 drivers/usb/gadget/built-in.o
 .text.lookup_string
                0x0000000080829c68       0x2a drivers/usb/gadget/built-in.o
 *fill*         0x0000000080829c92        0x2 
 .text.composite_unbind
                0x0000000080829c94       0xec drivers/usb/gadget/built-in.o
 .text.composite_bind
                0x0000000080829d80       0xc0 drivers/usb/gadget/built-in.o
 .text.g_dnl_do_config
                0x0000000080829e40       0x48 drivers/usb/gadget/built-in.o
 .text.reset_config.isra.6
                0x0000000080829e88       0x3c drivers/usb/gadget/built-in.o
 .text.composite_disconnect
                0x0000000080829ec4       0x24 drivers/usb/gadget/built-in.o
 .text.composite_setup
                0x0000000080829ee8      0x5ac drivers/usb/gadget/built-in.o
 .text.usb_add_function
                0x000000008082a494       0x9c drivers/usb/gadget/built-in.o
                0x000000008082a494                usb_add_function
 .text.usb_interface_id
                0x000000008082a530       0x1e drivers/usb/gadget/built-in.o
                0x000000008082a530                usb_interface_id
 *fill*         0x000000008082a54e        0x2 
 .text.usb_add_config
                0x000000008082a550       0xfc drivers/usb/gadget/built-in.o
                0x000000008082a550                usb_add_config
 .text.usb_string_id
                0x000000008082a64c       0x1a drivers/usb/gadget/built-in.o
                0x000000008082a64c                usb_string_id
 *fill*         0x000000008082a666        0x2 
 .text.usb_composite_register
                0x000000008082a668       0x40 drivers/usb/gadget/built-in.o
                0x000000008082a668                usb_composite_register
 .text.usb_composite_unregister
                0x000000008082a6a8       0x20 drivers/usb/gadget/built-in.o
                0x000000008082a6a8                usb_composite_unregister
 .text.g_dnl_set_serialnumber
                0x000000008082a6c8       0x24 drivers/usb/gadget/built-in.o
                0x000000008082a6c8                g_dnl_set_serialnumber
 .text.on_serialno
                0x000000008082a6ec        0xc drivers/usb/gadget/built-in.o
 .text.g_dnl_bind_fixup
                0x000000008082a6f8        0x4 drivers/usb/gadget/built-in.o
                0x000000008082a6f8                g_dnl_bind_fixup
 .text.g_dnl_get_board_bcd_device_number
                0x000000008082a6fc        0x2 drivers/usb/gadget/built-in.o
                0x000000008082a6fc                g_dnl_get_board_bcd_device_number
 *fill*         0x000000008082a6fe        0x2 
 .text.g_dnl_bind
                0x000000008082a700      0x11c drivers/usb/gadget/built-in.o
 .text.g_dnl_board_usb_cable_connected
                0x000000008082a81c        0x6 drivers/usb/gadget/built-in.o
                0x000000008082a81c                g_dnl_board_usb_cable_connected
 *fill*         0x000000008082a822        0x2 
 .text.g_dnl_detach
                0x000000008082a824        0xc drivers/usb/gadget/built-in.o
                0x000000008082a824                g_dnl_detach
 .text.g_dnl_trigger_detach
                0x000000008082a830        0xc drivers/usb/gadget/built-in.o
                0x000000008082a830                g_dnl_trigger_detach
 .text.g_dnl_clear_detach
                0x000000008082a83c        0xc drivers/usb/gadget/built-in.o
                0x000000008082a83c                g_dnl_clear_detach
 .text.g_dnl_register
                0x000000008082a848       0x38 drivers/usb/gadget/built-in.o
                0x000000008082a848                g_dnl_register
 .text.g_dnl_unregister
                0x000000008082a880        0xc drivers/usb/gadget/built-in.o
                0x000000008082a880                g_dnl_unregister
 .text.__dfu_get_alt
                0x000000008082a88c        0x6 drivers/usb/gadget/built-in.o
 *fill*         0x000000008082a892        0x2 
 .text.dfu_set_alt
                0x000000008082a894       0x2c drivers/usb/gadget/built-in.o
 .text.dfu_add  0x000000008082a8c0       0xb4 drivers/usb/gadget/built-in.o
                0x000000008082a8c0                dfu_add
 .text.dfu_handle
                0x000000008082a974       0xcc drivers/usb/gadget/built-in.o
 .text.dnload_request_flush
                0x000000008082aa40       0x18 drivers/usb/gadget/built-in.o
 .text.dnload_request_complete
                0x000000008082aa58       0x24 drivers/usb/gadget/built-in.o
 .text.dfu_unbind
                0x000000008082aa7c       0x4e drivers/usb/gadget/built-in.o
 *fill*         0x000000008082aaca        0x2 
 .text.dfu_disable
                0x000000008082aacc       0x24 drivers/usb/gadget/built-in.o
 .text.dfu_bind
                0x000000008082aaf0      0x15c drivers/usb/gadget/built-in.o
 .text.handle_upload.isra.10
                0x000000008082ac4c       0x1c drivers/usb/gadget/built-in.o
 .text.handle_getstatus
                0x000000008082ac68       0xac drivers/usb/gadget/built-in.o
 .text.state_dfu_error
                0x000000008082ad14       0x36 drivers/usb/gadget/built-in.o
 *fill*         0x000000008082ad4a        0x2 
 .text.state_dfu_manifest_sync
                0x000000008082ad4c       0x40 drivers/usb/gadget/built-in.o
 .text.state_dfu_dnload_idle
                0x000000008082ad8c       0x6c drivers/usb/gadget/built-in.o
 .text.state_dfu_dnbusy
                0x000000008082adf8       0x16 drivers/usb/gadget/built-in.o
 .text.state_dfu_dnload_sync
                0x000000008082ae0e       0x26 drivers/usb/gadget/built-in.o
 .text.state_app_detach
                0x000000008082ae34       0x26 drivers/usb/gadget/built-in.o
 *fill*         0x000000008082ae5a        0x2 
 .text.state_app_idle
                0x000000008082ae5c       0x3c drivers/usb/gadget/built-in.o
 .text.state_dfu_upload_idle
                0x000000008082ae98       0x62 drivers/usb/gadget/built-in.o
 *fill*         0x000000008082aefa        0x2 
 .text.state_dfu_manifest
                0x000000008082aefc       0x44 drivers/usb/gadget/built-in.o
 .text.state_dfu_idle
                0x000000008082af40       0x8c drivers/usb/gadget/built-in.o
 .text.rx_bytes_expected
                0x000000008082afcc       0x3c drivers/usb/gadget/built-in.o
 .text.fastboot_complete
                0x000000008082b008       0x18 drivers/usb/gadget/built-in.o
 .text.fastboot_start_ep
                0x000000008082b020       0x3c drivers/usb/gadget/built-in.o
 .text.fastboot_unbind
                0x000000008082b05c       0x10 drivers/usb/gadget/built-in.o
 .text.fastboot_add
                0x000000008082b06c       0x88 drivers/usb/gadget/built-in.o
 .text.fastboot_disable
                0x000000008082b0f4       0x46 drivers/usb/gadget/built-in.o
 *fill*         0x000000008082b13a        0x2 
 .text.fastboot_set_alt
                0x000000008082b13c       0xd4 drivers/usb/gadget/built-in.o
 .text.do_exit_on_complete
                0x000000008082b210        0x4 drivers/usb/gadget/built-in.o
 .text.do_bootm_on_complete
                0x000000008082b214       0x4c drivers/usb/gadget/built-in.o
 .text.compl_do_reset
                0x000000008082b260        0xc drivers/usb/gadget/built-in.o
 .text.strcmp_l1
                0x000000008082b26c       0x22 drivers/usb/gadget/built-in.o
 *fill*         0x000000008082b28e        0x2 
 .text.fastboot_tx_write_str
                0x000000008082b290       0x4c drivers/usb/gadget/built-in.o
 .text.rx_handler_command
                0x000000008082b2dc       0xb0 drivers/usb/gadget/built-in.o
 .text.cb_oem   0x000000008082b38c       0x2c drivers/usb/gadget/built-in.o
 .text.cb_continue
                0x000000008082b3b8       0x1c drivers/usb/gadget/built-in.o
 .text.cb_boot  0x000000008082b3d4       0x1c drivers/usb/gadget/built-in.o
 .text.cb_download
                0x000000008082b3f0       0x90 drivers/usb/gadget/built-in.o
 .text.rx_handler_dl_image
                0x000000008082b480       0xc8 drivers/usb/gadget/built-in.o
 .text.cb_getvar
                0x000000008082b548      0x154 drivers/usb/gadget/built-in.o
 .text.fastboot_bind
                0x000000008082b69c       0xac drivers/usb/gadget/built-in.o
 .text.cb_reboot
                0x000000008082b748       0x40 drivers/usb/gadget/built-in.o
 .text.eth_suspend
                0x000000008082b788        0x2 drivers/usb/gadget/built-in.o
 .text.eth_resume
                0x000000008082b78a        0x2 drivers/usb/gadget/built-in.o
 .text.tx_complete
                0x000000008082b78c       0x68 drivers/usb/gadget/built-in.o
 .text.rndis_response_complete
                0x000000008082b7f4       0x20 drivers/usb/gadget/built-in.o
 .text.eth_setup_complete
                0x000000008082b814       0x20 drivers/usb/gadget/built-in.o
 .text.rx_complete
                0x000000008082b834       0xa4 drivers/usb/gadget/built-in.o
 .text.usb_eth_send
                0x000000008082b8d8      0x110 drivers/usb/gadget/built-in.o
 .text.rndis_command_complete
                0x000000008082b9e8       0x38 drivers/usb/gadget/built-in.o
 .text.eth_unbind
                0x000000008082ba20       0x6c drivers/usb/gadget/built-in.o
 .text.rndis_control_ack_complete
                0x000000008082ba8c       0x74 drivers/usb/gadget/built-in.o
 .text.rndis_control_ack
                0x000000008082bb00       0x74 drivers/usb/gadget/built-in.o
 .text.nibble   0x000000008082bb74       0x28 drivers/usb/gadget/built-in.o
 .text.get_ether_addr
                0x000000008082bb9c       0x68 drivers/usb/gadget/built-in.o
 .text.eth_bind
                0x000000008082bc04      0x3ac drivers/usb/gadget/built-in.o
 .text.usb_eth_probe
                0x000000008082bfb0       0x3c drivers/usb/gadget/built-in.o
 .text.eth_reset_config
                0x000000008082bfec       0x7c drivers/usb/gadget/built-in.o
 .text.eth_disconnect
                0x000000008082c068        0x6 drivers/usb/gadget/built-in.o
 *fill*         0x000000008082c06e        0x2 
 .text.usb_eth_recv
                0x000000008082c070       0x54 drivers/usb/gadget/built-in.o
 .text.set_ether_config.isra.15
                0x000000008082c0c4      0x148 drivers/usb/gadget/built-in.o
 .text.is_eth_addr_valid.part.17
                0x000000008082c20c       0x6c drivers/usb/gadget/built-in.o
 .text.rx_submit.constprop.18
                0x000000008082c278       0x80 drivers/usb/gadget/built-in.o
 .text.usb_eth_free_pkt
                0x000000008082c2f8       0x1c drivers/usb/gadget/built-in.o
 .text.eth_setup
                0x000000008082c314      0x3b0 drivers/usb/gadget/built-in.o
 .text.dm_usb_init
                0x000000008082c6c4       0x40 drivers/usb/gadget/built-in.o
                0x000000008082c6c4                dm_usb_init
 .text.usb_eth_start
                0x000000008082c704      0x1c4 drivers/usb/gadget/built-in.o
 .text._usb_eth_halt
                0x000000008082c8c8       0x6c drivers/usb/gadget/built-in.o
                0x000000008082c8c8                _usb_eth_halt
 .text.usb_eth_stop
                0x000000008082c934        0xe drivers/usb/gadget/built-in.o
 *fill*         0x000000008082c942        0x2 
 .text.usb_ether_init
                0x000000008082c944       0x58 drivers/usb/gadget/built-in.o
                0x000000008082c944                usb_ether_init
 .text.rndis_add_response
                0x000000008082c99c       0x38 drivers/usb/gadget/built-in.o
 .text.rndis_signal_connect
                0x000000008082c9d4       0x50 drivers/usb/gadget/built-in.o
                0x000000008082c9d4                rndis_signal_connect
 .text.rndis_signal_disconnect
                0x000000008082ca24       0x14 drivers/usb/gadget/built-in.o
                0x000000008082ca24                rndis_signal_disconnect
 .text.rndis_set_host_mac
                0x000000008082ca38       0x10 drivers/usb/gadget/built-in.o
                0x000000008082ca38                rndis_set_host_mac
 .text.rndis_get_state
                0x000000008082ca48       0x14 drivers/usb/gadget/built-in.o
                0x000000008082ca48                rndis_get_state
 .text.rndis_msg_parser
                0x000000008082ca5c      0x6c4 drivers/usb/gadget/built-in.o
                0x000000008082ca5c                rndis_msg_parser
 .text.rndis_register
                0x000000008082d120       0x3c drivers/usb/gadget/built-in.o
                0x000000008082d120                rndis_register
 .text.rndis_deregister
                0x000000008082d15c       0x2c drivers/usb/gadget/built-in.o
                0x000000008082d15c                rndis_deregister
 .text.rndis_set_param_dev
                0x000000008082d188       0x44 drivers/usb/gadget/built-in.o
                0x000000008082d188                rndis_set_param_dev
 .text.rndis_set_param_vendor
                0x000000008082d1cc       0x34 drivers/usb/gadget/built-in.o
                0x000000008082d1cc                rndis_set_param_vendor
 .text.rndis_set_param_medium
                0x000000008082d200       0x38 drivers/usb/gadget/built-in.o
                0x000000008082d200                rndis_set_param_medium
 .text.rndis_add_hdr
                0x000000008082d238       0x4e drivers/usb/gadget/built-in.o
                0x000000008082d238                rndis_add_hdr
 *fill*         0x000000008082d286        0x2 
 .text.rndis_free_response
                0x000000008082d288       0x4c drivers/usb/gadget/built-in.o
                0x000000008082d288                rndis_free_response
 .text.rndis_get_next_response
                0x000000008082d2d4       0x40 drivers/usb/gadget/built-in.o
                0x000000008082d2d4                rndis_get_next_response
 .text.rndis_uninit
                0x000000008082d314       0x30 drivers/usb/gadget/built-in.o
                0x000000008082d314                rndis_uninit
 .text.rndis_rm_hdr
                0x000000008082d344       0x94 drivers/usb/gadget/built-in.o
                0x000000008082d344                rndis_rm_hdr
 .text.rndis_init
                0x000000008082d3d8       0x1c drivers/usb/gadget/built-in.o
                0x000000008082d3d8                rndis_init
 .text.rndis_exit
                0x000000008082d3f4        0x2 drivers/usb/gadget/built-in.o
                0x000000008082d3f4                rndis_exit
 .text.usb_match_device
                0x000000008082d3f6       0x7c drivers/usb/host/built-in.o
 *fill*         0x000000008082d472        0x2 
 .text.usb_child_post_bind
                0x000000008082d474       0x50 drivers/usb/host/built-in.o
 .text.usb_match_one_id_intf.isra.2
                0x000000008082d4c4       0x50 drivers/usb/host/built-in.o
 .text.remove_inactive_children.isra.4
                0x000000008082d514       0x4a drivers/usb/host/built-in.o
 *fill*         0x000000008082d55e        0x2 
 .text.usb_disable_asynch
                0x000000008082d560       0x18 drivers/usb/host/built-in.o
                0x000000008082d560                usb_disable_asynch
 .text.submit_int_msg
                0x000000008082d578       0x2c drivers/usb/host/built-in.o
                0x000000008082d578                submit_int_msg
 .text.submit_control_msg
                0x000000008082d5a4       0x56 drivers/usb/host/built-in.o
                0x000000008082d5a4                submit_control_msg
 .text.submit_bulk_msg
                0x000000008082d5fa       0x28 drivers/usb/host/built-in.o
                0x000000008082d5fa                submit_bulk_msg
 .text.usb_alloc_device
                0x000000008082d622       0x18 drivers/usb/host/built-in.o
                0x000000008082d622                usb_alloc_device
 .text.usb_reset_root_port
                0x000000008082d63a       0x1a drivers/usb/host/built-in.o
                0x000000008082d63a                usb_reset_root_port
 .text.usb_update_hub_device
                0x000000008082d654       0x1a drivers/usb/host/built-in.o
                0x000000008082d654                usb_update_hub_device
 *fill*         0x000000008082d66e        0x2 
 .text.usb_stop
                0x000000008082d670       0x50 drivers/usb/host/built-in.o
                0x000000008082d670                usb_stop
 .text.usb_get_bus
                0x000000008082d6c0       0x40 drivers/usb/host/built-in.o
                0x000000008082d6c0                usb_get_bus
 .text.usb_scan_device
                0x000000008082d700      0x288 drivers/usb/host/built-in.o
                0x000000008082d700                usb_scan_device
 .text.usb_scan_bus.constprop.6
                0x000000008082d988       0x58 drivers/usb/host/built-in.o
 .text.usb_init
                0x000000008082d9e0      0x11c drivers/usb/host/built-in.o
                0x000000008082d9e0                usb_init
 .text.usb_child_pre_probe
                0x000000008082dafc       0x46 drivers/usb/host/built-in.o
                0x000000008082dafc                usb_child_pre_probe
 .text.musb_gadget_get_frame
                0x000000008082db42        0xe drivers/usb/musb-new/built-in.o
 .text.musb_gadget_wakeup
                0x000000008082db50        0x4 drivers/usb/musb-new/built-in.o
 .text.musb_gadget_set_self_powered
                0x000000008082db54       0x16 drivers/usb/musb-new/built-in.o
 .text.musb_gadget_vbus_draw
                0x000000008082db6a        0x4 drivers/usb/musb-new/built-in.o
 *fill*         0x000000008082db6e        0x2 
 .text.musb_gadget_fifo_flush
                0x000000008082db70       0x64 drivers/usb/musb-new/built-in.o
 .text.musb_gadget_fifo_status
                0x000000008082dbd4       0x34 drivers/usb/musb-new/built-in.o
 .text.musb_gadget_enable
                0x000000008082dc08      0x1f8 drivers/usb/musb-new/built-in.o
 .text.txstate  0x000000008082de00       0xdc drivers/usb/musb-new/built-in.o
 .text.musb_alloc_request
                0x000000008082dedc       0x34 drivers/usb/musb-new/built-in.o
                0x000000008082dedc                musb_alloc_request
 .text.musb_free_request
                0x000000008082df10        0x6 drivers/usb/musb-new/built-in.o
                0x000000008082df10                musb_free_request
 *fill*         0x000000008082df16        0x2 
 .text.init_peripheral_ep
                0x000000008082df18       0xb4 drivers/usb/musb-new/built-in.o
 .text.musb_gadget_pullup
                0x000000008082dfcc       0x60 drivers/usb/musb-new/built-in.o
 .text.musb_g_giveback
                0x000000008082e02c       0x64 drivers/usb/musb-new/built-in.o
                0x000000008082e02c                musb_g_giveback
 .text.rxstate  0x000000008082e090       0xd4 drivers/usb/musb-new/built-in.o
 .text.musb_gadget_dequeue
                0x000000008082e164       0x60 drivers/usb/musb-new/built-in.o
 .text.musb_gadget_disable
                0x000000008082e1c4       0x84 drivers/usb/musb-new/built-in.o
 .text.musb_g_tx
                0x000000008082e248      0x110 drivers/usb/musb-new/built-in.o
                0x000000008082e248                musb_g_tx
 .text.musb_g_rx
                0x000000008082e358       0xb8 drivers/usb/musb-new/built-in.o
                0x000000008082e358                musb_g_rx
 .text.musb_ep_restart
                0x000000008082e410       0x5c drivers/usb/musb-new/built-in.o
                0x000000008082e410                musb_ep_restart
 .text.musb_gadget_set_halt
                0x000000008082e46c      0x108 drivers/usb/musb-new/built-in.o
 .text.musb_gadget_queue
                0x000000008082e574       0xb8 drivers/usb/musb-new/built-in.o
 .text.musb_gadget_setup
                0x000000008082e62c       0x8c drivers/usb/musb-new/built-in.o
                0x000000008082e62c                musb_gadget_setup
 .text.musb_gadget_start
                0x000000008082e6b8       0x38 drivers/usb/musb-new/built-in.o
                0x000000008082e6b8                musb_gadget_start
 .text.musb_g_ep0_enable
                0x000000008082e6f0        0x6 drivers/usb/musb-new/built-in.o
 .text.musb_g_ep0_disable
                0x000000008082e6f6        0x6 drivers/usb/musb-new/built-in.o
 .text.musb_g_ep0_dequeue
                0x000000008082e6fc        0x6 drivers/usb/musb-new/built-in.o
 *fill*         0x000000008082e702        0x2 
 .text.musb_g_ep0_halt
                0x000000008082e704       0x7c drivers/usb/musb-new/built-in.o
 .text.ep0_txstate
                0x000000008082e780       0xac drivers/usb/musb-new/built-in.o
 .text.musb_g_ep0_queue
                0x000000008082e82c      0x104 drivers/usb/musb-new/built-in.o
 .text.musb_g_ep0_irq
                0x000000008082e930      0x720 drivers/usb/musb-new/built-in.o
                0x000000008082e930                musb_g_ep0_irq
 .text.fifo_setup
                0x000000008082f050      0x10e drivers/usb/musb-new/built-in.o
 *fill*         0x000000008082f15e        0x2 
 .text.musb_write_fifo
                0x000000008082f160       0x90 drivers/usb/musb-new/built-in.o
                0x000000008082f160                musb_write_fifo
 .text.musb_read_fifo
                0x000000008082f1f0       0x90 drivers/usb/musb-new/built-in.o
                0x000000008082f1f0                musb_read_fifo
 .text.musb_load_testpacket
                0x000000008082f280       0x24 drivers/usb/musb-new/built-in.o
                0x000000008082f280                musb_load_testpacket
 .text.musb_start
                0x000000008082f2a4       0x94 drivers/usb/musb-new/built-in.o
                0x000000008082f2a4                musb_start
 .text.musb_stop
                0x000000008082f338       0x3c drivers/usb/musb-new/built-in.o
                0x000000008082f338                musb_stop
 .text.musb_interrupt
                0x000000008082f374      0x110 drivers/usb/musb-new/built-in.o
                0x000000008082f374                musb_interrupt
 .text.musb_init_controller
                0x000000008082f484      0x594 drivers/usb/musb-new/built-in.o
                0x000000008082f484                musb_init_controller
 .text.musb_host_complete_urb
                0x000000008082fa18       0x16 drivers/usb/musb-new/built-in.o
 *fill*         0x000000008082fa2e        0x2 
 .text.construct_urb
                0x000000008082fa30       0x88 drivers/usb/musb-new/built-in.o
 .text.musb_create_int_queue
                0x000000008082fab8       0xb0 drivers/usb/musb-new/built-in.o
 .text.submit_urb
                0x000000008082fb68       0x80 drivers/usb/musb-new/built-in.o
 .text.musb_submit_int_msg
                0x000000008082fbe8       0x4a drivers/usb/musb-new/built-in.o
 .text.musb_submit_bulk_msg
                0x000000008082fc32       0x44 drivers/usb/musb-new/built-in.o
 .text.musb_submit_control_msg
                0x000000008082fc76       0x7c drivers/usb/musb-new/built-in.o
 .text.musb_poll_int_queue
                0x000000008082fcf2       0x26 drivers/usb/musb-new/built-in.o
 .text._musb_reset_root_port.isra.1
                0x000000008082fd18       0x6a drivers/usb/musb-new/built-in.o
 .text.musb_reset_root_port
                0x000000008082fd82        0xe drivers/usb/musb-new/built-in.o
 .text.musb_destroy_int_queue
                0x000000008082fd90       0x48 drivers/usb/musb-new/built-in.o
 .text.musb_lowlevel_init
                0x000000008082fdd8       0x78 drivers/usb/musb-new/built-in.o
                0x000000008082fdd8                musb_lowlevel_init
 .text.usb_gadget_handle_interrupts
                0x000000008082fe50       0x24 drivers/usb/musb-new/built-in.o
                0x000000008082fe50                usb_gadget_handle_interrupts
 .text.usb_gadget_register_driver
                0x000000008082fe74       0x80 drivers/usb/musb-new/built-in.o
                0x000000008082fe74                usb_gadget_register_driver
 .text.usb_gadget_unregister_driver
                0x000000008082fef4       0x28 drivers/usb/musb-new/built-in.o
                0x000000008082fef4                usb_gadget_unregister_driver
 .text.musb_h_tx_flush_fifo
                0x000000008082ff1c       0x5c drivers/usb/musb-new/built-in.o
 .text.musb_h_ep0_flush_fifo
                0x000000008082ff78       0x38 drivers/usb/musb-new/built-in.o
 .text.musb_giveback.isra.9
                0x000000008082ffb0       0x60 drivers/usb/musb-new/built-in.o
 .text.musb_start_urb
                0x0000000080830010      0x448 drivers/usb/musb-new/built-in.o
 .text.musb_advance_schedule
                0x0000000080830458      0x150 drivers/usb/musb-new/built-in.o
 .text.musb_h_ep0_irq
                0x00000000808305a8      0x270 drivers/usb/musb-new/built-in.o
                0x00000000808305a8                musb_h_ep0_irq
 .text.musb_host_tx
                0x0000000080830818      0x194 drivers/usb/musb-new/built-in.o
                0x0000000080830818                musb_host_tx
 .text.musb_host_rx
                0x00000000808309ac      0x370 drivers/usb/musb-new/built-in.o
                0x00000000808309ac                musb_host_rx
 .text.musb_urb_enqueue
                0x0000000080830d1c      0x38c drivers/usb/musb-new/built-in.o
                0x0000000080830d1c                musb_urb_enqueue
 .text.musb_urb_dequeue
                0x00000000808310a8       0xfc drivers/usb/musb-new/built-in.o
                0x00000000808310a8                musb_urb_dequeue
 .text.dsps_musb_enable
                0x00000000808311a4       0x1c drivers/usb/musb-new/built-in.o
 .text.dsps_musb_disable
                0x00000000808311c0        0x2 drivers/usb/musb-new/built-in.o
 *fill*         0x00000000808311c2        0x2 
 .text.dsps_musb_init
                0x00000000808311c4       0x50 drivers/usb/musb-new/built-in.o
 .text.dsps_musb_exit
                0x0000000080831214       0x14 drivers/usb/musb-new/built-in.o
 .text.dsps_interrupt
                0x0000000080831228       0x70 drivers/usb/musb-new/built-in.o
 .text.ti_musb_set_phy_power
                0x0000000080831298       0x24 drivers/usb/musb-new/built-in.o
 .text.ti_musb_host_ofdata_to_platdata
                0x00000000808312bc      0x140 drivers/usb/musb-new/built-in.o
 .text.ti_musb_host_remove
                0x00000000808313fc       0x10 drivers/usb/musb-new/built-in.o
 .text.ti_musb_host_probe
                0x000000008083140c       0x3e drivers/usb/musb-new/built-in.o
 *fill*         0x000000008083144a        0x2 
 .text.ti_musb_wrapper_bind
                0x000000008083144c       0x80 drivers/usb/musb-new/built-in.o
 .text.env_get_yesno
                0x00000000808314cc       0x2a env/built-in.o
                0x00000000808314cc                env_get_yesno
 .text.env_get_default
                0x00000000808314f6       0x20 env/built-in.o
                0x00000000808314f6                env_get_default
 *fill*         0x0000000080831516        0x2 
 .text.set_default_env
                0x0000000080831518       0x88 env/built-in.o
                0x0000000080831518                set_default_env
 .text.set_default_vars
                0x00000000808315a0       0x28 env/built-in.o
                0x00000000808315a0                set_default_vars
 .text.env_import
                0x00000000808315c8       0x94 env/built-in.o
                0x00000000808315c8                env_import
 .text.env_export
                0x000000008083165c       0x68 env/built-in.o
                0x000000008083165c                env_export
 .text.env_relocate
                0x00000000808316c4       0x28 env/built-in.o
                0x00000000808316c4                env_relocate
 .text.env_complete
                0x00000000808316ec       0x94 env/built-in.o
                0x00000000808316ec                env_complete
 .text.env_driver_lookup_default
                0x0000000080831780       0x3c env/built-in.o
                0x0000000080831780                env_driver_lookup_default
 .text.env_get_char
                0x00000000808317bc       0x48 env/built-in.o
                0x00000000808317bc                env_get_char
 .text.env_load
                0x0000000080831804       0x30 env/built-in.o
                0x0000000080831804                env_load
 .text.env_save
                0x0000000080831834       0x38 env/built-in.o
                0x0000000080831834                env_save
 .text.env_init
                0x000000008083186c       0x48 env/built-in.o
                0x000000008083186c                env_init
 .text.regex_callback
                0x00000000808318b4       0xd8 env/built-in.o
 .text.env_attr_walk
                0x000000008083198c       0xb4 env/built-in.o
                0x000000008083198c                env_attr_walk
 .text.env_attr_lookup
                0x0000000080831a40       0x50 env/built-in.o
                0x0000000080831a40                env_attr_lookup
 .text.clear_callback
                0x0000000080831a90        0x8 env/built-in.o
 .text.find_env_callback
                0x0000000080831a98       0x44 env/built-in.o
 .text.on_callbacks
                0x0000000080831adc       0x38 env/built-in.o
 .text.set_callback
                0x0000000080831b14       0x50 env/built-in.o
 .text.env_callback_init
                0x0000000080831b64       0x78 env/built-in.o
                0x0000000080831b64                env_callback_init
 .text.skip_num
                0x0000000080831bdc       0x48 env/built-in.o
 .text.clear_flags
                0x0000000080831c24        0x8 env/built-in.o
 .text.on_flags
                0x0000000080831c2c       0x38 env/built-in.o
 .text.env_flags_parse_vartype
                0x0000000080831c64       0x30 env/built-in.o
                0x0000000080831c64                env_flags_parse_vartype
 .text.env_flags_parse_varaccess
                0x0000000080831c94       0x38 env/built-in.o
                0x0000000080831c94                env_flags_parse_varaccess
 .text.set_flags
                0x0000000080831ccc       0x68 env/built-in.o
 .text.eth_validate_ethaddr_str
                0x0000000080831d34       0x50 env/built-in.o
                0x0000000080831d34                eth_validate_ethaddr_str
 .text.env_flags_init
                0x0000000080831d84       0x90 env/built-in.o
                0x0000000080831d84                env_flags_init
 .text.env_flags_validate
                0x0000000080831e14      0x1b8 env/built-in.o
                0x0000000080831e14                env_flags_validate
 .text.env_fat_save
                0x0000000080831fcc       0xb0 env/built-in.o
 .text.env_fat_load
                0x000000008083207c       0xa0 env/built-in.o
 .text.fs_probe_unsupported
                0x000000008083211c       0x14 fs/built-in.o
 .text.fs_ls_unsupported
                0x0000000080832130        0x6 fs/built-in.o
 .text.fs_exists_unsupported
                0x0000000080832136        0x4 fs/built-in.o
 .text.fs_size_unsupported
                0x000000008083213a        0x6 fs/built-in.o
 .text.fs_read_unsupported
                0x0000000080832140        0x6 fs/built-in.o
 .text.fs_write_unsupported
                0x0000000080832146        0x6 fs/built-in.o
 .text.fs_close_unsupported
                0x000000008083214c        0x2 fs/built-in.o
 .text.fs_uuid_unsupported
                0x000000008083214e        0x6 fs/built-in.o
 .text.fs_get_info
                0x0000000080832154       0x24 fs/built-in.o
 .text.fs_close
                0x0000000080832178       0x18 fs/built-in.o
 .text.fs_set_blk_dev
                0x0000000080832190       0x6c fs/built-in.o
                0x0000000080832190                fs_set_blk_dev
 .text.fs_ls    0x00000000808321fc       0x24 fs/built-in.o
                0x00000000808321fc                fs_ls
 .text.fs_exists
                0x0000000080832220       0x20 fs/built-in.o
                0x0000000080832220                fs_exists
 .text.fs_size  0x0000000080832240       0x24 fs/built-in.o
                0x0000000080832240                fs_size
 .text.fs_read  0x0000000080832264       0x64 fs/built-in.o
                0x0000000080832264                fs_read
 .text.fs_write
                0x00000000808322c8       0x64 fs/built-in.o
                0x00000000808322c8                fs_write
 .text.do_size  0x000000008083232c       0x40 fs/built-in.o
                0x000000008083232c                do_size
 .text.do_load  0x000000008083236c      0x188 fs/built-in.o
                0x000000008083236c                do_load
 .text.do_ls    0x00000000808324f4       0x44 fs/built-in.o
                0x00000000808324f4                do_ls
 .text.file_exists
                0x0000000080832538       0x1a fs/built-in.o
                0x0000000080832538                file_exists
 *fill*         0x0000000080832552        0x2 
 .text.do_save  0x0000000080832554      0x108 fs/built-in.o
                0x0000000080832554                do_save
 .text.do_fs_type
                0x000000008083265c       0x50 fs/built-in.o
                0x000000008083265c                do_fs_type
 .text.get_fs   0x00000000808326ac        0x8 fs/built-in.o
                0x00000000808326ac                get_fs
 .text.ext4fs_free_node
                0x00000000808326b4       0x1c fs/built-in.o
                0x00000000808326b4                ext4fs_free_node
 .text.ext4fs_read_file
                0x00000000808326d0      0x278 fs/built-in.o
                0x00000000808326d0                ext4fs_read_file
 .text.ext4fs_ls
                0x0000000080832948       0x4c fs/built-in.o
                0x0000000080832948                ext4fs_ls
 .text.ext4fs_exists
                0x0000000080832994       0x16 fs/built-in.o
                0x0000000080832994                ext4fs_exists
 .text.ext4fs_size
                0x00000000808329aa        0x4 fs/built-in.o
                0x00000000808329aa                ext4fs_size
 *fill*         0x00000000808329ae        0x2 
 .text.ext4fs_read
                0x00000000808329b0       0x38 fs/built-in.o
                0x00000000808329b0                ext4fs_read
 .text.ext4fs_probe
                0x00000000808329e8       0x1e fs/built-in.o
                0x00000000808329e8                ext4fs_probe
 *fill*         0x0000000080832a06        0x2 
 .text.ext4_read_file
                0x0000000080832a08       0x50 fs/built-in.o
                0x0000000080832a08                ext4_read_file
 .text.ext4fs_uuid
                0x0000000080832a58       0x20 fs/built-in.o
                0x0000000080832a58                ext4fs_uuid
 .text.ext4fs_get_group_descriptor
                0x0000000080832a78        0xa fs/built-in.o
                0x0000000080832a78                ext4fs_get_group_descriptor
 .text.ext4fs_sb_get_free_blocks
                0x0000000080832a82       0x16 fs/built-in.o
                0x0000000080832a82                ext4fs_sb_get_free_blocks
 .text.ext4fs_sb_set_free_blocks
                0x0000000080832a98        0xc fs/built-in.o
                0x0000000080832a98                ext4fs_sb_set_free_blocks
 .text.ext4fs_bg_get_free_blocks
                0x0000000080832aa4       0x12 fs/built-in.o
                0x0000000080832aa4                ext4fs_bg_get_free_blocks
 .text.ext4fs_bg_get_block_id
                0x0000000080832ab6       0x1c fs/built-in.o
                0x0000000080832ab6                ext4fs_bg_get_block_id
 .text.ext4fs_bg_get_inode_id
                0x0000000080832ad2       0x1c fs/built-in.o
                0x0000000080832ad2                ext4fs_bg_get_inode_id
 .text.ext4fs_bg_get_inode_table_id
                0x0000000080832aee       0x1c fs/built-in.o
                0x0000000080832aee                ext4fs_bg_get_inode_table_id
 .text.ext4fs_div_roundup
                0x0000000080832b0a       0x14 fs/built-in.o
                0x0000000080832b0a                ext4fs_div_roundup
 *fill*         0x0000000080832b1e        0x2 
 .text.put_ext4
                0x0000000080832b20      0x120 fs/built-in.o
                0x0000000080832b20                put_ext4
 .text.ext4fs_set_block_bmap
                0x0000000080832c40       0x78 fs/built-in.o
                0x0000000080832c40                ext4fs_set_block_bmap
 .text.ext4fs_reset_block_bmap
                0x0000000080832cb8       0x70 fs/built-in.o
                0x0000000080832cb8                ext4fs_reset_block_bmap
 .text.ext4fs_set_inode_bmap
                0x0000000080832d28       0x58 fs/built-in.o
                0x0000000080832d28                ext4fs_set_inode_bmap
 .text.ext4fs_reset_inode_bmap
                0x0000000080832d80       0x54 fs/built-in.o
                0x0000000080832d80                ext4fs_reset_inode_bmap
 .text.ext4fs_checksum_update
                0x0000000080832dd4       0x60 fs/built-in.o
                0x0000000080832dd4                ext4fs_checksum_update
 .text.ext4fs_get_new_blk_no
                0x0000000080832e34      0x314 fs/built-in.o
                0x0000000080832e34                ext4fs_get_new_blk_no
 .text.ext4fs_get_new_inode_no
                0x0000000080833148      0x2c0 fs/built-in.o
                0x0000000080833148                ext4fs_get_new_inode_no
 .text.ext4fs_allocate_blocks
                0x0000000080833408      0x4bc fs/built-in.o
                0x0000000080833408                ext4fs_allocate_blocks
 .text.ext4fs_read_inode
                0x00000000808338c4      0x100 fs/built-in.o
                0x00000000808338c4                ext4fs_read_inode
 .text.ext4fs_iget
                0x00000000808339c4       0x20 fs/built-in.o
                0x00000000808339c4                ext4fs_iget
 .text.read_allocated_block
                0x00000000808339e4      0x648 fs/built-in.o
                0x00000000808339e4                read_allocated_block
 .text.ext4fs_update_parent_dentry
                0x000000008083402c      0x250 fs/built-in.o
                0x000000008083402c                ext4fs_update_parent_dentry
 .text.search_dir
                0x000000008083427c       0xc8 fs/built-in.o
 .text.ext4fs_get_parent_inode_num
                0x0000000080834344      0x2e4 fs/built-in.o
                0x0000000080834344                ext4fs_get_parent_inode_num
 .text.ext4fs_filename_unlink
                0x0000000080834628      0x114 fs/built-in.o
                0x0000000080834628                ext4fs_filename_unlink
 .text.ext4fs_reinit_global
                0x000000008083473c       0x78 fs/built-in.o
                0x000000008083473c                ext4fs_reinit_global
 .text.ext4fs_close
                0x00000000808347b4       0x38 fs/built-in.o
                0x00000000808347b4                ext4fs_close
 .text.ext4fs_iterate_dir
                0x00000000808347ec      0x1f8 fs/built-in.o
                0x00000000808347ec                ext4fs_iterate_dir
 .text.ext4fs_find_file1
                0x00000000808349e4      0x1cc fs/built-in.o
 .text.ext4fs_find_file
                0x0000000080834bb0       0x40 fs/built-in.o
                0x0000000080834bb0                ext4fs_find_file
 .text.ext4fs_open
                0x0000000080834bf0       0x68 fs/built-in.o
                0x0000000080834bf0                ext4fs_open
 .text.ext4fs_mount
                0x0000000080834c58       0xbc fs/built-in.o
                0x0000000080834c58                ext4fs_mount
 .text.ext4fs_set_blk_dev
                0x0000000080834d14       0x70 fs/built-in.o
                0x0000000080834d14                ext4fs_set_blk_dev
 .text.ext4fs_devread
                0x0000000080834d84      0x1c8 fs/built-in.o
                0x0000000080834d84                ext4fs_devread
 .text.ext4_read_superblock
                0x0000000080834f4c       0x2a fs/built-in.o
                0x0000000080834f4c                ext4_read_superblock
 *fill*         0x0000000080834f76        0x2 
 .text.ext4fs_update
                0x0000000080834f78       0xdc fs/built-in.o
 .text.ext4fs_get_bgdtable
                0x0000000080835054       0x74 fs/built-in.o
                0x0000000080835054                ext4fs_get_bgdtable
 .text.ext4fs_deinit
                0x00000000808350c8       0xf8 fs/built-in.o
                0x00000000808350c8                ext4fs_deinit
 .text.ext4fs_init
                0x00000000808351c0      0x1dc fs/built-in.o
                0x00000000808351c0                ext4fs_init
 .text.ext4fs_write
                0x000000008083539c      0xcc8 fs/built-in.o
                0x000000008083539c                ext4fs_write
 .text.ext4_write_file
                0x0000000080836064       0x48 fs/built-in.o
                0x0000000080836064                ext4_write_file
 .text.ext4fs_dump_metadata
                0x00000000808360ac       0x40 fs/built-in.o
                0x00000000808360ac                ext4fs_dump_metadata
 .text.ext4fs_free_journal
                0x00000000808360ec       0x80 fs/built-in.o
                0x00000000808360ec                ext4fs_free_journal
 .text.ext4fs_log_gdt
                0x000000008083616c       0x84 fs/built-in.o
                0x000000008083616c                ext4fs_log_gdt
 .text.ext4fs_log_journal
                0x00000000808361f0       0x9c fs/built-in.o
                0x00000000808361f0                ext4fs_log_journal
 .text.ext4fs_put_metadata
                0x000000008083628c       0xac fs/built-in.o
                0x000000008083628c                ext4fs_put_metadata
 .text.ext4fs_push_revoke_blk
                0x0000000080836338       0x98 fs/built-in.o
                0x0000000080836338                ext4fs_push_revoke_blk
 .text.ext4fs_free_revoke_blks
                0x00000000808363d0       0x3c fs/built-in.o
                0x00000000808363d0                ext4fs_free_revoke_blks
 .text.check_blknr_for_revoke
                0x000000008083640c       0x3c fs/built-in.o
                0x000000008083640c                check_blknr_for_revoke
 .text.recover_transaction
                0x0000000080836448       0xf0 fs/built-in.o
                0x0000000080836448                recover_transaction
 .text.print_jrnl_status
                0x0000000080836538       0x14 fs/built-in.o
                0x0000000080836538                print_jrnl_status
 .text.ext4fs_check_journal_state
                0x000000008083654c      0x254 fs/built-in.o
                0x000000008083654c                ext4fs_check_journal_state
 .text.ext4fs_init_journal
                0x00000000808367a0      0x1a0 fs/built-in.o
                0x00000000808367a0                ext4fs_init_journal
 .text.ext4fs_update_journal
                0x0000000080836940      0x22c fs/built-in.o
                0x0000000080836940                ext4fs_update_journal
 .text.ext2fs_crc16
                0x0000000080836b6c       0x24 fs/built-in.o
                0x0000000080836b6c                ext2fs_crc16
 .text.downcase
                0x0000000080836b90       0x20 fs/built-in.o
 .text.disk_read
                0x0000000080836bb0       0x30 fs/built-in.o
 .text.mkcksum  0x0000000080836be0       0x34 fs/built-in.o
 .text.disk_write
                0x0000000080836c14       0x4c fs/built-in.o
 .text.flush_dirty_fat_buffer
                0x0000000080836c60       0x88 fs/built-in.o
 .text.get_fatent
                0x0000000080836ce8      0x138 fs/built-in.o
 .text.find_empty_cluster
                0x0000000080836e20       0x18 fs/built-in.o
 .text.set_fatent_value
                0x0000000080836e38      0x148 fs/built-in.o
 .text.get_cluster
                0x0000000080836f80      0x114 fs/built-in.o
 .text.get_name
                0x0000000080837094       0x70 fs/built-in.o
 .text.set_cluster
                0x0000000080837104      0x11c fs/built-in.o
 .text.read_bootsectandvi
                0x0000000080837220       0xd4 fs/built-in.o
 .text.set_name
                0x00000000808372f4       0xd8 fs/built-in.o
 .text.check_overflow
                0x00000000808373cc       0x68 fs/built-in.o
 .text.slot2str
                0x0000000080837434       0x58 fs/built-in.o
 .text.get_vfatname
                0x000000008083748c      0x134 fs/built-in.o
 .text.flush_dir_table.constprop.11
                0x00000000808375c0       0x94 fs/built-in.o
 .text.do_fat_write
                0x0000000080837654      0x978 fs/built-in.o
 .text.fat_set_blk_dev
                0x0000000080837fcc       0x8c fs/built-in.o
                0x0000000080837fcc                fat_set_blk_dev
 .text.do_fat_read_at
                0x0000000080838058      0xa90 fs/built-in.o
                0x0000000080838058                do_fat_read_at
 .text.do_fat_read
                0x0000000080838ae8       0x24 fs/built-in.o
                0x0000000080838ae8                do_fat_read
 .text.file_fat_detectfs
                0x0000000080838b0c       0xd4 fs/built-in.o
                0x0000000080838b0c                file_fat_detectfs
 .text.file_fat_ls
                0x0000000080838be0       0x1a fs/built-in.o
                0x0000000080838be0                file_fat_ls
 .text.fat_exists
                0x0000000080838bfa       0x2c fs/built-in.o
                0x0000000080838bfa                fat_exists
 .text.fat_size
                0x0000000080838c26       0x20 fs/built-in.o
                0x0000000080838c26                fat_size
 *fill*         0x0000000080838c46        0x2 
 .text.file_fat_read_at
                0x0000000080838c48       0x3c fs/built-in.o
                0x0000000080838c48                file_fat_read_at
 .text.file_fat_read
                0x0000000080838c84       0x22 fs/built-in.o
                0x0000000080838c84                file_fat_read
 *fill*         0x0000000080838ca6        0x2 
 .text.fat_read_file
                0x0000000080838ca8       0x30 fs/built-in.o
                0x0000000080838ca8                fat_read_file
 .text.fat_close
                0x0000000080838cd8        0x2 fs/built-in.o
                0x0000000080838cd8                fat_close
 *fill*         0x0000000080838cda        0x2 
 .text.file_fat_write
                0x0000000080838cdc       0x44 fs/built-in.o
                0x0000000080838cdc                file_fat_write
 .text.efi_load_pe
                0x0000000080838d20      0x1e4 lib/built-in.o
                0x0000000080838d20                efi_load_pe
 .text.efi_install_protocol_interface.part.1
                0x0000000080838f04       0x68 lib/built-in.o
 .text.efi_uninstall_protocol_interface.isra.2.part.3
                0x0000000080838f6c       0x5c lib/built-in.o
 .text.efi_search.isra.4.part.5
                0x0000000080838fc8       0x28 lib/built-in.o
 .text.efi_locate_handle.isra.6
                0x0000000080838ff0       0x7c lib/built-in.o
 .text.__efi_entry_check
                0x000000008083906c       0x4c lib/built-in.o
                0x000000008083906c                __efi_entry_check
 .text.__efi_exit_check
                0x00000000808390b8       0x20 lib/built-in.o
                0x00000000808390b8                __efi_exit_check
 .text.efi_save_gd
                0x00000000808390d8        0xc lib/built-in.o
                0x00000000808390d8                efi_save_gd
 .text.efi_restore_gd
                0x00000000808390e4       0x10 lib/built-in.o
                0x00000000808390e4                efi_restore_gd
 .text.__efi_nesting_inc
                0x00000000808390f4       0x28 lib/built-in.o
                0x00000000808390f4                __efi_nesting_inc
 .text.efi_set_mem
                0x000000008083911c       0x50 lib/built-in.o
 .text.efi_copy_mem
                0x000000008083916c       0x50 lib/built-in.o
 .text.efi_exit
                0x00000000808391bc       0x5c lib/built-in.o
 .text.__efi_nesting_dec
                0x0000000080839218       0x28 lib/built-in.o
                0x0000000080839218                __efi_nesting_dec
 .text.efi_calculate_crc32
                0x0000000080839240       0x7c lib/built-in.o
 .text.efi_uninstall_multiple_protocol_interfaces
                0x00000000808392bc       0x74 lib/built-in.o
 .text.efi_install_multiple_protocol_interfaces
                0x0000000080839330      0x114 lib/built-in.o
 .text.efi_locate_protocol
                0x0000000080839444      0x120 lib/built-in.o
 .text.efi_locate_handle_buffer
                0x0000000080839564       0xd8 lib/built-in.o
 .text.efi_protocols_per_handle
                0x000000008083963c      0x12c lib/built-in.o
 .text.efi_open_protocol_information
                0x0000000080839768       0x7c lib/built-in.o
 .text.efi_close_protocol
                0x00000000808397e4       0x7c lib/built-in.o
 .text.efi_open_protocol
                0x0000000080839860      0x118 lib/built-in.o
 .text.efi_handle_protocol
                0x0000000080839978       0x12 lib/built-in.o
 *fill*         0x000000008083998a        0x2 
 .text.efi_disconnect_controller
                0x000000008083998c       0x78 lib/built-in.o
 .text.efi_connect_controller
                0x0000000080839a04       0x7c lib/built-in.o
 .text.efi_unsupported
                0x0000000080839a80       0x48 lib/built-in.o
 .text.efi_set_watchdog_timer
                0x0000000080839ac8       0x5c lib/built-in.o
 .text.efi_restore_tpl
                0x0000000080839b24       0x40 lib/built-in.o
 .text.efi_stall
                0x0000000080839b64       0x70 lib/built-in.o
 .text.efi_get_next_monotonic_count
                0x0000000080839bd4       0x80 lib/built-in.o
 .text.efi_exit_boot_services
                0x0000000080839c54       0x88 lib/built-in.o
 .text.efi_unload_image
                0x0000000080839cdc       0x90 lib/built-in.o
 .text.efi_start_image
                0x0000000080839d6c       0xdc lib/built-in.o
 .text.efi_load_image
                0x0000000080839e48      0x114 lib/built-in.o
 .text.efi_locate_device_path
                0x0000000080839f5c       0x78 lib/built-in.o
 .text.efi_locate_handle_ext
                0x0000000080839fd4       0x90 lib/built-in.o
 .text.efi_register_protocol_notify
                0x000000008083a064       0x78 lib/built-in.o
 .text.efi_uninstall_protocol_interface_ext
                0x000000008083a0dc       0x8c lib/built-in.o
 .text.efi_reinstall_protocol_interface
                0x000000008083a168       0x7c lib/built-in.o
 .text.efi_install_protocol_interface_ext
                0x000000008083a1e4       0x94 lib/built-in.o
 .text.efi_close_event
                0x000000008083a278       0xc4 lib/built-in.o
 .text.efi_free_pool_ext
                0x000000008083a33c       0x70 lib/built-in.o
 .text.efi_allocate_pool_ext
                0x000000008083a3ac       0x7c lib/built-in.o
 .text.efi_get_memory_map_ext
                0x000000008083a428       0x94 lib/built-in.o
 .text.efi_free_pages_ext
                0x000000008083a4bc       0x7c lib/built-in.o
 .text.efi_allocate_pages_ext
                0x000000008083a538       0x84 lib/built-in.o
 .text.efi_raise_tpl
                0x000000008083a5bc       0x64 lib/built-in.o
 .text.efi_signal_event
                0x000000008083a620       0x7c lib/built-in.o
                0x000000008083a620                efi_signal_event
 .text.efi_signal_event_ext
                0x000000008083a69c       0x88 lib/built-in.o
 .text.efi_create_event
                0x000000008083a724       0x5c lib/built-in.o
                0x000000008083a724                efi_create_event
 .text.efi_create_event_ext
                0x000000008083a780       0x8c lib/built-in.o
 .text.efi_timer_check
                0x000000008083a80c       0x5c lib/built-in.o
                0x000000008083a80c                efi_timer_check
 .text.efi_check_event
                0x000000008083a868       0xf4 lib/built-in.o
 .text.efi_wait_for_event
                0x000000008083a95c      0x134 lib/built-in.o
 .text.efi_set_timer
                0x000000008083aa90       0xe0 lib/built-in.o
                0x000000008083aa90                efi_set_timer
 .text.efi_set_timer_ext
                0x000000008083ab70       0x88 lib/built-in.o
 .text.efi_install_configuration_table
                0x000000008083abf8       0x98 lib/built-in.o
                0x000000008083abf8                efi_install_configuration_table
 .text.efi_install_configuration_table_ext
                0x000000008083ac90       0x7c lib/built-in.o
 .text.efi_get_time_boottime
                0x000000008083ad0c        0x8 lib/built-in.o
 .text.efi_reset_system_boottime
                0x000000008083ad14       0x58 lib/built-in.o
 .text.efi_reset_system_init
                0x000000008083ad6c        0x2 lib/built-in.o
                0x000000008083ad6c                efi_reset_system_init
 .text.efi_get_time_init
                0x000000008083ad6e        0x2 lib/built-in.o
                0x000000008083ad6e                efi_get_time_init
 .text.efi_runtime_relocate
                0x000000008083ad70       0xfc lib/built-in.o
                0x000000008083ad70                efi_runtime_relocate
 .text.efi_set_virtual_address_map
                0x000000008083ae6c      0x19c lib/built-in.o
 .text.efi_key_notify
                0x000000008083b008        0x2 lib/built-in.o
 *fill*         0x000000008083b00a        0x2 
 .text.efi_cin_get_mode
                0x000000008083b00c       0x88 lib/built-in.o
 .text.efi_cout_set_mode
                0x000000008083b094       0xb8 lib/built-in.o
 .text.efi_cout_output_string
                0x000000008083b14c      0x100 lib/built-in.o
 .text.efi_cin_read_key_stroke
                0x000000008083b24c      0x144 lib/built-in.o
 .text.efi_cin_lock_std_in
                0x000000008083b390       0x70 lib/built-in.o
 .text.efi_cin_set_mode
                0x000000008083b400       0x70 lib/built-in.o
 .text.efi_cout_enable_cursor
                0x000000008083b470       0x80 lib/built-in.o
 .text.efi_cout_set_cursor_position
                0x000000008083b4f0       0x8c lib/built-in.o
 .text.efi_cout_clear_screen
                0x000000008083b57c       0x74 lib/built-in.o
 .text.efi_cout_set_attribute
                0x000000008083b5f0       0x74 lib/built-in.o
 .text.efi_cout_test_string
                0x000000008083b664       0x6c lib/built-in.o
 .text.efi_cout_reset
                0x000000008083b6d0       0x70 lib/built-in.o
 .text.efi_cin_reset
                0x000000008083b740       0x74 lib/built-in.o
 .text.efi_console_timer_notify
                0x000000008083b7b4       0x84 lib/built-in.o
 .text.efi_cout_query_mode
                0x000000008083b838      0x200 lib/built-in.o
 .text.efi_console_register
                0x000000008083ba38       0x9c lib/built-in.o
                0x000000008083ba38                efi_console_register
 .text.efi_mem_cmp
                0x000000008083bad4       0x20 lib/built-in.o
 .text.efi_find_free_memory
                0x000000008083baf4       0x7c lib/built-in.o
 .text.efi_add_memory_map
                0x000000008083bb70      0x268 lib/built-in.o
                0x000000008083bb70                efi_add_memory_map
 .text.efi_allocate_pages
                0x000000008083bdd8       0x80 lib/built-in.o
                0x000000008083bdd8                efi_allocate_pages
 .text.efi_alloc
                0x000000008083be58       0x38 lib/built-in.o
                0x000000008083be58                efi_alloc
 .text.efi_free_pages
                0x000000008083be90       0x2c lib/built-in.o
                0x000000008083be90                efi_free_pages
 .text.efi_allocate_pool
                0x000000008083bebc       0x32 lib/built-in.o
                0x000000008083bebc                efi_allocate_pool
 *fill*         0x000000008083beee        0x2 
 .text.efi_free_pool
                0x000000008083bef0       0x44 lib/built-in.o
                0x000000008083bef0                efi_free_pool
 .text.efi_get_memory_map
                0x000000008083bf34       0x78 lib/built-in.o
                0x000000008083bf34                efi_get_memory_map
 .text.efi_add_known_memory
                0x000000008083bfac       0x44 lib/built-in.o
                0x000000008083bfac                efi_add_known_memory
 .text.efi_memory_init
                0x000000008083bff0       0x60 lib/built-in.o
                0x000000008083bff0                efi_memory_init
 .text.efi_convert_device_node_to_text.isra.0
                0x000000008083c050       0xc8 lib/built-in.o
 .text.efi_convert_device_path_to_text
                0x000000008083c118       0x78 lib/built-in.o
 .text.efi_convert_device_node_to_text_ext
                0x000000008083c190       0x78 lib/built-in.o
 .text.efi_disk_add_dev.part.3
                0x000000008083c208       0xe4 lib/built-in.o
 .text.efi_disk_flush_blocks
                0x000000008083c2ec       0x64 lib/built-in.o
 .text.efi_disk_reset
                0x000000008083c350       0x70 lib/built-in.o
 .text.efi_disk_rw_blocks.isra.6
                0x000000008083c3c0       0x94 lib/built-in.o
 .text.efi_disk_write_blocks
                0x000000008083c454       0xa0 lib/built-in.o
 .text.efi_disk_read_blocks
                0x000000008083c4f4       0xa0 lib/built-in.o
 .text.efi_disk_register
                0x000000008083c594       0xe0 lib/built-in.o
                0x000000008083c594                efi_disk_register
 .text.efi_net_push
                0x000000008083c674        0xc lib/built-in.o
 .text.efi_net_receive
                0x000000008083c680      0x130 lib/built-in.o
 .text.efi_net_get_status
                0x000000008083c7b0       0x84 lib/built-in.o
 .text.efi_net_transmit
                0x000000008083c834       0xc0 lib/built-in.o
 .text.efi_net_nvdata
                0x000000008083c8f4       0x7c lib/built-in.o
 .text.efi_net_mcastiptomac
                0x000000008083c970       0x78 lib/built-in.o
 .text.efi_net_statistics
                0x000000008083c9e8       0x78 lib/built-in.o
 .text.efi_net_station_address
                0x000000008083ca60       0x74 lib/built-in.o
 .text.efi_net_receive_filters
                0x000000008083cad4       0x7c lib/built-in.o
 .text.efi_net_shutdown
                0x000000008083cb50       0x64 lib/built-in.o
 .text.efi_net_reset
                0x000000008083cbb4       0x6c lib/built-in.o
 .text.efi_net_stop
                0x000000008083cc20       0x64 lib/built-in.o
 .text.efi_net_start
                0x000000008083cc84       0x64 lib/built-in.o
 .text.efi_net_initialize
                0x000000008083cce8       0x74 lib/built-in.o
 .text.efi_net_set_dhcp_ack
                0x000000008083cd5c       0x34 lib/built-in.o
                0x000000008083cd5c                efi_net_set_dhcp_ack
 .text.efi_net_register
                0x000000008083cd90      0x188 lib/built-in.o
                0x000000008083cd90                efi_net_register
 .text.efi_smbios_register
                0x000000008083cf18       0x34 lib/built-in.o
                0x000000008083cf18                efi_smbios_register
 .text.lzo1x_decompress_safe
                0x000000008083cf4c      0x4c6 lib/built-in.o
                0x000000008083cf4c                lzo1x_decompress_safe
 *fill*         0x000000008083d412        0x2 
 .text.lzop_decompress
                0x000000008083d414       0xf4 lib/built-in.o
                0x000000008083d414                lzop_decompress
 .text.zcalloc  0x000000008083d508        0x8 lib/built-in.o
                0x000000008083d508                zcalloc
 .text.zcfree   0x000000008083d510        0x6 lib/built-in.o
                0x000000008083d510                zcfree
 *fill*         0x000000008083d516        0x2 
 .text.inflate_fast
                0x000000008083d518      0x410 lib/built-in.o
                0x000000008083d518                inflate_fast
 .text.inflate_table
                0x000000008083d928      0x36c lib/built-in.o
                0x000000008083d928                inflate_table
 .text.inflateReset
                0x000000008083dc94       0x60 lib/built-in.o
                0x000000008083dc94                inflateReset
 .text.inflateInit2_
                0x000000008083dcf4       0xb8 lib/built-in.o
                0x000000008083dcf4                inflateInit2_
 .text.inflateEnd
                0x000000008083ddac       0x54 lib/built-in.o
                0x000000008083ddac                inflateEnd
 .text.adler32  0x000000008083de00      0x22e lib/built-in.o
                0x000000008083de00                adler32
 *fill*         0x000000008083e02e        0x2 
 .text.inflate  0x000000008083e030      0xf08 lib/built-in.o
                0x000000008083e030                inflate
 .text.fdt_check_header
                0x000000008083ef38       0x4c lib/built-in.o
                0x000000008083ef38                fdt_check_header
 .text.fdt_offset_ptr
                0x000000008083ef84       0x32 lib/built-in.o
                0x000000008083ef84                fdt_offset_ptr
 .text.fdt_next_tag
                0x000000008083efb6       0x8a lib/built-in.o
                0x000000008083efb6                fdt_next_tag
 .text._fdt_check_node_offset
                0x000000008083f040       0x24 lib/built-in.o
                0x000000008083f040                _fdt_check_node_offset
 .text._fdt_check_prop_offset
                0x000000008083f064       0x24 lib/built-in.o
                0x000000008083f064                _fdt_check_prop_offset
 .text.fdt_next_node
                0x000000008083f088       0x74 lib/built-in.o
                0x000000008083f088                fdt_next_node
 .text.fdt_first_subnode
                0x000000008083f0fc       0x28 lib/built-in.o
                0x000000008083f0fc                fdt_first_subnode
 .text.fdt_next_subnode
                0x000000008083f124       0x2a lib/built-in.o
                0x000000008083f124                fdt_next_subnode
 .text._fdt_find_string
                0x000000008083f14e       0x30 lib/built-in.o
                0x000000008083f14e                _fdt_find_string
 .text.fdt_move
                0x000000008083f17e       0x2a lib/built-in.o
                0x000000008083f17e                fdt_move
 .text.fdt_path_next_separator
                0x000000008083f1a8       0x2a lib/built-in.o
 .text._nextprop
                0x000000008083f1d2       0x36 lib/built-in.o
 .text.fdt_string
                0x000000008083f208        0xa lib/built-in.o
                0x000000008083f208                fdt_string
 .text.fdt_get_mem_rsv
                0x000000008083f212       0x38 lib/built-in.o
                0x000000008083f212                fdt_get_mem_rsv
 .text.fdt_num_mem_rsv
                0x000000008083f24a       0x22 lib/built-in.o
                0x000000008083f24a                fdt_num_mem_rsv
 .text.fdt_subnode_offset_namelen
                0x000000008083f26c       0x76 lib/built-in.o
                0x000000008083f26c                fdt_subnode_offset_namelen
 .text.fdt_subnode_offset
                0x000000008083f2e2       0x1e lib/built-in.o
                0x000000008083f2e2                fdt_subnode_offset
 .text.fdt_get_name
                0x000000008083f300       0x3e lib/built-in.o
                0x000000008083f300                fdt_get_name
 .text.fdt_first_property_offset
                0x000000008083f33e       0x18 lib/built-in.o
                0x000000008083f33e                fdt_first_property_offset
 .text.fdt_next_property_offset
                0x000000008083f356       0x18 lib/built-in.o
                0x000000008083f356                fdt_next_property_offset
 .text.fdt_get_property_by_offset
                0x000000008083f36e       0x2e lib/built-in.o
                0x000000008083f36e                fdt_get_property_by_offset
 .text.fdt_get_property_namelen
                0x000000008083f39c       0x64 lib/built-in.o
                0x000000008083f39c                fdt_get_property_namelen
 .text.fdt_get_property
                0x000000008083f400       0x22 lib/built-in.o
                0x000000008083f400                fdt_get_property
 .text.fdt_getprop_namelen
                0x000000008083f422       0x12 lib/built-in.o
                0x000000008083f422                fdt_getprop_namelen
 .text.fdt_getprop_by_offset
                0x000000008083f434       0x26 lib/built-in.o
                0x000000008083f434                fdt_getprop_by_offset
 .text.fdt_getprop
                0x000000008083f45a       0x22 lib/built-in.o
                0x000000008083f45a                fdt_getprop
 .text.fdt_get_phandle
                0x000000008083f47c       0x40 lib/built-in.o
                0x000000008083f47c                fdt_get_phandle
 .text.fdt_get_max_phandle
                0x000000008083f4bc       0x44 lib/built-in.o
                0x000000008083f4bc                fdt_get_max_phandle
 .text.fdt_get_alias_namelen
                0x000000008083f500       0x2c lib/built-in.o
                0x000000008083f500                fdt_get_alias_namelen
 .text.fdt_path_offset_namelen
                0x000000008083f52c       0x96 lib/built-in.o
                0x000000008083f52c                fdt_path_offset_namelen
 .text.fdt_path_offset
                0x000000008083f5c2       0x1a lib/built-in.o
                0x000000008083f5c2                fdt_path_offset
 .text.fdt_get_alias
                0x000000008083f5dc       0x1a lib/built-in.o
                0x000000008083f5dc                fdt_get_alias
 .text.fdt_get_path
                0x000000008083f5f6       0xb2 lib/built-in.o
                0x000000008083f5f6                fdt_get_path
 .text.fdt_supernode_atdepth_offset
                0x000000008083f6a8       0x6c lib/built-in.o
                0x000000008083f6a8                fdt_supernode_atdepth_offset
 .text.fdt_node_depth
                0x000000008083f714       0x1e lib/built-in.o
                0x000000008083f714                fdt_node_depth
 .text.fdt_parent_offset
                0x000000008083f732       0x20 lib/built-in.o
                0x000000008083f732                fdt_parent_offset
 .text.fdt_node_offset_by_phandle
                0x000000008083f752       0x44 lib/built-in.o
                0x000000008083f752                fdt_node_offset_by_phandle
 .text.fdt_stringlist_contains
                0x000000008083f796       0x3e lib/built-in.o
                0x000000008083f796                fdt_stringlist_contains
 .text.fdt_stringlist_get
                0x000000008083f7d4       0x58 lib/built-in.o
                0x000000008083f7d4                fdt_stringlist_get
 .text.fdt_node_check_compatible
                0x000000008083f82c       0x2c lib/built-in.o
                0x000000008083f82c                fdt_node_check_compatible
 .text._fdt_blocks_misordered
                0x000000008083f858       0x36 lib/built-in.o
 .text._fdt_splice
                0x000000008083f88e       0x4a lib/built-in.o
 .text._fdt_splice_mem_rsv
                0x000000008083f8d8       0x2c lib/built-in.o
 .text._fdt_splice_struct
                0x000000008083f904       0x26 lib/built-in.o
 .text._fdt_packblocks
                0x000000008083f92a       0x74 lib/built-in.o
 .text._fdt_find_add_string
                0x000000008083f99e       0x66 lib/built-in.o
 .text._fdt_add_property
                0x000000008083fa04       0x5e lib/built-in.o
 .text._fdt_rw_check_header
                0x000000008083fa62       0x38 lib/built-in.o
 .text.fdt_add_mem_rsv
                0x000000008083fa9a       0x54 lib/built-in.o
                0x000000008083fa9a                fdt_add_mem_rsv
 .text.fdt_del_mem_rsv
                0x000000008083faee       0x3e lib/built-in.o
                0x000000008083faee                fdt_del_mem_rsv
 .text.fdt_setprop
                0x000000008083fb2c       0x7e lib/built-in.o
                0x000000008083fb2c                fdt_setprop
 .text.fdt_delprop
                0x000000008083fbaa       0x36 lib/built-in.o
                0x000000008083fbaa                fdt_delprop
 .text.fdt_add_subnode_namelen
                0x000000008083fbe0       0x9c lib/built-in.o
                0x000000008083fbe0                fdt_add_subnode_namelen
 .text.fdt_add_subnode
                0x000000008083fc7c       0x1e lib/built-in.o
                0x000000008083fc7c                fdt_add_subnode
 .text.fdt_del_node
                0x000000008083fc9a       0x36 lib/built-in.o
                0x000000008083fc9a                fdt_del_node
 .text.fdt_open_into
                0x000000008083fcd0      0x104 lib/built-in.o
                0x000000008083fcd0                fdt_open_into
 .text.fdt_strerror
                0x000000008083fdd4       0x3c lib/built-in.o
                0x000000008083fdd4                fdt_strerror
 .text.fdt_setprop_inplace_namelen_partial
                0x000000008083fe10       0x32 lib/built-in.o
                0x000000008083fe10                fdt_setprop_inplace_namelen_partial
 .text.fdt_setprop_inplace
                0x000000008083fe42       0x48 lib/built-in.o
                0x000000008083fe42                fdt_setprop_inplace
 .text._fdt_node_end_offset
                0x000000008083fe8a       0x24 lib/built-in.o
                0x000000008083fe8a                _fdt_node_end_offset
 *fill*         0x000000008083feae        0x2 
 .text.fdt_address_cells
                0x000000008083feb0       0x34 lib/built-in.o
                0x000000008083feb0                fdt_address_cells
 .text.fdt_size_cells
                0x000000008083fee4       0x34 lib/built-in.o
                0x000000008083fee4                fdt_size_cells
 .text.overlay_phandle_add_offset
                0x000000008083ff18       0x52 lib/built-in.o
 *fill*         0x000000008083ff6a        0x2 
 .text.overlay_adjust_node_phandles
                0x000000008083ff6c       0x58 lib/built-in.o
 .text.overlay_update_local_node_references
                0x000000008083ffc4      0x106 lib/built-in.o
 .text.overlay_apply_node
                0x00000000808400ca       0xb6 lib/built-in.o
 .text.fdt_overlay_apply
                0x0000000080840180      0x298 lib/built-in.o
                0x0000000080840180                fdt_overlay_apply
 .text.crc16_ccitt
                0x0000000080840418       0x24 lib/built-in.o
                0x0000000080840418                crc16_ccitt
 .text.fdtdec_get_int
                0x000000008084043c       0x54 lib/built-in.o
                0x000000008084043c                fdtdec_get_int
 .text.gzalloc  0x0000000080840490        0xe lib/built-in.o
                0x0000000080840490                gzalloc
 .text.gzfree   0x000000008084049e        0x6 lib/built-in.o
                0x000000008084049e                gzfree
 .text.zunzip   0x00000000808404a4       0xa4 lib/built-in.o
                0x00000000808404a4                zunzip
 .text.gunzip   0x0000000080840548       0x74 lib/built-in.o
                0x0000000080840548                gunzip
 .text.smbios_write_type127
                0x00000000808405bc       0x2c lib/built-in.o
 .text.smbios_write_type32
                0x00000000808405e8       0x2c lib/built-in.o
 .text.smbios_string_table_len
                0x0000000080840614       0x1c lib/built-in.o
 .text.smbios_add_string
                0x0000000080840630       0x3a lib/built-in.o
 *fill*         0x000000008084066a        0x2 
 .text.smbios_write_type3
                0x000000008084066c       0x50 lib/built-in.o
 .text.smbios_write_type2
                0x00000000808406bc       0x5c lib/built-in.o
 .text.smbios_write_type0
                0x0000000080840718       0x90 lib/built-in.o
 .text.smbios_write_type1
                0x00000000808407a8       0x78 lib/built-in.o
 .text.smbios_write_type4
                0x0000000080840820       0x80 lib/built-in.o
 .text.write_smbios_table
                0x00000000808408a0       0xb4 lib/built-in.o
                0x00000000808408a0                write_smbios_table
 .text.initcall_run_list
                0x0000000080840954       0x70 lib/built-in.o
                0x0000000080840954                initcall_run_list
 .text.lmb_add_region
                0x00000000808409c4      0x110 lib/built-in.o
 .text.lmb_init
                0x0000000080840ad4       0x16 lib/built-in.o
                0x0000000080840ad4                lmb_init
 .text.lmb_add  0x0000000080840aea        0x4 lib/built-in.o
                0x0000000080840aea                lmb_add
 .text.lmb_free
                0x0000000080840aee       0xaa lib/built-in.o
                0x0000000080840aee                lmb_free
 .text.lmb_reserve
                0x0000000080840b98        0x6 lib/built-in.o
                0x0000000080840b98                lmb_reserve
 .text.__lmb_alloc_base
                0x0000000080840b9e       0xd4 lib/built-in.o
                0x0000000080840b9e                __lmb_alloc_base
 *fill*         0x0000000080840c72        0x2 
 .text.lmb_alloc_base
                0x0000000080840c74       0x20 lib/built-in.o
                0x0000000080840c74                lmb_alloc_base
 .text.lmb_alloc
                0x0000000080840c94        0x6 lib/built-in.o
                0x0000000080840c94                lmb_alloc
 .text.board_lmb_reserve
                0x0000000080840c9a        0x2 lib/built-in.o
                0x0000000080840c9a                board_lmb_reserve
 .text.byteReverse
                0x0000000080840c9c       0x20 lib/built-in.o
 .text.MD5Transform
                0x0000000080840cbc      0x728 lib/built-in.o
 .text.MD5Update
                0x00000000808413e4       0xa2 lib/built-in.o
 .text.MD5Final
                0x0000000080841486       0x82 lib/built-in.o
 .text.md5_wd   0x0000000080841508       0x64 lib/built-in.o
                0x0000000080841508                md5_wd
 .text.string_to_ip
                0x000000008084156c       0x44 lib/built-in.o
                0x000000008084156c                string_to_ip
 .text.qsort    0x00000000808415b0       0xb8 lib/built-in.o
                0x00000000808415b0                qsort
 .text.strcmp_compar
                0x0000000080841668        0x8 lib/built-in.o
                0x0000000080841668                strcmp_compar
 .text.merge    0x0000000080841670       0x36 lib/built-in.o
 *fill*         0x00000000808416a6        0x2 
 .text.list_sort
                0x00000000808416a8       0xe4 lib/built-in.o
                0x00000000808416a8                list_sort
 .text.subtract_modulus
                0x000000008084178c       0x30 lib/built-in.o
 .text.montgomery_mul
                0x00000000808417bc       0xf4 lib/built-in.o
 .text.rsa_convert_big_endian
                0x00000000808418b0       0x1c lib/built-in.o
 .text.rsa_mod_exp_sw
                0x00000000808418cc      0x284 lib/built-in.o
                0x00000000808418cc                rsa_mod_exp_sw
 .text.sha1_process
                0x0000000080841b50     0x1100 lib/built-in.o
 .text.sha1_update.part.0
                0x0000000080842c50       0x7e lib/built-in.o
 *fill*         0x0000000080842cce        0x2 
 .text.sha1_starts
                0x0000000080842cd0       0x34 lib/built-in.o
                0x0000000080842cd0                sha1_starts
 .text.sha1_update
                0x0000000080842d04        0x8 lib/built-in.o
                0x0000000080842d04                sha1_update
 .text.sha1_finish
                0x0000000080842d0c       0xc4 lib/built-in.o
                0x0000000080842d0c                sha1_finish
 .text.sha1_csum_wd
                0x0000000080842dd0       0x42 lib/built-in.o
                0x0000000080842dd0                sha1_csum_wd
 *fill*         0x0000000080842e12        0x2 
 .text.sha256_process
                0x0000000080842e14     0x1e68 lib/built-in.o
 .text.sha256_update.part.0
                0x0000000080844c7c       0x82 lib/built-in.o
 *fill*         0x0000000080844cfe        0x2 
 .text.sha256_starts
                0x0000000080844d00       0x50 lib/built-in.o
                0x0000000080844d00                sha256_starts
 .text.sha256_update
                0x0000000080844d50        0x8 lib/built-in.o
                0x0000000080844d50                sha256_update
 .text.sha256_finish
                0x0000000080844d58      0x100 lib/built-in.o
                0x0000000080844d58                sha256_finish
 .text.sha256_csum_wd
                0x0000000080844e58       0x42 lib/built-in.o
                0x0000000080844e58                sha256_csum_wd
 *fill*         0x0000000080844e9a        0x2 
 .text.get_prop_check_min_len
                0x0000000080844e9c       0x44 lib/built-in.o
 .text.fdtdec_get_is_enabled
                0x0000000080844ee0       0x28 lib/built-in.o
                0x0000000080844ee0                fdtdec_get_is_enabled
 .text.fdtdec_get_alias_seq
                0x0000000080844f08       0xe0 lib/built-in.o
                0x0000000080844f08                fdtdec_get_alias_seq
 .text.fdtdec_get_chosen_prop
                0x0000000080844fe8       0x24 lib/built-in.o
                0x0000000080844fe8                fdtdec_get_chosen_prop
 .text.fdtdec_get_chosen_node
                0x000000008084500c       0x1c lib/built-in.o
                0x000000008084500c                fdtdec_get_chosen_node
 .text.fdtdec_prepare_fdt
                0x0000000080845028       0x54 lib/built-in.o
                0x0000000080845028                fdtdec_prepare_fdt
 .text.fdtdec_lookup_phandle
                0x000000008084507c       0x3c lib/built-in.o
                0x000000008084507c                fdtdec_lookup_phandle
 .text.fdtdec_get_int_array
                0x00000000808450b8       0x58 lib/built-in.o
                0x00000000808450b8                fdtdec_get_int_array
 .text.fdtdec_get_bool
                0x0000000080845110       0x30 lib/built-in.o
                0x0000000080845110                fdtdec_get_bool
 .text.fdtdec_parse_phandle_with_args
                0x0000000080845140      0x148 lib/built-in.o
                0x0000000080845140                fdtdec_parse_phandle_with_args
 .text.fdtdec_get_config_int
                0x0000000080845288       0x3c lib/built-in.o
                0x0000000080845288                fdtdec_get_config_int
 .text.fdtdec_get_config_string
                0x00000000808452c4       0x3c lib/built-in.o
                0x00000000808452c4                fdtdec_get_config_string
 .text.fdtdec_get_number
                0x0000000080845300       0x24 lib/built-in.o
                0x0000000080845300                fdtdec_get_number
 .text.fdtdec_get_addr_size_fixed
                0x0000000080845324       0xe8 lib/built-in.o
                0x0000000080845324                fdtdec_get_addr_size_fixed
 .text.fdtdec_get_addr_size_auto_parent
                0x000000008084540c       0x7c lib/built-in.o
                0x000000008084540c                fdtdec_get_addr_size_auto_parent
 .text.fdtdec_get_addr_size_auto_noparent
                0x0000000080845488       0x54 lib/built-in.o
                0x0000000080845488                fdtdec_get_addr_size_auto_noparent
 .text.fdtdec_get_addr_size
                0x00000000808454dc       0x1c lib/built-in.o
                0x00000000808454dc                fdtdec_get_addr_size
 .text.fdtdec_get_addr
                0x00000000808454f8        0x6 lib/built-in.o
                0x00000000808454f8                fdtdec_get_addr
 *fill*         0x00000000808454fe        0x2 
 .text.fdtdec_setup
                0x0000000080845500       0x24 lib/built-in.o
                0x0000000080845500                fdtdec_setup
 .text._hdelete
                0x0000000080845524       0x3c lib/built-in.o
 .text.cmpkey   0x0000000080845560        0xc lib/built-in.o
 .text.drop_var_from_set.part.1
                0x000000008084556c       0x40 lib/built-in.o
 .text.match_string
                0x00000000808455ac       0x7c lib/built-in.o
 .text.match_entry
                0x0000000080845628       0x78 lib/built-in.o
 .text.hcreate_r
                0x00000000808456a0       0x60 lib/built-in.o
                0x00000000808456a0                hcreate_r
 .text.hdestroy_r
                0x0000000080845700       0x44 lib/built-in.o
                0x0000000080845700                hdestroy_r
 .text.hmatch_r
                0x0000000080845744       0x5c lib/built-in.o
                0x0000000080845744                hmatch_r
 .text.hsearch_r
                0x00000000808457a0      0x2fc lib/built-in.o
                0x00000000808457a0                hsearch_r
 .text.hdelete_r
                0x0000000080845a9c       0xa4 lib/built-in.o
                0x0000000080845a9c                hdelete_r
 .text.hexport_r
                0x0000000080845b40      0x1dc lib/built-in.o
                0x0000000080845b40                hexport_r
 .text.himport_r
                0x0000000080845d1c      0x2e8 lib/built-in.o
                0x0000000080845d1c                himport_r
 .text.hwalk_r  0x0000000080846004       0x2a lib/built-in.o
                0x0000000080846004                hwalk_r
 *fill*         0x000000008084602e        0x2 
 .text.display_options_get_banner_priv
                0x0000000080846030       0x60 lib/built-in.o
                0x0000000080846030                display_options_get_banner_priv
 .text.display_options_get_banner
                0x0000000080846090       0x12 lib/built-in.o
                0x0000000080846090                display_options_get_banner
 *fill*         0x00000000808460a2        0x2 
 .text.display_options
                0x00000000808460a4       0x24 lib/built-in.o
                0x00000000808460a4                display_options
 .text.print_size
                0x00000000808460c8       0xdc lib/built-in.o
                0x00000000808460c8                print_size
 .text.print_buffer
                0x00000000808461a4      0x128 lib/built-in.o
                0x00000000808461a4                print_buffer
 .text.crc32_no_comp
                0x00000000808462cc       0x90 lib/built-in.o
                0x00000000808462cc                crc32_no_comp
 .text.crc32    0x000000008084635c        0xc lib/built-in.o
                0x000000008084635c                crc32
 .text.crc32_wd
                0x0000000080846368       0x32 lib/built-in.o
                0x0000000080846368                crc32_wd
 .text.crc32_wd_buf
                0x000000008084639a       0x26 lib/built-in.o
                0x000000008084639a                crc32_wd_buf
 .text.__div64_32
                0x00000000808463c0       0x92 lib/built-in.o
                0x00000000808463c0                __div64_32
 *fill*         0x0000000080846452        0x2 
 .text.hang     0x0000000080846454       0x18 lib/built-in.o
                0x0000000080846454                hang
 .text.kmalloc  0x000000008084646c       0x20 lib/built-in.o
                0x000000008084646c                kmalloc
 .text.skip_spaces
                0x000000008084648c       0x18 lib/built-in.o
                0x000000008084648c                skip_spaces
 .text.strim    0x00000000808464a4       0x34 lib/built-in.o
                0x00000000808464a4                strim
 .text.emit     0x00000000808464d8       0x20 lib/built-in.o
 .text.store_char_in_data
                0x00000000808464f8       0x24 lib/built-in.o
 .text.get_escape_char
                0x000000008084651c       0x4a lib/built-in.o
 *fill*         0x0000000080846566        0x2 
 .text.set_jump_offset
                0x0000000080846568       0x40 lib/built-in.o
 .text.match    0x00000000808465a8      0x2c4 lib/built-in.o
 .text.loop_greedy
                0x000000008084686c       0x5c lib/built-in.o
 .text.loop_non_greedy
                0x00000000808468c8       0x4a lib/built-in.o
 .text.fixup_branch
                0x0000000080846912       0x1e lib/built-in.o
 .text.quantifier
                0x0000000080846930       0x6c lib/built-in.o
 .text.compile  0x000000008084699c      0x24c lib/built-in.o
 .text.slre_compile
                0x0000000080846be8       0x84 lib/built-in.o
                0x0000000080846be8                slre_compile
 .text.slre_match
                0x0000000080846c6c       0x56 lib/built-in.o
                0x0000000080846c6c                slre_match
 *fill*         0x0000000080846cc2        0x2 
 .text.strncasecmp
                0x0000000080846cc4       0x40 lib/built-in.o
                0x0000000080846cc4                strncasecmp
 .text.strcasecmp
                0x0000000080846d04        0x8 lib/built-in.o
                0x0000000080846d04                strcasecmp
 .text.strcpy   0x0000000080846d0c        0xe lib/built-in.o
                0x0000000080846d0c                strcpy
 .text.strncpy  0x0000000080846d1a       0x14 lib/built-in.o
                0x0000000080846d1a                strncpy
 .text.strcat   0x0000000080846d2e       0x1a lib/built-in.o
                0x0000000080846d2e                strcat
 .text.strncat  0x0000000080846d48       0x26 lib/built-in.o
                0x0000000080846d48                strncat
 .text.strcmp   0x0000000080846d6e       0x1a lib/built-in.o
                0x0000000080846d6e                strcmp
 .text.strncmp  0x0000000080846d88       0x22 lib/built-in.o
                0x0000000080846d88                strncmp
 .text.strchr   0x0000000080846daa       0x1a lib/built-in.o
                0x0000000080846daa                strchr
 .text.strlen   0x0000000080846dc4       0x10 lib/built-in.o
                0x0000000080846dc4                strlen
 .text.strlcpy  0x0000000080846dd4       0x2e lib/built-in.o
                0x0000000080846dd4                strlcpy
 .text.strrchr  0x0000000080846e02       0x20 lib/built-in.o
                0x0000000080846e02                strrchr
 .text.strnlen  0x0000000080846e22       0x1a lib/built-in.o
                0x0000000080846e22                strnlen
 .text.strdup   0x0000000080846e3c       0x22 lib/built-in.o
                0x0000000080846e3c                strdup
 .text.strspn   0x0000000080846e5e       0x1c lib/built-in.o
                0x0000000080846e5e                strspn
 .text.strpbrk  0x0000000080846e7a       0x20 lib/built-in.o
                0x0000000080846e7a                strpbrk
 *fill*         0x0000000080846e9a        0x2 
 .text.strtok   0x0000000080846e9c       0x48 lib/built-in.o
                0x0000000080846e9c                strtok
 .text.strsep   0x0000000080846ee4       0x1e lib/built-in.o
                0x0000000080846ee4                strsep
 .text.memmove  0x0000000080846f02       0x2e lib/built-in.o
                0x0000000080846f02                memmove
 .text.memcmp   0x0000000080846f30       0x1a lib/built-in.o
                0x0000000080846f30                memcmp
 .text.strstr   0x0000000080846f4a       0x48 lib/built-in.o
                0x0000000080846f4a                strstr
 .text.memchr   0x0000000080846f92       0x1c lib/built-in.o
                0x0000000080846f92                memchr
 .text.get_tbclk
                0x0000000080846fae       0x1c lib/built-in.o
                0x0000000080846fae                get_tbclk
 .text.tick_to_time
                0x0000000080846fca       0x48 lib/built-in.o
 .text.get_ticks
                0x0000000080847012       0x28 lib/built-in.o
                0x0000000080847012                get_ticks
 .text.timer_init
                0x000000008084703a        0x4 lib/built-in.o
                0x000000008084703a                timer_init
 .text.get_timer
                0x000000008084703e       0x10 lib/built-in.o
                0x000000008084703e                get_timer
 .text.timer_get_us
                0x000000008084704e       0x1c lib/built-in.o
                0x000000008084704e                timer_get_us
 *fill*         0x000000008084706a        0x2 
 .text.__udelay
                0x000000008084706c       0x98 lib/built-in.o
                0x000000008084706c                __udelay
 .text.udelay   0x0000000080847104       0x20 lib/built-in.o
                0x0000000080847104                udelay
 .text.uuid_str_valid
                0x0000000080847124       0x54 lib/built-in.o
                0x0000000080847124                uuid_str_valid
 .text.uuid_str_to_bin
                0x0000000080847178      0x10e lib/built-in.o
                0x0000000080847178                uuid_str_to_bin
 *fill*         0x0000000080847286        0x2 
 .text.uuid_bin_to_str
                0x0000000080847288       0x70 lib/built-in.o
                0x0000000080847288                uuid_bin_to_str
 .text.put_dec_trunc
                0x00000000808472f8       0x96 lib/built-in.o
 *fill*         0x000000008084738e        0x2 
 .text.put_dec  0x0000000080847390      0x148 lib/built-in.o
 .text.number   0x00000000808474d8      0x200 lib/built-in.o
 .text.string   0x00000000808476d8       0x78 lib/built-in.o
 .text.vsnprintf_internal
                0x0000000080847750      0x45c lib/built-in.o
 .text.vscnprintf
                0x0000000080847bac       0x16 lib/built-in.o
                0x0000000080847bac                vscnprintf
 .text.snprintf
                0x0000000080847bc2       0x1a lib/built-in.o
                0x0000000080847bc2                snprintf
 .text.vsprintf
                0x0000000080847bdc       0x14 lib/built-in.o
                0x0000000080847bdc                vsprintf
 .text.sprintf  0x0000000080847bf0       0x1a lib/built-in.o
                0x0000000080847bf0                sprintf
 .text.printf   0x0000000080847c0a       0x32 lib/built-in.o
                0x0000000080847c0a                printf
 .text.vprintf  0x0000000080847c3c       0x24 lib/built-in.o
                0x0000000080847c3c                vprintf
 .text.__assert_fail
                0x0000000080847c60       0x10 lib/built-in.o
                0x0000000080847c60                __assert_fail
 .text.simple_itoa
                0x0000000080847c70       0x38 lib/built-in.o
                0x0000000080847c70                simple_itoa
 .text.str2off  0x0000000080847ca8       0x2a lib/built-in.o
                0x0000000080847ca8                str2off
 .text.str2long
                0x0000000080847cd2       0x28 lib/built-in.o
                0x0000000080847cd2                str2long
 *fill*         0x0000000080847cfa        0x2 
 .text.panic_finish
                0x0000000080847cfc       0x20 lib/built-in.o
 .text.panic_str
                0x0000000080847d1c        0xa lib/built-in.o
                0x0000000080847d1c                panic_str
 .text.panic    0x0000000080847d26       0x14 lib/built-in.o
                0x0000000080847d26                panic
 *fill*         0x0000000080847d3a        0x2 
 .text.simple_strtoul
                0x0000000080847d3c       0x70 lib/built-in.o
                0x0000000080847d3c                simple_strtoul
 .text.strict_strtoul
                0x0000000080847dac       0x42 lib/built-in.o
                0x0000000080847dac                strict_strtoul
 .text.simple_strtol
                0x0000000080847dee       0x1a lib/built-in.o
                0x0000000080847dee                simple_strtol
 .text.ustrtoul
                0x0000000080847e08       0x3c lib/built-in.o
                0x0000000080847e08                ustrtoul
 .text.simple_strtoull
                0x0000000080847e44       0x94 lib/built-in.o
                0x0000000080847e44                simple_strtoull
 .text.ustrtoull
                0x0000000080847ed8       0x5a lib/built-in.o
                0x0000000080847ed8                ustrtoull
 *fill*         0x0000000080847f32        0x2 
 .text.trailing_strtoln
                0x0000000080847f34       0x4c lib/built-in.o
                0x0000000080847f34                trailing_strtoln
 .text.trailing_strtol
                0x0000000080847f80        0x6 lib/built-in.o
                0x0000000080847f80                trailing_strtol
 .text.compute_ip_checksum
                0x0000000080847f86       0x44 net/built-in.o
                0x0000000080847f86                compute_ip_checksum
 .text.ip_checksum_ok
                0x0000000080847fca       0x14 net/built-in.o
                0x0000000080847fca                ip_checksum_ok
 *fill*         0x0000000080847fde        0x2 
 .text.arp_init
                0x0000000080847fe0       0x38 net/built-in.o
                0x0000000080847fe0                arp_init
 .text.arp_raw_request
                0x0000000080848018       0x94 net/built-in.o
                0x0000000080848018                arp_raw_request
 .text.arp_request
                0x00000000808480ac       0x54 net/built-in.o
                0x00000000808480ac                arp_request
 .text.arp_timeout_check
                0x0000000080848100       0x58 net/built-in.o
                0x0000000080848100                arp_timeout_check
 .text.arp_receive
                0x0000000080848158      0x180 net/built-in.o
                0x0000000080848158                arp_receive
 .text.dhcp_extended
                0x00000000808482d8      0x190 net/built-in.o
 .text.dhcp_process_options
                0x0000000080848468      0x13c net/built-in.o
 .text.dhcp_packet_process_options
                0x00000000808485a4       0x5c net/built-in.o
 .text.dhcp_handler
                0x0000000080848600      0x368 net/built-in.o
 .text.bootp_reset
                0x0000000080848968       0x2c net/built-in.o
                0x0000000080848968                bootp_reset
 .text.bootp_request
                0x0000000080848994      0x1dc net/built-in.o
                0x0000000080848994                bootp_request
 .text.bootp_timeout_handler
                0x0000000080848b70       0x58 net/built-in.o
 .text.dhcp_request
                0x0000000080848bc8        0x4 net/built-in.o
                0x0000000080848bc8                dhcp_request
 .text.eth_get_uclass_priv
                0x0000000080848bcc       0x30 net/built-in.o
 .text.eth_pre_remove
                0x0000000080848bfc       0x1a net/built-in.o
 *fill*         0x0000000080848c16        0x2 
 .text.eth_write_hwaddr
                0x0000000080848c18       0x78 net/built-in.o
 .text.on_ethaddr
                0x0000000080848c90       0x4c net/built-in.o
 .text.eth_post_probe
                0x0000000080848cdc      0x104 net/built-in.o
 .text.eth_post_bind
                0x0000000080848de0       0x20 net/built-in.o
 .text.eth_set_current_to_next
                0x0000000080848e00       0x22 net/built-in.o
                0x0000000080848e00                eth_set_current_to_next
 *fill*         0x0000000080848e22        0x2 
 .text.eth_get_dev
                0x0000000080848e24       0x20 net/built-in.o
                0x0000000080848e24                eth_get_dev
 .text.eth_set_dev
                0x0000000080848e44       0x28 net/built-in.o
                0x0000000080848e44                eth_set_dev
 .text.eth_pre_unbind
                0x0000000080848e6c       0x18 net/built-in.o
 .text.eth_get_dev_by_name
                0x0000000080848e84       0x88 net/built-in.o
                0x0000000080848e84                eth_get_dev_by_name
 .text.eth_get_ethaddr
                0x0000000080848f0c       0x12 net/built-in.o
                0x0000000080848f0c                eth_get_ethaddr
 .text.eth_halt_state_only
                0x0000000080848f1e       0x16 net/built-in.o
                0x0000000080848f1e                eth_halt_state_only
 .text.eth_get_dev_index
                0x0000000080848f34       0x16 net/built-in.o
                0x0000000080848f34                eth_get_dev_index
 *fill*         0x0000000080848f4a        0x2 
 .text.eth_init
                0x0000000080848f4c       0xb8 net/built-in.o
                0x0000000080848f4c                eth_init
 .text.eth_halt
                0x0000000080849004       0x20 net/built-in.o
                0x0000000080849004                eth_halt
 .text.eth_send
                0x0000000080849024       0x48 net/built-in.o
                0x0000000080849024                eth_send
 .text.eth_rx   0x000000008084906c       0x84 net/built-in.o
                0x000000008084906c                eth_rx
 .text.eth_initialize
                0x00000000808490f0       0xa4 net/built-in.o
                0x00000000808490f0                eth_initialize
 .text.eth_parse_enetaddr
                0x0000000080849194       0x2c net/built-in.o
                0x0000000080849194                eth_parse_enetaddr
 .text.eth_env_get_enetaddr
                0x00000000808491c0       0x34 net/built-in.o
                0x00000000808491c0                eth_env_get_enetaddr
 .text.eth_env_set_enetaddr
                0x00000000808491f4       0x30 net/built-in.o
                0x00000000808491f4                eth_env_set_enetaddr
 .text.eth_env_get_enetaddr_by_index
                0x0000000080849224       0x34 net/built-in.o
                0x0000000080849224                eth_env_get_enetaddr_by_index
 .text.eth_env_set_enetaddr_by_index
                0x0000000080849258       0x34 net/built-in.o
                0x0000000080849258                eth_env_set_enetaddr_by_index
 .text.eth_common_init
                0x000000008084928c       0x14 net/built-in.o
                0x000000008084928c                eth_common_init
 .text.eth_mac_skip
                0x00000000808492a0       0x30 net/built-in.o
                0x00000000808492a0                eth_mac_skip
 .text.eth_get_name
                0x00000000808492d0       0x18 net/built-in.o
                0x00000000808492d0                eth_get_name
 .text.eth_current_changed
                0x00000000808492e8       0x60 net/built-in.o
                0x00000000808492e8                eth_current_changed
 .text.eth_try_another
                0x0000000080849348       0x54 net/built-in.o
                0x0000000080849348                eth_try_another
 .text.eth_set_current
                0x000000008084939c       0x58 net/built-in.o
                0x000000008084939c                eth_set_current
 .text.start_again_timeout_handler
                0x00000000808493f4        0xc net/built-in.o
 .text.dummy_handler
                0x0000000080849400        0x2 net/built-in.o
 *fill*         0x0000000080849402        0x2 
 .text.on_ipaddr
                0x0000000080849404       0x18 net/built-in.o
 .text.on_gatewayip
                0x000000008084941c       0x18 net/built-in.o
 .text.on_netmask
                0x0000000080849434       0x18 net/built-in.o
 .text.on_serverip
                0x000000008084944c       0x18 net/built-in.o
 .text.net_init_loop
                0x0000000080849464       0x20 net/built-in.o
 .text.net_clear_handlers
                0x0000000080849484       0x24 net/built-in.o
 .text.net_auto_load
                0x00000000808494a8       0x40 net/built-in.o
                0x00000000808494a8                net_auto_load
 .text.net_init
                0x00000000808494e8       0x50 net/built-in.o
                0x00000000808494e8                net_init
 .text.net_start_again
                0x0000000080849538       0xf0 net/built-in.o
                0x0000000080849538                net_start_again
 .text.net_loop
                0x0000000080849628      0x248 net/built-in.o
                0x0000000080849628                net_loop
 .text.net_set_udp_handler
                0x0000000080849870       0x18 net/built-in.o
                0x0000000080849870                net_set_udp_handler
 .text.net_get_arp_handler
                0x0000000080849888        0xc net/built-in.o
                0x0000000080849888                net_get_arp_handler
 .text.net_set_timeout_handler
                0x0000000080849894       0x3c net/built-in.o
                0x0000000080849894                net_set_timeout_handler
 .text.net_process_received_packet
                0x00000000808498d0      0x1fc net/built-in.o
                0x00000000808498d0                net_process_received_packet
 .text.net_eth_hdr_size
                0x0000000080849acc       0x28 net/built-in.o
                0x0000000080849acc                net_eth_hdr_size
 .text.net_set_ether
                0x0000000080849af4       0x78 net/built-in.o
                0x0000000080849af4                net_set_ether
 .text.net_update_ether
                0x0000000080849b6c       0x68 net/built-in.o
                0x0000000080849b6c                net_update_ether
 .text.net_set_ip_header
                0x0000000080849bd4       0x60 net/built-in.o
                0x0000000080849bd4                net_set_ip_header
 .text.net_set_udp_header
                0x0000000080849c34       0x74 net/built-in.o
                0x0000000080849c34                net_set_udp_header
 .text.net_send_udp_packet
                0x0000000080849ca8       0xd4 net/built-in.o
                0x0000000080849ca8                net_send_udp_packet
 .text.copy_filename
                0x0000000080849d7c       0x2c net/built-in.o
                0x0000000080849d7c                copy_filename
 .text.on_bootfile
                0x0000000080849da8       0x20 net/built-in.o
 .text.ip_to_string
                0x0000000080849dc8       0x28 net/built-in.o
                0x0000000080849dc8                ip_to_string
 .text.string_to_vlan
                0x0000000080849df0       0x28 net/built-in.o
                0x0000000080849df0                string_to_vlan
 .text.on_nvlan
                0x0000000080849e18       0x18 net/built-in.o
 .text.on_vlan  0x0000000080849e30       0x18 net/built-in.o
 .text.rpc_lookup_reply
                0x0000000080849e48       0x7c net/built-in.o
 .text.nfs_mount_reply
                0x0000000080849ec4       0x78 net/built-in.o
 .text.nfs_umountall_reply
                0x0000000080849f3c       0x70 net/built-in.o
 .text.nfs_lookup_reply
                0x0000000080849fac      0x11c net/built-in.o
 .text.nfs3_get_attributes_offset
                0x000000008084a0c8        0xe net/built-in.o
 *fill*         0x000000008084a0d6        0x2 
 .text.nfs_readlink_reply
                0x000000008084a0d8       0xcc net/built-in.o
 .text.basename
                0x000000008084a1a4       0x20 net/built-in.o
 .text.rpc_req  0x000000008084a1c4       0xbc net/built-in.o
 .text.nfs_umountall_req
                0x000000008084a280       0x54 net/built-in.o
 .text.nfs_read_reply.isra.2
                0x000000008084a2d4       0xf8 net/built-in.o
 .text.nfs_readlink_req
                0x000000008084a3cc       0x84 net/built-in.o
 .text.nfs_mount_req
                0x000000008084a450       0x88 net/built-in.o
 .text.nfs_read_req
                0x000000008084a4d8       0xa4 net/built-in.o
 .text.nfs_lookup_req
                0x000000008084a57c      0x108 net/built-in.o
 .text.nfs_send
                0x000000008084a684       0xe4 net/built-in.o
 .text.nfs_handler
                0x000000008084a768      0x1c0 net/built-in.o
 .text.nfs_timeout_handler
                0x000000008084a928       0x4c net/built-in.o
 .text.nfs_start
                0x000000008084a974      0x198 net/built-in.o
                0x000000008084a974                nfs_start
 .text.ping_timeout_handler
                0x000000008084ab0c       0x14 net/built-in.o
 .text.ping_start
                0x000000008084ab20       0xd4 net/built-in.o
                0x000000008084ab20                ping_start
 .text.ping_receive
                0x000000008084abf4       0xa4 net/built-in.o
                0x000000008084abf4                ping_receive
 .text.tftp_send
                0x000000008084ac98      0x134 net/built-in.o
 .text.tftp_handler
                0x000000008084adcc      0x294 net/built-in.o
 .text.tftp_timeout_handler
                0x000000008084b060       0x64 net/built-in.o
 .text.tftp_start
                0x000000008084b0c4      0x288 net/built-in.o
                0x000000008084b0c4                tftp_start
 .text.do_dm_dump_devres
                0x000000008084b34c        0x4 test/dm/built-in.o
 .text.do_dm    0x000000008084b350       0x44 test/dm/built-in.o
 .text.do_dm_dump_uclass
                0x000000008084b394        0xa test/dm/built-in.o
 .text.do_dm_dump_all
                0x000000008084b39e        0xa test/dm/built-in.o
 .text.__ashldi3
                0x000000008084b3a8       0x20 arch/arm/lib/lib.a(ashldi3.o)
                0x000000008084b3a8                __ashldi3
                0x000000008084b3a8                __aeabi_llsl
 .text.__ashrdi3
                0x000000008084b3c8       0x20 arch/arm/lib/lib.a(ashrdi3.o)
                0x000000008084b3c8                __ashrdi3
                0x000000008084b3c8                __aeabi_lasr
 .text.__udivsi3
                0x000000008084b3e8       0x9c arch/arm/lib/lib.a(lib1funcs.o)
                0x000000008084b3e8                __udivsi3
                0x000000008084b3e8                __aeabi_uidiv
 .text.__divsi3
                0x000000008084b484       0xcc arch/arm/lib/lib.a(lib1funcs.o)
                0x000000008084b484                __aeabi_idiv
                0x000000008084b484                __divsi3
 .text.__aeabi_uidivmod
                0x000000008084b550       0x30 arch/arm/lib/lib.a(lib1funcs.o)
                0x000000008084b550                __aeabi_uidivmod
                0x000000008084b568                __aeabi_idivmod
 .text.Ldiv0    0x000000008084b580       0x10 arch/arm/lib/lib.a(lib1funcs.o)
 .text.__lshldi3
                0x000000008084b590       0x20 arch/arm/lib/lib.a(lshrdi3.o)
                0x000000008084b590                __aeabi_llsr
                0x000000008084b590                __lshrdi3
 .text.__div0   0x000000008084b5b0        0x4 arch/arm/lib/lib.a(div0.o)
                0x000000008084b5b0                __div0

.glue_7         0x000000008084b5b4        0x0
 .glue_7        0x000000008084b5b4        0x0 linker stubs

.glue_7t        0x000000008084b5b4        0x0
 .glue_7t       0x000000008084b5b4        0x0 linker stubs

.vfp11_veneer   0x000000008084b5b4        0x0
 .vfp11_veneer  0x000000008084b5b4        0x0 linker stubs

.v4_bx          0x000000008084b5b4        0x0
 .v4_bx         0x000000008084b5b4        0x0 linker stubs

.iplt           0x000000008084b5b4        0x0
 .iplt          0x000000008084b5b4        0x0 arch/arm/cpu/armv7/start.o
                0x000000008084b5b4                . = ALIGN (0x4)

.rodata         0x000000008084b5b8    0x1f015
 *(SORT(.rodata*))
 .rodata.efi_boot_services
                0x000000008084b5b8       0xc8 lib/built-in.o
 .rodata        0x000000008084b680       0x80 arch/arm/lib/built-in.o
 .rodata        0x000000008084b700       0xa0 arch/arm/mach-omap2/built-in.o
 .rodata        0x000000008084b7a0       0x34 drivers/built-in.o
 .rodata.CSWTCH.114
                0x000000008084b7d4        0xc drivers/usb/gadget/built-in.o
 .rodata.CSWTCH.19
                0x000000008084b7e0       0x1c drivers/usb/musb-new/built-in.o
 .rodata.CSWTCH.30
                0x000000008084b7fc       0x14 cmd/built-in.o
 .rodata.CSWTCH.44
                0x000000008084b810       0x20 common/built-in.o
 .rodata.CSWTCH.46
                0x000000008084b830       0x20 disk/built-in.o
 .rodata.CSWTCH.96
                0x000000008084b850       0x6c common/built-in.o
 .rodata.am33xx_ctrl
                0x000000008084b8bc      0x1c8 arch/arm/mach-omap2/built-in.o
                0x000000008084b8bc                am33xx_ctrl
 .rodata.am33xx_mmc_pdata
                0x000000008084ba84        0x4 drivers/built-in.o
 .rodata.boot_os
                0x000000008084ba88       0x60 common/built-in.o
 .rodata.cmd_dispatch_info
                0x000000008084bae8       0x30 drivers/usb/gadget/built-in.o
 .rodata.cpsw_eth_ids
                0x000000008084bb18       0x18 drivers/net/built-in.o
 .rodata.cpsw_eth_ops
                0x000000008084bb30       0x1c drivers/net/built-in.o
 .rodata.crc_table
                0x000000008084bb4c      0x400 lib/built-in.o
 .rodata.desc_and_len_tbl
                0x000000008084bf4c       0x30 cmd/built-in.o
 .rodata.dev_types
                0x000000008084bf7c       0x10 arch/arm/mach-omap2/built-in.o
 .rodata.dfu_state
                0x000000008084bf8c       0x2c drivers/usb/gadget/built-in.o
 .rodata.efi_con_out
                0x000000008084bfb8       0x28 lib/built-in.o
                0x000000008084bfb8                efi_con_out
 .rodata.efi_console_control
                0x000000008084bfe0        0xc lib/built-in.o
                0x000000008084bfe0                efi_console_control
 .rodata.efi_device_path_to_text
                0x000000008084bfec        0x8 lib/built-in.o
                0x000000008084bfec                efi_device_path_to_text
 .rodata.efi_runtime_detach_list
                0x000000008084bff4       0x38 lib/built-in.o
 .rodata.env_flags_varaccess_mask
                0x000000008084c02c       0x10 env/built-in.o
 .rodata.ext_csd_bits.10164
                0x000000008084c03c       0x14 drivers/built-in.o
 .rodata.ext_to_hostcaps.10165
                0x000000008084c050       0x1c drivers/built-in.o
 .rodata.fbase  0x000000008084c06c       0x10 drivers/built-in.o
 .rodata.fdt_errtable
                0x000000008084c07c       0x48 lib/built-in.o
 .rodata.generic_simple_bus_ids
                0x000000008084c0c4       0x18 drivers/built-in.o
 .rodata.gpio_function
                0x000000008084c0dc       0x14 drivers/gpio/built-in.o
 .rodata.gpio_omap_ops
                0x000000008084c0f0       0x28 drivers/gpio/built-in.o
 .rodata.hub_id_table
                0x000000008084c118       0x30 common/built-in.o
 .rodata.init_sequence_f
                0x000000008084c148       0xbc common/built-in.o
 .rodata.keywords
                0x000000008084c204       0x98 cmd/built-in.o
 .rodata.mass_storage_id_table
                0x000000008084c29c       0x30 common/built-in.o
 .rodata.mod_exp_ops_sw
                0x000000008084c2cc        0x4 drivers/built-in.o
 .rodata.month_offset
                0x000000008084c2d0       0x30 drivers/built-in.o
 .rodata.musb_ep_ops
                0x000000008084c300       0x28 drivers/usb/musb-new/built-in.o
 .rodata.musb_g_ep0_ops
                0x000000008084c328       0x28 drivers/usb/musb-new/built-in.o
                0x000000008084c328                musb_g_ep0_ops
 .rodata.musb_gadget_operations
                0x000000008084c350       0x24 drivers/usb/musb-new/built-in.o
 .rodata.ns16550_serial_ids
                0x000000008084c374       0x60 drivers/serial/built-in.o
 .rodata.ns16550_serial_ops
                0x000000008084c3d4       0x14 drivers/serial/built-in.o
                0x000000008084c3d4                ns16550_serial_ops
 .rodata.oid_supported_list
                0x000000008084c3e8       0x70 drivers/usb/gadget/built-in.o
 .rodata.omap3_mmc_pdata
                0x000000008084c458        0x4 drivers/built-in.o
 .rodata.omap4_mmc_pdata
                0x000000008084c45c        0x4 drivers/built-in.o
 .rodata.omap_gpio_ids
                0x000000008084c460       0x20 drivers/gpio/built-in.o
 .rodata.omap_hsmmc_ids
                0x000000008084c480       0x20 drivers/built-in.o
 .rodata.omap_hsmmc_ops
                0x000000008084c4a0       0x10 drivers/built-in.o
 .rodata.omap_i2c_ids
                0x000000008084c4b0       0x18 drivers/i2c/built-in.o
 .rodata.omap_i2c_ops
                0x000000008084c4c8       0x18 drivers/i2c/built-in.o
 .rodata.omap_timer_ids
                0x000000008084c4e0       0x20 drivers/built-in.o
 .rodata.omap_timer_ops
                0x000000008084c500        0x4 drivers/built-in.o
 .rodata.op_adv
                0x000000008084c504      0x100 cmd/built-in.o
                0x000000008084c504                op_adv
 .rodata.op_table
                0x000000008084c604       0x68 cmd/built-in.o
 .rodata.phy_interface_strings
                0x000000008084c66c       0x44 drivers/net/phy/built-in.o
 .rodata.reg_0_5_desc_tbl
                0x000000008084c6b0       0x30 cmd/built-in.o
 .rodata.reg_0_desc_tbl
                0x000000008084c6e0       0x78 cmd/built-in.o
 .rodata.reg_1_desc_tbl
                0x000000008084c758       0xc0 cmd/built-in.o
 .rodata.reg_2_desc_tbl
                0x000000008084c818        0xc cmd/built-in.o
 .rodata.reg_3_desc_tbl
                0x000000008084c824       0x24 cmd/built-in.o
 .rodata.reg_4_desc_tbl
                0x000000008084c848       0x90 cmd/built-in.o
 .rodata.reg_5_desc_tbl
                0x000000008084c8d8       0x90 cmd/built-in.o
 .rodata.root_info
                0x000000008084c968        0x8 drivers/built-in.o
 .rodata.sd_au_size
                0x000000008084c970       0x40 drivers/built-in.o
 .rodata.smbios_write_funcs
                0x000000008084c9b0       0x1c lib/built-in.o
 .rodata.spi_flash_ids
                0x000000008084c9cc      0x1c8 drivers/mtd/spi/built-in.o
                0x000000008084c9cc                spi_flash_ids
 .rodata.subcmd_list
                0x000000008084cb94       0x10 cmd/built-in.o
 .rodata.ti_musb_ids
                0x000000008084cba4       0x10 drivers/usb/musb-new/built-in.o
 .rodata.uimage_arch
                0x000000008084cbb4      0x138 common/built-in.o
 .rodata.uimage_comp
                0x000000008084ccec       0x54 common/built-in.o
 .rodata.uimage_os
                0x000000008084cd40       0x78 common/built-in.o
 .rodata.uimage_type
                0x000000008084cdb8      0x180 common/built-in.o
 .rodata.usb_dr_modes
                0x000000008084cf38       0x10 drivers/usb/common/built-in.o
 .rodata.usb_eth_ops
                0x000000008084cf48       0x1c drivers/usb/gadget/built-in.o
 .rodata.usb_hub_ids
                0x000000008084cf64       0x10 common/built-in.o
 .rodata.usb_mass_storage_ids
                0x000000008084cf74       0x10 common/built-in.o
 .rodata.widths.10166
                0x000000008084cf84       0x14 drivers/built-in.o
 .rodata.crc16_tab
                0x000000008084cf98      0x200 lib/built-in.o
 .rodata.crc16_table
                0x000000008084d198      0x200 fs/built-in.o
 .rodata.dbase.8333
                0x000000008084d398       0x40 lib/built-in.o
 .rodata.dext.8334
                0x000000008084d3d8       0x40 lib/built-in.o
 .rodata.distfix
                0x000000008084d418       0x80 lib/built-in.o
 .rodata.lbase.8331
                0x000000008084d498       0x3e lib/built-in.o
 .rodata.lenfix
                0x000000008084d4d6      0x800 lib/built-in.o
 .rodata.lext.8332
                0x000000008084dcd6       0x3e lib/built-in.o
 .rodata.order.8427
                0x000000008084dd14       0x26 lib/built-in.o
 .rodata        0x000000008084dd3a       0x16 cmd/built-in.o
 .rodata        0x000000008084dd50       0x10 disk/built-in.o
 .rodata        0x000000008084dd60        0x3 env/built-in.o
 .rodata        0x000000008084dd63       0x20 lib/built-in.o
 .rodata        0x000000008084dd83        0x7 net/built-in.o
 .rodata.CSWTCH.100
                0x000000008084dd8a        0x5 drivers/net/built-in.o
 .rodata.CSWTCH.101
                0x000000008084dd8f        0x5 drivers/net/built-in.o
 .rodata.CSWTCH.66
                0x000000008084dd94       0x16 common/built-in.o
 .rodata.__FUNCTION__.10110
                0x000000008084ddaa       0x11 drivers/mtd/nand/built-in.o
 .rodata.__FUNCTION__.10547
                0x000000008084ddbb       0x12 drivers/mtd/nand/built-in.o
 .rodata.__FUNCTION__.10837
                0x000000008084ddcd        0xe drivers/mtd/nand/built-in.o
 .rodata.__FUNCTION__.11199
                0x000000008084dddb        0xf drivers/mtd/nand/built-in.o
 .rodata.__FUNCTION__.11395
                0x000000008084ddea       0x12 drivers/usb/musb-new/built-in.o
 .rodata.__FUNCTION__.11525
                0x000000008084ddfc       0x11 drivers/usb/gadget/built-in.o
 .rodata.__FUNCTION__.8956
                0x000000008084de0d       0x17 common/built-in.o
 .rodata.__FUNCTION__.9104
                0x000000008084de24       0x17 common/built-in.o
 .rodata.__FUNCTION__.9428
                0x000000008084de3b        0xb drivers/mtd/nand/built-in.o
 .rodata.__FUNCTION__.9571
                0x000000008084de46       0x11 drivers/mtd/nand/built-in.o
 .rodata.__func__.10000
                0x000000008084de57       0x15 lib/built-in.o
 .rodata.__func__.10020
                0x000000008084de6c       0x13 drivers/gpio/built-in.o
 .rodata.__func__.10034
                0x000000008084de7f       0x10 lib/built-in.o
 .rodata.__func__.10092
                0x000000008084de8f       0x16 lib/built-in.o
 .rodata.__func__.10101
                0x000000008084dea5       0x12 drivers/gpio/built-in.o
 .rodata.__func__.10107
                0x000000008084deb7       0x19 lib/built-in.o
 .rodata.__func__.10153
                0x000000008084ded0       0x14 drivers/gpio/built-in.o
 .rodata.__func__.10160
                0x000000008084dee4        0xf lib/built-in.o
 .rodata.__func__.10181
                0x000000008084def3       0x13 lib/built-in.o
 .rodata.__func__.10191
                0x000000008084df06       0x15 lib/built-in.o
 .rodata.__func__.10196
                0x000000008084df1b        0x9 drivers/built-in.o
 .rodata.__func__.10203
                0x000000008084df24       0x16 lib/built-in.o
 .rodata.__func__.10209
                0x000000008084df3a       0x30 lib/built-in.o
 .rodata.__func__.10237
                0x000000008084df6a       0x10 cmd/built-in.o
 .rodata.__func__.10255
                0x000000008084df7a       0x13 lib/built-in.o
 .rodata.__func__.10265
                0x000000008084df8d       0x15 lib/built-in.o
 .rodata.__func__.10282
                0x000000008084dfa2       0x1c lib/built-in.o
 .rodata.__func__.10420
                0x000000008084dfbe       0x13 common/built-in.o
 .rodata.__func__.10487
                0x000000008084dfd1       0x19 drivers/usb/host/built-in.o
 .rodata.__func__.10513
                0x000000008084dfea       0x16 common/built-in.o
 .rodata.__func__.10519
                0x000000008084e000        0xf drivers/usb/host/built-in.o
 .rodata.__func__.10526
                0x000000008084e00f       0x12 common/built-in.o
 .rodata.__func__.10538
                0x000000008084e021       0x10 drivers/usb/host/built-in.o
 .rodata.__func__.10558
                0x000000008084e031       0x13 common/built-in.o
 .rodata.__func__.10573
                0x000000008084e044        0xc drivers/usb/host/built-in.o
 .rodata.__func__.10661
                0x000000008084e050       0x18 drivers/built-in.o
 .rodata.__func__.10666
                0x000000008084e068       0x10 drivers/built-in.o
 .rodata.__func__.10684
                0x000000008084e078        0xe common/built-in.o
 .rodata.__func__.10685
                0x000000008084e086       0x14 drivers/built-in.o
 .rodata.__func__.10697
                0x000000008084e09a       0x16 drivers/built-in.o
 .rodata.__func__.10702
                0x000000008084e0b0        0xf common/built-in.o
 .rodata.__func__.10737
                0x000000008084e0bf       0x12 common/built-in.o
 .rodata.__func__.10761
                0x000000008084e0d1       0x19 drivers/built-in.o
 .rodata.__func__.10777
                0x000000008084e0ea       0x14 drivers/built-in.o
 .rodata.__func__.10802
                0x000000008084e0fe       0x16 drivers/built-in.o
 .rodata.__func__.10815
                0x000000008084e114        0xc drivers/built-in.o
 .rodata.__func__.10820
                0x000000008084e120       0x12 drivers/built-in.o
 .rodata.__func__.10825
                0x000000008084e132        0xe drivers/built-in.o
 .rodata.__func__.10826
                0x000000008084e140       0x17 drivers/built-in.o
 .rodata.__func__.10835
                0x000000008084e157       0x19 drivers/built-in.o
 .rodata.__func__.10850
                0x000000008084e170        0xa drivers/built-in.o
 .rodata.__func__.10860
                0x000000008084e17a        0xf drivers/built-in.o
 .rodata.__func__.10863
                0x000000008084e189       0x15 drivers/built-in.o
 .rodata.__func__.10873
                0x000000008084e19e        0x9 drivers/built-in.o
 .rodata.__func__.10882
                0x000000008084e1a7       0x10 drivers/built-in.o
 .rodata.__func__.10907
                0x000000008084e1b7       0x14 drivers/built-in.o
 .rodata.__func__.10928
                0x000000008084e1cb       0x13 drivers/built-in.o
 .rodata.__func__.10984
                0x000000008084e1de        0xc drivers/usb/gadget/built-in.o
 .rodata.__func__.10994
                0x000000008084e1ea        0xc drivers/usb/gadget/built-in.o
 .rodata.__func__.11004
                0x000000008084e1f6        0x8 drivers/usb/gadget/built-in.o
 .rodata.__func__.11017
                0x000000008084e1fe       0x11 drivers/usb/gadget/built-in.o
 .rodata.__func__.11051
                0x000000008084e20f       0x17 drivers/usb/gadget/built-in.o
 .rodata.__func__.11062
                0x000000008084e226        0xa drivers/usb/gadget/built-in.o
 .rodata.__func__.11107
                0x000000008084e230        0xd drivers/built-in.o
 .rodata.__func__.11109
                0x000000008084e23d        0xa drivers/usb/gadget/built-in.o
 .rodata.__func__.11114
                0x000000008084e247       0x13 common/built-in.o
 .rodata.__func__.11115
                0x000000008084e25a        0xc drivers/usb/gadget/built-in.o
 .rodata.__func__.11132
                0x000000008084e266        0xc drivers/built-in.o
 .rodata.__func__.11132
                0x000000008084e272        0xf drivers/usb/gadget/built-in.o
 .rodata.__func__.11138
                0x000000008084e281        0xc drivers/usb/gadget/built-in.o
 .rodata.__func__.11150
                0x000000008084e28d       0x15 drivers/built-in.o
 .rodata.__func__.11151
                0x000000008084e2a2        0xb drivers/usb/gadget/built-in.o
 .rodata.__func__.11164
                0x000000008084e2ad       0x18 drivers/built-in.o
 .rodata.__func__.11166
                0x000000008084e2c5       0x1b drivers/usb/gadget/built-in.o
 .rodata.__func__.11182
                0x000000008084e2e0       0x1c drivers/net/built-in.o
 .rodata.__func__.11185
                0x000000008084e2fc       0x14 drivers/built-in.o
 .rodata.__func__.11200
                0x000000008084e310       0x14 drivers/built-in.o
 .rodata.__func__.11219
                0x000000008084e324        0x9 drivers/usb/gadget/built-in.o
 .rodata.__func__.11229
                0x000000008084e32d        0xc drivers/usb/gadget/built-in.o
 .rodata.__func__.11237
                0x000000008084e339        0xe drivers/usb/gadget/built-in.o
 .rodata.__func__.11253
                0x000000008084e347        0xe drivers/usb/gadget/built-in.o
 .rodata.__func__.11283
                0x000000008084e355        0xd drivers/usb/gadget/built-in.o
 .rodata.__func__.11298
                0x000000008084e362        0xd drivers/usb/gadget/built-in.o
 .rodata.__func__.11307
                0x000000008084e36f        0xf drivers/usb/gadget/built-in.o
 .rodata.__func__.11328
                0x000000008084e37e        0xb drivers/usb/gadget/built-in.o
 .rodata.__func__.11351
                0x000000008084e389        0xf drivers/usb/gadget/built-in.o
 .rodata.__func__.11384
                0x000000008084e398        0xf drivers/usb/musb-new/built-in.o
 .rodata.__func__.11425
                0x000000008084e3a7       0x10 drivers/usb/musb-new/built-in.o
 .rodata.__func__.11437
                0x000000008084e3b7       0x15 drivers/usb/musb-new/built-in.o
 .rodata.__func__.11448
                0x000000008084e3cc       0x14 drivers/usb/musb-new/built-in.o
 .rodata.__func__.11453
                0x000000008084e3e0       0x19 drivers/usb/gadget/built-in.o
 .rodata.__func__.11462
                0x000000008084e3f9        0xf drivers/usb/musb-new/built-in.o
 .rodata.__func__.11510
                0x000000008084e408        0xd drivers/usb/musb-new/built-in.o
 .rodata.__func__.11524
                0x000000008084e415        0xf drivers/usb/musb-new/built-in.o
 .rodata.__func__.11547
                0x000000008084e424       0x12 drivers/usb/gadget/built-in.o
 .rodata.__func__.11560
                0x000000008084e436       0x11 drivers/usb/gadget/built-in.o
 .rodata.__func__.11590
                0x000000008084e447        0xd drivers/usb/gadget/built-in.o
 .rodata.__func__.11606
                0x000000008084e454       0x10 drivers/usb/gadget/built-in.o
 .rodata.__func__.11662
                0x000000008084e464        0xb drivers/usb/gadget/built-in.o
 .rodata.__func__.11669
                0x000000008084e46f        0xf drivers/usb/gadget/built-in.o
 .rodata.__func__.11949
                0x000000008084e47e        0xe drivers/built-in.o
 .rodata.__func__.11973
                0x000000008084e48c       0x16 drivers/built-in.o
 .rodata.__func__.11988
                0x000000008084e4a2       0x15 drivers/built-in.o
 .rodata.__func__.11996
                0x000000008084e4b7       0x16 drivers/built-in.o
 .rodata.__func__.12013
                0x000000008084e4cd       0x15 drivers/built-in.o
 .rodata.__func__.12717
                0x000000008084e4e2       0x15 board/ti/am335x/built-in.o
 .rodata.__func__.13026
                0x000000008084e4f7        0xf arch/arm/mach-omap2/built-in.o
 .rodata.__func__.7934
                0x000000008084e506       0x14 arch/arm/mach-omap2/built-in.o
 .rodata.__func__.7937
                0x000000008084e51a       0x10 drivers/usb/common/built-in.o
 .rodata.__func__.7973
                0x000000008084e52a       0x10 lib/built-in.o
 .rodata.__func__.8040
                0x000000008084e53a        0xf disk/built-in.o
 .rodata.__func__.8099
                0x000000008084e549        0xa disk/built-in.o
 .rodata.__func__.8107
                0x000000008084e553        0x6 lib/built-in.o
 .rodata.__func__.8125
                0x000000008084e559        0xe common/built-in.o
 .rodata.__func__.8128
                0x000000008084e567       0x1a env/built-in.o
 .rodata.__func__.8129
                0x000000008084e581        0xe common/built-in.o
 .rodata.__func__.8131
                0x000000008084e58f        0x6 lib/built-in.o
 .rodata.__func__.8134
                0x000000008084e595        0xd env/built-in.o
 .rodata.__func__.8140
                0x000000008084e5a2        0x9 env/built-in.o
 .rodata.__func__.8146
                0x000000008084e5ab        0x9 env/built-in.o
 .rodata.__func__.8151
                0x000000008084e5b4        0xf common/built-in.o
 .rodata.__func__.8152
                0x000000008084e5c3        0x9 env/built-in.o
 .rodata.__func__.8155
                0x000000008084e5cc        0x9 net/built-in.o
 .rodata.__func__.8157
                0x000000008084e5d5       0x14 common/built-in.o
 .rodata.__func__.8162
                0x000000008084e5e9       0x15 common/built-in.o
 .rodata.__func__.8170
                0x000000008084e5fe       0x18 common/built-in.o
 .rodata.__func__.8170
                0x000000008084e616       0x11 net/built-in.o
 .rodata.__func__.8178
                0x000000008084e627       0x10 env/built-in.o
 .rodata.__func__.8179
                0x000000008084e637       0x10 net/built-in.o
 .rodata.__func__.8184
                0x000000008084e647       0x12 common/built-in.o
 .rodata.__func__.8185
                0x000000008084e659       0x14 net/built-in.o
 .rodata.__func__.8191
                0x000000008084e66d       0x11 net/built-in.o
 .rodata.__func__.8194
                0x000000008084e67e        0xb env/built-in.o
 .rodata.__func__.8201
                0x000000008084e689        0xb env/built-in.o
 .rodata.__func__.8213
                0x000000008084e694       0x13 net/built-in.o
 .rodata.__func__.8222
                0x000000008084e6a7        0xf net/built-in.o
 .rodata.__func__.8236
                0x000000008084e6b6        0xc net/built-in.o
 .rodata.__func__.8248
                0x000000008084e6c2        0xa net/built-in.o
 .rodata.__func__.8284
                0x000000008084e6cc        0x9 common/built-in.o
 .rodata.__func__.8320
                0x000000008084e6d5       0x14 drivers/usb/gadget/built-in.o
 .rodata.__func__.8354
                0x000000008084e6e9        0xd common/built-in.o
 .rodata.__func__.8365
                0x000000008084e6f6       0x12 drivers/usb/gadget/built-in.o
 .rodata.__func__.8381
                0x000000008084e708       0x15 drivers/usb/gadget/built-in.o
 .rodata.__func__.8404
                0x000000008084e71d       0x13 fs/built-in.o
 .rodata.__func__.8405
                0x000000008084e730       0x14 net/built-in.o
 .rodata.__func__.8407
                0x000000008084e744        0xd cmd/built-in.o
 .rodata.__func__.8415
                0x000000008084e751        0xf fs/built-in.o
 .rodata.__func__.8437
                0x000000008084e760       0x11 drivers/usb/gadget/built-in.o
 .rodata.__func__.8448
                0x000000008084e771       0x13 fs/built-in.o
 .rodata.__func__.8451
                0x000000008084e784        0x7 cmd/built-in.o
 .rodata.__func__.8455
                0x000000008084e78b        0xf drivers/usb/gadget/built-in.o
 .rodata.__func__.8457
                0x000000008084e79a       0x14 fs/built-in.o
 .rodata.__func__.8462
                0x000000008084e7ae       0x11 drivers/usb/gadget/built-in.o
 .rodata.__func__.8470
                0x000000008084e7bf       0x14 drivers/usb/gadget/built-in.o
 .rodata.__func__.8476
                0x000000008084e7d3       0x17 drivers/usb/gadget/built-in.o
 .rodata.__func__.8482
                0x000000008084e7ea       0x17 drivers/usb/gadget/built-in.o
 .rodata.__func__.8524
                0x000000008084e801        0xd drivers/usb/gadget/built-in.o
 .rodata.__func__.8558
                0x000000008084e80e        0xf lib/built-in.o
 .rodata.__func__.8589
                0x000000008084e81d        0xe cmd/built-in.o
 .rodata.__func__.8626
                0x000000008084e82b        0xe cmd/built-in.o
 .rodata.__func__.8630
                0x000000008084e839       0x11 lib/built-in.o
 .rodata.__func__.8637
                0x000000008084e84a       0x11 lib/built-in.o
 .rodata.__func__.8644
                0x000000008084e85b       0x14 lib/built-in.o
 .rodata.__func__.8648
                0x000000008084e86f       0x24 lib/built-in.o
 .rodata.__func__.8650
                0x000000008084e893       0x17 fs/built-in.o
 .rodata.__func__.8657
                0x000000008084e8aa       0x20 lib/built-in.o
 .rodata.__func__.8663
                0x000000008084e8ca        0xf lib/built-in.o
 .rodata.__func__.8677
                0x000000008084e8d9       0x17 lib/built-in.o
 .rodata.__func__.8687
                0x000000008084e8f0       0x15 lib/built-in.o
 .rodata.__func__.8701
                0x000000008084e905       0x14 lib/built-in.o
 .rodata.__func__.8723
                0x000000008084e919       0x12 lib/built-in.o
 .rodata.__func__.8732
                0x000000008084e92b       0x17 lib/built-in.o
 .rodata.__func__.8738
                0x000000008084e942       0x16 lib/built-in.o
 .rodata.__func__.8744
                0x000000008084e958       0x13 lib/built-in.o
 .rodata.__func__.8746
                0x000000008084e96b       0x1d lib/built-in.o
 .rodata.__func__.8750
                0x000000008084e988       0x12 lib/built-in.o
 .rodata.__func__.8753
                0x000000008084e99a       0x17 lib/built-in.o
 .rodata.__func__.8761
                0x000000008084e9b1        0xe lib/built-in.o
 .rodata.__func__.8770
                0x000000008084e9bf        0xe disk/built-in.o
 .rodata.__func__.8770
                0x000000008084e9cd       0x18 lib/built-in.o
 .rodata.__func__.8780
                0x000000008084e9e5        0xf disk/built-in.o
 .rodata.__func__.8781
                0x000000008084e9f4        0xf lib/built-in.o
 .rodata.__func__.8784
                0x000000008084ea03       0x11 lib/built-in.o
 .rodata.__func__.8789
                0x000000008084ea14       0x10 lib/built-in.o
 .rodata.__func__.8792
                0x000000008084ea24       0x12 disk/built-in.o
 .rodata.__func__.8794
                0x000000008084ea36        0xe lib/built-in.o
 .rodata.__func__.8797
                0x000000008084ea44       0x19 lib/built-in.o
 .rodata.__func__.8800
                0x000000008084ea5d       0x10 lib/built-in.o
 .rodata.__func__.8803
                0x000000008084ea6d       0x13 disk/built-in.o
 .rodata.__func__.8808
                0x000000008084ea80       0x17 lib/built-in.o
 .rodata.__func__.8815
                0x000000008084ea97        0xc lib/built-in.o
 .rodata.__func__.8816
                0x000000008084eaa3       0x13 lib/built-in.o
 .rodata.__func__.8819
                0x000000008084eab6        0xe lib/built-in.o
 .rodata.__func__.8821
                0x000000008084eac4       0x18 common/built-in.o
 .rodata.__func__.8825
                0x000000008084eadc        0xd lib/built-in.o
 .rodata.__func__.8827
                0x000000008084eae9       0x25 lib/built-in.o
 .rodata.__func__.8833
                0x000000008084eb0e       0x13 lib/built-in.o
 .rodata.__func__.8836
                0x000000008084eb21       0x16 lib/built-in.o
 .rodata.__func__.8840
                0x000000008084eb37        0xd disk/built-in.o
 .rodata.__func__.8840
                0x000000008084eb44        0xe lib/built-in.o
 .rodata.__func__.8843
                0x000000008084eb52       0x12 lib/built-in.o
 .rodata.__func__.8846
                0x000000008084eb64       0x11 lib/built-in.o
 .rodata.__func__.8857
                0x000000008084eb75       0x18 lib/built-in.o
 .rodata.__func__.8864
                0x000000008084eb8d       0x1c fs/built-in.o
 .rodata.__func__.8865
                0x000000008084eba9        0xc disk/built-in.o
 .rodata.__func__.8865
                0x000000008084ebb5       0x18 lib/built-in.o
 .rodata.__func__.8870
                0x000000008084ebcd       0x15 lib/built-in.o
 .rodata.__func__.8874
                0x000000008084ebe2       0x13 lib/built-in.o
 .rodata.__func__.8883
                0x000000008084ebf5       0x13 disk/built-in.o
 .rodata.__func__.8883
                0x000000008084ec08       0x15 lib/built-in.o
 .rodata.__func__.8893
                0x000000008084ec1d        0xf lib/built-in.o
 .rodata.__func__.8896
                0x000000008084ec2c       0x16 disk/built-in.o
 .rodata.__func__.8901
                0x000000008084ec42       0x13 lib/built-in.o
 .rodata.__func__.8902
                0x000000008084ec55       0x12 lib/built-in.o
 .rodata.__func__.8912
                0x000000008084ec67       0x13 lib/built-in.o
 .rodata.__func__.8913
                0x000000008084ec7a       0x11 lib/built-in.o
 .rodata.__func__.8931
                0x000000008084ec8b       0x10 lib/built-in.o
 .rodata.__func__.8933
                0x000000008084ec9b        0xd disk/built-in.o
 .rodata.__func__.8937
                0x000000008084eca8       0x15 lib/built-in.o
 .rodata.__func__.8942
                0x000000008084ecbd       0x17 disk/built-in.o
 .rodata.__func__.8947
                0x000000008084ecd4        0xd disk/built-in.o
 .rodata.__func__.8948
                0x000000008084ece1       0x10 lib/built-in.o
 .rodata.__func__.8957
                0x000000008084ecf1       0x11 drivers/usb/gadget/built-in.o
 .rodata.__func__.8960
                0x000000008084ed02       0x10 lib/built-in.o
 .rodata.__func__.8964
                0x000000008084ed12        0xd drivers/usb/gadget/built-in.o
 .rodata.__func__.8999
                0x000000008084ed1f        0xa drivers/usb/gadget/built-in.o
 .rodata.__func__.9004
                0x000000008084ed29       0x23 lib/built-in.o
 .rodata.__func__.9013
                0x000000008084ed4c       0x21 lib/built-in.o
 .rodata.__func__.9043
                0x000000008084ed6d       0x25 lib/built-in.o
 .rodata.__func__.9051
                0x000000008084ed92       0x1d lib/built-in.o
 .rodata.__func__.9065
                0x000000008084edaf       0x13 drivers/usb/gadget/built-in.o
 .rodata.__func__.9096
                0x000000008084edc2       0x16 lib/built-in.o
 .rodata.__func__.9104
                0x000000008084edd8       0x17 lib/built-in.o
 .rodata.__func__.9125
                0x000000008084edef       0x24 lib/built-in.o
 .rodata.__func__.9139
                0x000000008084ee13        0xf lib/built-in.o
 .rodata.__func__.9153
                0x000000008084ee22       0x10 lib/built-in.o
 .rodata.__func__.9165
                0x000000008084ee32        0x9 lib/built-in.o
 .rodata.__func__.9180
                0x000000008084ee3b       0x11 lib/built-in.o
 .rodata.__func__.9190
                0x000000008084ee4c       0x17 lib/built-in.o
 .rodata.__func__.9197
                0x000000008084ee63       0x1d lib/built-in.o
 .rodata.__func__.9203
                0x000000008084ee80        0xa lib/built-in.o
 .rodata.__func__.9212
                0x000000008084ee8a       0x17 lib/built-in.o
 .rodata.__func__.9219
                0x000000008084eea1       0x17 lib/built-in.o
 .rodata.__func__.9227
                0x000000008084eeb8       0x1a lib/built-in.o
 .rodata.__func__.9236
                0x000000008084eed2       0x13 lib/built-in.o
 .rodata.__func__.9245
                0x000000008084eee5       0x1e lib/built-in.o
 .rodata.__func__.9259
                0x000000008084ef03       0x19 lib/built-in.o
 .rodata.__func__.9287
                0x000000008084ef1c       0x19 lib/built-in.o
 .rodata.__func__.9298
                0x000000008084ef35       0x14 lib/built-in.o
 .rodata.__func__.9319
                0x000000008084ef49       0x29 lib/built-in.o
 .rodata.__func__.9339
                0x000000008084ef72       0x2b lib/built-in.o
 .rodata.__func__.9347
                0x000000008084ef9d       0x14 lib/built-in.o
 .rodata.__func__.9355
                0x000000008084efb1        0xd lib/built-in.o
 .rodata.__func__.9361
                0x000000008084efbe        0xc lib/built-in.o
 .rodata.__func__.9373
                0x000000008084efca       0x12 lib/built-in.o
 .rodata.__func__.9442
                0x000000008084efdc        0xe drivers/built-in.o
 .rodata.__func__.9457
                0x000000008084efea        0xe drivers/built-in.o
 .rodata.__func__.9479
                0x000000008084eff8        0xb drivers/built-in.o
 .rodata.__func__.9588
                0x000000008084f003        0xb cmd/built-in.o
 .rodata.__func__.9623
                0x000000008084f00e       0x1c drivers/net/built-in.o
 .rodata.__func__.9629
                0x000000008084f02a        0xd cmd/built-in.o
 .rodata.__func__.9641
                0x000000008084f037       0x19 drivers/net/built-in.o
 .rodata.__func__.9653
                0x000000008084f050       0x10 drivers/built-in.o
 .rodata.__func__.9659
                0x000000008084f060       0x1a drivers/built-in.o
 .rodata.__func__.9661
                0x000000008084f07a       0x18 drivers/built-in.o
 .rodata.__func__.9675
                0x000000008084f092       0x11 drivers/i2c/built-in.o
 .rodata.__func__.9699
                0x000000008084f0a3       0x16 drivers/built-in.o
 .rodata.__func__.9711
                0x000000008084f0b9       0x10 drivers/built-in.o
 .rodata.__func__.9729
                0x000000008084f0c9       0x14 net/built-in.o
 .rodata.__func__.9735
                0x000000008084f0dd       0x17 drivers/built-in.o
 .rodata.__func__.9776
                0x000000008084f0f4       0x10 drivers/i2c/built-in.o
 .rodata.__func__.9784
                0x000000008084f104       0x13 drivers/i2c/built-in.o
 .rodata.__func__.9786
                0x000000008084f117        0xd drivers/i2c/built-in.o
 .rodata.__func__.9807
                0x000000008084f124        0xd drivers/i2c/built-in.o
 .rodata.__func__.9812
                0x000000008084f131       0x1b lib/built-in.o
 .rodata.__func__.9821
                0x000000008084f14c        0x9 net/built-in.o
 .rodata.__func__.9822
                0x000000008084f155       0x13 drivers/built-in.o
 .rodata.__func__.9824
                0x000000008084f168       0x21 lib/built-in.o
 .rodata.__func__.9832
                0x000000008084f189        0xd drivers/built-in.o
 .rodata.__func__.9833
                0x000000008084f196        0x7 net/built-in.o
 .rodata.__func__.9834
                0x000000008084f19d       0x23 lib/built-in.o
 .rodata.__func__.9838
                0x000000008084f1c0       0x11 drivers/built-in.o
 .rodata.__func__.9842
                0x000000008084f1d1       0x18 drivers/built-in.o
 .rodata.__func__.9846
                0x000000008084f1e9       0x18 drivers/built-in.o
 .rodata.__func__.9850
                0x000000008084f201        0xd drivers/built-in.o
 .rodata.__func__.9851
                0x000000008084f20e       0x1c drivers/i2c/built-in.o
 .rodata.__func__.9854
                0x000000008084f22a       0x14 drivers/built-in.o
 .rodata.__func__.9858
                0x000000008084f23e       0x14 drivers/built-in.o
 .rodata.__func__.9931
                0x000000008084f252        0xc cmd/built-in.o
 .rodata.__func__.9941
                0x000000008084f25e        0xa drivers/built-in.o
 .rodata.__func__.9955
                0x000000008084f268       0x14 cmd/built-in.o
 .rodata.__func__.9979
                0x000000008084f27c       0x16 lib/built-in.o
 .rodata.__func__.9989
                0x000000008084f292       0x17 lib/built-in.o
 .rodata._ctype
                0x000000008084f2a9      0x100 lib/built-in.o
                0x000000008084f2a9                _ctype
 .rodata.acm_descriptor
                0x000000008084f3a9        0x4 drivers/usb/gadget/built-in.o
 .rodata.call_mgmt_descriptor
                0x000000008084f3ad        0x5 drivers/usb/gadget/built-in.o
 .rodata.default_environment
                0x000000008084f3b2     0x22a1 env/built-in.o
                0x000000008084f3b2                default_environment
 .rodata.dfu_func
                0x0000000080851653        0x9 drivers/usb/gadget/built-in.o
 .rodata.dfu_name
                0x000000008085165c       0x18 drivers/usb/gadget/built-in.o
 .rodata.digits.8031
                0x0000000080851674       0x10 lib/built-in.o
 .rodata.driver_desc
                0x0000000080851684       0x10 drivers/usb/gadget/built-in.o
 .rodata.efi_block_io_guid
                0x0000000080851694       0x10 lib/built-in.o
 .rodata.efi_guid_console_control
                0x00000000808516a4       0x10 lib/built-in.o
                0x00000000808516a4                efi_guid_console_control
 .rodata.efi_guid_device_path
                0x00000000808516b4       0x10 lib/built-in.o
                0x00000000808516b4                efi_guid_device_path
 .rodata.efi_guid_device_path_to_text_protocol
                0x00000000808516c4       0x10 lib/built-in.o
                0x00000000808516c4                efi_guid_device_path_to_text_protocol
 .rodata.efi_guid_loaded_image
                0x00000000808516d4       0x10 lib/built-in.o
                0x00000000808516d4                efi_guid_loaded_image
 .rodata.efi_net_guid
                0x00000000808516e4       0x10 lib/built-in.o
 .rodata.efi_pxe_guid
                0x00000000808516f4       0x10 lib/built-in.o
 .rodata.env_flags_varaccess_rep
                0x0000000080851704        0x5 env/built-in.o
 .rodata.env_flags_vartype_rep
                0x0000000080851709        0x7 env/built-in.o
 .rodata.erase_seq
                0x0000000080851710        0x4 common/built-in.o
 .rodata.fastboot_name
                0x0000000080851714       0x11 drivers/usb/gadget/built-in.o
 .rodata.header_desc
                0x0000000080851725        0x5 drivers/usb/gadget/built-in.o
 .rodata.hex_asc
                0x000000008085172a       0x11 lib/built-in.o
 .rodata.lzop_magic
                0x000000008085173b        0x9 lib/built-in.o
 .rodata.manufacturer
                0x0000000080851744       0x12 drivers/usb/gadget/built-in.o
 .rodata.multipliers
                0x0000000080851756       0x10 drivers/built-in.o
 .rodata.musb_driver_name
                0x0000000080851766        0xa drivers/usb/musb-new/built-in.o
                0x0000000080851766                musb_driver_name
 .rodata.musb_test_packet
                0x0000000080851770       0x35 drivers/usb/musb-new/built-in.o
 .rodata.names.8193
                0x00000000808517a5        0x6 lib/built-in.o
 .rodata.nand_ecc_precalc_table
                0x00000000808517ab      0x100 drivers/mtd/nand/built-in.o
 .rodata.net_bcast_ethaddr
                0x00000000808518ab        0x6 net/built-in.o
                0x00000000808518ab                net_bcast_ethaddr
 .rodata.product
                0x00000000808518b1       0x14 drivers/usb/gadget/built-in.o
 .rodata.rndis_control_intf
                0x00000000808518c5        0x9 drivers/usb/gadget/built-in.o
 .rodata.rndis_data_intf
                0x00000000808518ce        0x9 drivers/usb/gadget/built-in.o
 .rodata.sha1_padding
                0x00000000808518d7       0x40 lib/built-in.o
 .rodata.smbios_guid
                0x0000000080851917       0x10 lib/built-in.o
 .rodata.str1.1
                0x0000000080851927      0x1d1 board/ti/am335x/built-in.o
                                        0x1dd (size before relaxing)
 .rodata.str1.1
                0x0000000080851af8      0x44b arch/arm/lib/built-in.o
                                        0x492 (size before relaxing)
 .rodata.str1.1
                0x0000000080851f43      0x317 arch/arm/mach-omap2/built-in.o
                                        0x329 (size before relaxing)
 .rodata.str1.1
                0x000000008085225a       0x69 board/ti/common/built-in.o
                                         0x6e (size before relaxing)
 .rodata.str1.1
                0x00000000808522c3     0x7e8d cmd/built-in.o
                                       0x877e (size before relaxing)
 .rodata.str1.1
                0x000000008085a150     0x4e86 common/built-in.o
                                       0x539c (size before relaxing)
 .rodata.str1.1
                0x000000008085efd6      0xe2f disk/built-in.o
                                        0xe82 (size before relaxing)
 .rodata.str1.1
                0x000000008085fe05     0x1892 drivers/built-in.o
                                       0x1adb (size before relaxing)
 .rodata.str1.1
                0x0000000080861697      0x207 drivers/gpio/built-in.o
                                        0x224 (size before relaxing)
 .rodata.str1.1
                0x000000008086189e      0x5a9 drivers/i2c/built-in.o
                                        0x5d2 (size before relaxing)
 .rodata.str1.1
                0x0000000080861e47       0xee drivers/mtd/built-in.o
                                        0x12c (size before relaxing)
 .rodata.str1.1
                0x0000000080861f35      0xc33 drivers/mtd/nand/built-in.o
                                        0xc5c (size before relaxing)
 .rodata.str1.1
                0x0000000080862b68      0x516 drivers/mtd/spi/built-in.o
                                        0x519 (size before relaxing)
 .rodata.str1.1
                0x000000008086307e      0x475 drivers/net/built-in.o
                                        0x4a6 (size before relaxing)
 .rodata.str1.1
                0x00000000808634f3      0x22e drivers/net/phy/built-in.o
                                        0x25f (size before relaxing)
 .rodata.str1.1
                0x0000000080863721      0x145 drivers/serial/built-in.o
                                        0x19f (size before relaxing)
 .rodata.str1.1
                0x0000000080863866      0x15c drivers/spi/built-in.o
                                        0x175 (size before relaxing)
 .rodata.str1.1
                0x00000000808639c2       0x63 drivers/usb/common/built-in.o
                                         0x69 (size before relaxing)
 .rodata.str1.1
                0x0000000080863a25     0x127c drivers/usb/gadget/built-in.o
                                       0x1379 (size before relaxing)
 .rodata.str1.1
                0x0000000080864ca1      0x289 drivers/usb/host/built-in.o
                                        0x2a5 (size before relaxing)
 .rodata.str1.1
                0x0000000080864f2a      0xfb6 drivers/usb/musb-new/built-in.o
                                       0x1093 (size before relaxing)
 .rodata.str1.1
                0x0000000080865ee0      0x4ea env/built-in.o
                                        0x587 (size before relaxing)
 .rodata.str1.1
                0x00000000808663ca     0x137a fs/built-in.o
                                       0x146d (size before relaxing)
 .rodata.str1.1
                0x0000000080867744     0x21d3 lib/built-in.o
                                       0x2622 (size before relaxing)
 .rodata.str1.1
                0x0000000080869917      0xb7e net/built-in.o
                                        0xd39 (size before relaxing)
 .rodata.str1.1
                0x000000008086a495       0xdc test/dm/built-in.o
                                         0xe2 (size before relaxing)
 .rodata.tab_seq
                0x000000008086a571        0x9 common/built-in.o
 .rodata.union_desc
                0x000000008086a57a        0x5 drivers/usb/gadget/built-in.o
 .rodata.us_direction
                0x000000008086a57f       0x20 common/built-in.o
 .rodata.version_string
                0x000000008086a59f       0x2e cmd/built-in.o
                0x000000008086a59f                version_string
                0x000000008086a5d0                . = ALIGN (0x4)

.data           0x000000008086a5d0     0x7364
 *(.data*)
 .data.cdce913_data
                0x000000008086a5d0       0x14 board/ti/am335x/built-in.o
 .data.cpu_revs_am43xx
                0x000000008086a5e4        0xc arch/arm/mach-omap2/built-in.o
 .data.cpu_revs
                0x000000008086a5f0        0xc arch/arm/mach-omap2/built-in.o
 .data.ctrl     0x000000008086a5fc        0x4 arch/arm/mach-omap2/built-in.o
                0x000000008086a5fc                ctrl
 .data.gpmc_cfg
                0x000000008086a600        0x4 arch/arm/mach-omap2/built-in.o
                0x000000008086a600                gpmc_cfg
 .data.gpmc_cs0_flash
                0x000000008086a604        0x1 arch/arm/mach-omap2/built-in.o
                0x000000008086a604                gpmc_cs0_flash
 .data.bootm_help_text
                0x000000008086a605      0x4cf cmd/built-in.o
 .data.cmd_bootm_sub
                0x000000008086aad4       0xfc cmd/built-in.o
 .data.source_help_text
                0x000000008086abd0       0xac cmd/built-in.o
 .data.bootefi_device_path
                0x000000008086ac7c       0x88 cmd/built-in.o
 .data.loaded_image_info_obj
                0x000000008086ad04       0x4c cmd/built-in.o
 .data.bootefi_image_path
                0x000000008086ad50       0x88 cmd/built-in.o
 .data.bootefi_help_text
                0x000000008086add8       0xbf cmd/built-in.o
 *fill*         0x000000008086ae97        0x1 
 .data.bootefi_device_obj
                0x000000008086ae98       0x4c cmd/built-in.o
 *fill*         0x000000008086aee4        0x4 
 .data.loaded_image_info
                0x000000008086aee8       0x60 cmd/built-in.o
 .data.bootz_help_text
                0x000000008086af48      0x208 cmd/built-in.o
 .data.tabs.8231
                0x000000008086b150       0x21 cmd/built-in.o
 .data.root.8144
                0x000000008086b171        0x2 cmd/built-in.o
 .data.fdt_help_text
                0x000000008086b173      0x648 cmd/built-in.o
 .data.i2c_help_text
                0x000000008086b7bb      0x3e9 cmd/built-in.o
 .data.cmd_i2c_sub
                0x000000008086bba4      0x1a4 cmd/built-in.o
 .data.i2c_dp_last_length
                0x000000008086bd48        0x4 cmd/built-in.o
 .data.do_echo  0x000000008086bd4c        0x4 cmd/built-in.o
 .data.dp_last_length
                0x000000008086bd50        0x4 cmd/built-in.o
 .data.curr_device
                0x000000008086bd54        0x4 cmd/built-in.o
 .data.cmd_mmc  0x000000008086bd58      0x118 cmd/built-in.o
 .data.mtdparts_help_text
                0x000000008086be70      0x4d3 cmd/built-in.o
 .data.nand_help_text
                0x000000008086c343      0x3ee cmd/built-in.o
 *fill*         0x000000008086c731        0x3 
 .data.cmd_pxe_sub
                0x000000008086c734       0x38 cmd/built-in.o
 .data.pxe_default_paths
                0x000000008086c76c       0x10 cmd/built-in.o
                0x000000008086c76c                pxe_default_paths
 .data.usb_stor_curr_dev
                0x000000008086c77c        0x4 cmd/built-in.o
 .data.imgextract_help_text
                0x000000008086c780       0xb2 cmd/built-in.o
 *fill*         0x000000008086c832        0x2 
 .data.cmd_spl_export_sub
                0x000000008086c834       0x38 cmd/built-in.o
 .data.__compound_literal.0
                0x000000008086c86c       0x20 cmd/built-in.o
 .data.__compound_literal.1
                0x000000008086c88c       0x1c cmd/built-in.o
 .data.cmd_spl_sub
                0x000000008086c8a8       0x1c cmd/built-in.o
 .data.env_help_text
                0x000000008086c8c4      0x28c cmd/built-in.o
 .data.env_id   0x000000008086cb50        0x4 cmd/built-in.o
 .data.cmd_env_sub
                0x000000008086cb54      0x134 cmd/built-in.o
 .data.hash_algo
                0x000000008086cc88       0x54 common/built-in.o
 .data.reserved_list
                0x000000008086ccdc       0x84 common/built-in.o
 .data.init_sequence_r
                0x000000008086cd60       0x98 common/built-in.o
 .data.of_busses
                0x000000008086cdf8       0x18 common/built-in.o
 .data.usb_scan_list
                0x000000008086ce10        0x8 common/built-in.o
 .data.hist_cur
                0x000000008086ce18        0x4 common/built-in.o
 .data.av_      0x000000008086ce1c      0x408 common/built-in.o
 .data.trim_threshold
                0x000000008086d224        0x4 common/built-in.o
 .data.sbrk_base
                0x000000008086d228        0x4 common/built-in.o
 .data.load_addr
                0x000000008086d22c        0x4 common/built-in.o
                0x000000008086d22c                load_addr
 .data.stdio_names
                0x000000008086d230        0xc common/built-in.o
                0x000000008086d230                stdio_names
 .data.zm_out   0x000000008086d23c        0x4 common/built-in.o
 .data.system_guid
                0x000000008086d240       0x10 disk/built-in.o
 .data.cur_dev_num
                0x000000008086d250        0x4 drivers/built-in.o
 .data.dfu_list
                0x000000008086d254        0x8 drivers/built-in.o
 .data.month_days
                0x000000008086d25c       0x30 drivers/built-in.o
 .data.wdt_trgr_pattern
                0x000000008086d28c        0x4 drivers/built-in.o
 .data          0x000000008086d290        0x4 drivers/i2c/built-in.o
 .data.nand_curr_device
                0x000000008086d294        0x4 drivers/mtd/nand/built-in.o
                0x000000008086d294                nand_curr_device
 .data.bbt_mirror_descr
                0x000000008086d298       0x24 drivers/mtd/nand/built-in.o
 .data.mirror_pattern
                0x000000008086d2bc        0x4 drivers/mtd/nand/built-in.o
 .data.bbt_main_no_oob_descr
                0x000000008086d2c0       0x24 drivers/mtd/nand/built-in.o
 .data.bbt_mirror_no_oob_descr
                0x000000008086d2e4       0x24 drivers/mtd/nand/built-in.o
 .data.bbt_pattern
                0x000000008086d308        0x4 drivers/mtd/nand/built-in.o
 .data.scan_ff_pattern
                0x000000008086d30c        0x2 drivers/mtd/nand/built-in.o
 *fill*         0x000000008086d30e        0x2 
 .data.bbt_main_descr
                0x000000008086d310       0x24 drivers/mtd/nand/built-in.o
 .data.nand_flash_ids
                0x000000008086d334      0xd70 drivers/mtd/nand/built-in.o
                0x000000008086d334                nand_flash_ids
 .data.nand_oob_8
                0x000000008086e0a4      0xba8 drivers/mtd/nand/built-in.o
 .data.nand_oob_128
                0x000000008086ec4c      0xba8 drivers/mtd/nand/built-in.o
 .data.nand_oob_16
                0x000000008086f7f4      0xba8 drivers/mtd/nand/built-in.o
 .data.nand_oob_64
                0x000000008087039c      0xba8 drivers/mtd/nand/built-in.o
 .data.genphy_driver
                0x0000000080870f44       0x34 drivers/net/phy/built-in.o
 .data.phy_drivers
                0x0000000080870f78        0x8 drivers/net/phy/built-in.o
 .data.AR8021_driver
                0x0000000080870f80       0x34 drivers/net/phy/built-in.o
 .data.AR8031_driver
                0x0000000080870fb4       0x34 drivers/net/phy/built-in.o
 .data.AR8035_driver
                0x0000000080870fe8       0x34 drivers/net/phy/built-in.o
 .data.lan8700_driver
                0x000000008087101c       0x34 drivers/net/phy/built-in.o
 .data.lan8710_driver
                0x0000000080871050       0x34 drivers/net/phy/built-in.o
 .data.lan911x_driver
                0x0000000080871084       0x34 drivers/net/phy/built-in.o
 .data.lan8740_driver
                0x00000000808710b8       0x34 drivers/net/phy/built-in.o
 .data.lan8742_driver
                0x00000000808710ec       0x34 drivers/net/phy/built-in.o
 .data.composite_driver
                0x0000000080871120       0x24 drivers/usb/gadget/built-in.o
 .data.g_dnl_driver
                0x0000000080871144       0x20 drivers/usb/gadget/built-in.o
 .data.g_dnl_string_tab
                0x0000000080871164        0x8 drivers/usb/gadget/built-in.o
 .data.g_dnl_string_defs
                0x000000008087116c       0x20 drivers/usb/gadget/built-in.o
 .data.g_dnl_composite_strings
                0x000000008087118c        0x8 drivers/usb/gadget/built-in.o
 .data.device_desc
                0x0000000080871194       0x24 drivers/usb/gadget/built-in.o
 .data.dfu_strings
                0x00000000808711b8        0x8 drivers/usb/gadget/built-in.o
 .data.dfu_intf_runtime
                0x00000000808711c0        0x9 drivers/usb/gadget/built-in.o
 *fill*         0x00000000808711c9        0x3 
 .data.stringtab_dfu
                0x00000000808711cc        0x8 drivers/usb/gadget/built-in.o
 .data.dfu_generic_strings
                0x00000000808711d4        0x8 drivers/usb/gadget/built-in.o
 .data.dfu_runtime_descs
                0x00000000808711dc        0x8 drivers/usb/gadget/built-in.o
 .data.stringtab_dfu_generic
                0x00000000808711e4        0x8 drivers/usb/gadget/built-in.o
 .data.strings_dfu_generic
                0x00000000808711ec       0x10 drivers/usb/gadget/built-in.o
 .data.fb_fs_function
                0x00000000808711fc        0xc drivers/usb/gadget/built-in.o
 .data.fastboot_string_defs
                0x0000000080871208       0x10 drivers/usb/gadget/built-in.o
 .data.fastboot_strings
                0x0000000080871218        0x8 drivers/usb/gadget/built-in.o
 .data.hs_ep_out
                0x0000000080871220        0x9 drivers/usb/gadget/built-in.o
 .data.fs_ep_out
                0x0000000080871229        0x9 drivers/usb/gadget/built-in.o
 .data.fs_ep_in
                0x0000000080871232        0x9 drivers/usb/gadget/built-in.o
 *fill*         0x000000008087123b        0x1 
 .data.stringtab_fastboot
                0x000000008087123c        0x8 drivers/usb/gadget/built-in.o
 .data.fb_hs_function
                0x0000000080871244       0x10 drivers/usb/gadget/built-in.o
 .data.hs_ep_in
                0x0000000080871254        0x9 drivers/usb/gadget/built-in.o
 .data.interface_desc
                0x000000008087125d        0x9 drivers/usb/gadget/built-in.o
 .data.fs_source_desc
                0x0000000080871266        0x9 drivers/usb/gadget/built-in.o
 .data.hs_source_desc
                0x000000008087126f        0x9 drivers/usb/gadget/built-in.o
 .data.strings  0x0000000080871278       0x40 drivers/usb/gadget/built-in.o
 .data.hs_sink_desc
                0x00000000808712b8        0x9 drivers/usb/gadget/built-in.o
 *fill*         0x00000000808712c1        0x3 
 .data.fs_rndis_function
                0x00000000808712c4       0x2c drivers/usb/gadget/built-in.o
 .data.product_desc
                0x00000000808712f0       0x28 drivers/usb/gadget/built-in.o
 .data.dev_qualifier
                0x0000000080871318        0xa drivers/usb/gadget/built-in.o
 .data.fs_sink_desc
                0x0000000080871322        0x9 drivers/usb/gadget/built-in.o
 *fill*         0x000000008087132b        0x1 
 .data.hs_rndis_function
                0x000000008087132c       0x2c drivers/usb/gadget/built-in.o
 .data.eth_config
                0x0000000080871358        0x9 drivers/usb/gadget/built-in.o
 .data.otg_descriptor
                0x0000000080871361        0x3 drivers/usb/gadget/built-in.o
 .data.hs_status_desc
                0x0000000080871364        0x9 drivers/usb/gadget/built-in.o
 *fill*         0x000000008087136d        0x3 
 .data.hs_eth_function
                0x0000000080871370       0x2c drivers/usb/gadget/built-in.o
 .data.fs_eth_function
                0x000000008087139c       0x2c drivers/usb/gadget/built-in.o
 .data.stringtab
                0x00000000808713c8        0x8 drivers/usb/gadget/built-in.o
 .data.l_priv   0x00000000808713d0        0x4 drivers/usb/gadget/built-in.o
                0x00000000808713d0                l_priv
 .data.rndis_config
                0x00000000808713d4        0x9 drivers/usb/gadget/built-in.o
 .data.fs_status_desc
                0x00000000808713dd        0x9 drivers/usb/gadget/built-in.o
 .data.mode_3_cfg
                0x00000000808713e6       0x24 drivers/usb/musb-new/built-in.o
 .data.mode_4_cfg
                0x000000008087140a       0xa2 drivers/usb/musb-new/built-in.o
 .data.mode_5_cfg
                0x00000000808714ac       0xa2 drivers/usb/musb-new/built-in.o
 .data.mode_0_cfg
                0x000000008087154e       0x1e drivers/usb/musb-new/built-in.o
 .data.ep0_cfg  0x000000008087156c        0x6 drivers/usb/musb-new/built-in.o
 .data.mode_1_cfg
                0x0000000080871572       0x1e drivers/usb/musb-new/built-in.o
 .data.mode_2_cfg
                0x0000000080871590       0x24 drivers/usb/musb-new/built-in.o
 .data.fifo_mode
                0x00000000808715b4        0x2 drivers/usb/musb-new/built-in.o
 *fill*         0x00000000808715b6        0x2 
 .data.musb_usb_ops
                0x00000000808715b8       0x24 drivers/usb/musb-new/built-in.o
                0x00000000808715b8                musb_usb_ops
 .data.musb_dsps_ops
                0x00000000808715dc       0x24 drivers/usb/musb-new/built-in.o
                0x00000000808715dc                musb_dsps_ops
 .data.env_htab
                0x0000000080871600       0x10 env/built-in.o
                0x0000000080871600                env_htab
 .data.first_call
                0x0000000080871610        0x8 env/built-in.o
 .data.fstypes  0x0000000080871618       0x84 fs/built-in.o
 .data.prev_bg_bitmap_index.8787
                0x000000008087169c        0x4 fs/built-in.o
 .data.ext4fs_indir3_blkno
                0x00000000808716a0        0x4 fs/built-in.o
                0x00000000808716a0                ext4fs_indir3_blkno
 .data.ext4fs_indir1_blkno
                0x00000000808716a4        0x4 fs/built-in.o
                0x00000000808716a4                ext4fs_indir1_blkno
 .data.prev_inode_bitmap_index.8811
                0x00000000808716a8        0x4 fs/built-in.o
 .data.ext4fs_indir2_blkno
                0x00000000808716ac        0x4 fs/built-in.o
                0x00000000808716ac                ext4fs_indir2_blkno
 .data.prev_bg_bmap_idx.8524
                0x00000000808716b0        0x4 fs/built-in.o
 .data.prev_bg_bmap_idx.8546
                0x00000000808716b4        0x4 fs/built-in.o
 .data.prev_bg_bmap_idx.8509
                0x00000000808716b8        0x4 fs/built-in.o
 .data.prev_bg_bmap_idx.8581
                0x00000000808716bc        0x4 fs/built-in.o
 .data.first_node
                0x00000000808716c0        0x4 fs/built-in.o
 .data.loaded_image_info_obj.9136
                0x00000000808716c4       0x4c lib/built-in.o
 .data.efi_is_direct_boot
                0x0000000080871710        0x1 lib/built-in.o
 *fill*         0x0000000080871711        0x3 
 .data.efi_obj_list
                0x0000000080871714        0x8 lib/built-in.o
                0x0000000080871714                efi_obj_list
 .data.efi_runtime_mmio
                0x000000008087171c        0x8 lib/built-in.o
                0x000000008087171c                efi_runtime_mmio
 .data.lastoff.10264
                0x0000000080871724        0x4 lib/built-in.o
 .data.__compound_literal.2
                0x0000000080871728       0x10 lib/built-in.o
 .data.efi_console_output_obj
                0x0000000080871738       0x4c lib/built-in.o
 .data.efi_con_mode
                0x0000000080871784       0x18 lib/built-in.o
 .data.efi_con_in
                0x000000008087179c        0xc lib/built-in.o
                0x000000008087179c                efi_con_in
 .data.__compound_literal.4
                0x00000000808717a8       0x10 lib/built-in.o
 .data.efi_console_input_obj
                0x00000000808717b8       0x4c lib/built-in.o
 .data.efi_cout_modes
                0x0000000080871804       0x24 lib/built-in.o
 .data.efi_console_control_obj
                0x0000000080871828       0x4c lib/built-in.o
 .data.efi_mem  0x0000000080871874        0x8 lib/built-in.o
                0x0000000080871874                efi_mem
 .data.sha256_padding
                0x000000008087187c       0x40 lib/built-in.o
 .data.net_native_vlan
                0x00000000808718bc        0x2 net/built-in.o
                0x00000000808718bc                net_native_vlan
 .data.net_our_vlan
                0x00000000808718be        0x2 net/built-in.o
                0x00000000808718be                net_our_vlan
 .data.first_call.8333
                0x00000000808718c0        0x4 net/built-in.o
 .data.supported_nfs_versions
                0x00000000808718c4        0x1 net/built-in.o
 *fill*         0x00000000808718c5        0x3 
 .data.nfs_offset
                0x00000000808718c8        0x4 net/built-in.o
 .data.tftp_block_size_option
                0x00000000808718cc        0x2 net/built-in.o
 *fill*         0x00000000808718ce        0x2 
 .data.tftp_timeout_count_max
                0x00000000808718d0        0x4 net/built-in.o
                0x00000000808718d0                tftp_timeout_count_max
 .data.timeout_ms
                0x00000000808718d4        0x4 net/built-in.o
 .data.tftp_block_size
                0x00000000808718d8        0x2 net/built-in.o
 *fill*         0x00000000808718da        0x2 
 .data.timeout_count_max
                0x00000000808718dc        0x4 net/built-in.o
 .data.test_commands
                0x00000000808718e0       0x54 test/dm/built-in.o

.got            0x0000000080871934        0x0
 .got           0x0000000080871934        0x0 arch/arm/cpu/armv7/start.o

.got.plt        0x0000000080871934        0xc
 .got.plt       0x0000000080871934        0xc arch/arm/cpu/armv7/start.o
                0x0000000080871934                _GLOBAL_OFFSET_TABLE_

.igot.plt       0x0000000080871940        0x0
 .igot.plt      0x0000000080871940        0x0 arch/arm/cpu/armv7/start.o
                0x0000000080871940                . = ALIGN (0x4)
                0x0000000080871940                . = .
                0x0000000080871940                . = ALIGN (0x4)

.u_boot_list    0x0000000080871940     0x13d8
 *(SORT(.u_boot_list*))
 .u_boot_list_2_blk_driver_1
                0x0000000080871940        0x0 drivers/built-in.o
 .u_boot_list_2_blk_driver_2_mmc
                0x0000000080871940       0x18 drivers/built-in.o
                0x0000000080871940                _u_boot_list_2_blk_driver_2_mmc
 .u_boot_list_2_blk_driver_2_usb
                0x0000000080871958       0x18 common/built-in.o
                0x0000000080871958                _u_boot_list_2_blk_driver_2_usb
 .u_boot_list_2_blk_driver_3
                0x0000000080871970        0x0 drivers/built-in.o
 .u_boot_list_2_cmd_1
                0x0000000080871970        0x0 cmd/built-in.o
 .u_boot_list_2_cmd_1
                0x0000000080871970        0x0 common/built-in.o
 .u_boot_list_2_cmd_2_askenv
                0x0000000080871970       0x1c cmd/built-in.o
                0x0000000080871970                _u_boot_list_2_cmd_2_askenv
 .u_boot_list_2_cmd_2_base
                0x000000008087198c       0x1c cmd/built-in.o
                0x000000008087198c                _u_boot_list_2_cmd_2_base
 .u_boot_list_2_cmd_2_bdinfo
                0x00000000808719a8       0x1c cmd/built-in.o
                0x00000000808719a8                _u_boot_list_2_cmd_2_bdinfo
 .u_boot_list_2_cmd_2_boot
                0x00000000808719c4       0x1c cmd/built-in.o
                0x00000000808719c4                _u_boot_list_2_cmd_2_boot
 .u_boot_list_2_cmd_2_bootd
                0x00000000808719e0       0x1c cmd/built-in.o
                0x00000000808719e0                _u_boot_list_2_cmd_2_bootd
 .u_boot_list_2_cmd_2_bootefi
                0x00000000808719fc       0x1c cmd/built-in.o
                0x00000000808719fc                _u_boot_list_2_cmd_2_bootefi
 .u_boot_list_2_cmd_2_bootelf
                0x0000000080871a18       0x1c cmd/built-in.o
                0x0000000080871a18                _u_boot_list_2_cmd_2_bootelf
 .u_boot_list_2_cmd_2_bootm
                0x0000000080871a34       0x1c cmd/built-in.o
                0x0000000080871a34                _u_boot_list_2_cmd_2_bootm
 .u_boot_list_2_cmd_2_bootp
                0x0000000080871a50       0x1c cmd/built-in.o
                0x0000000080871a50                _u_boot_list_2_cmd_2_bootp
 .u_boot_list_2_cmd_2_bootvx
                0x0000000080871a6c       0x1c cmd/built-in.o
                0x0000000080871a6c                _u_boot_list_2_cmd_2_bootvx
 .u_boot_list_2_cmd_2_bootz
                0x0000000080871a88       0x1c cmd/built-in.o
                0x0000000080871a88                _u_boot_list_2_cmd_2_bootz
 .u_boot_list_2_cmd_2_chpart
                0x0000000080871aa4       0x1c cmd/built-in.o
                0x0000000080871aa4                _u_boot_list_2_cmd_2_chpart
 .u_boot_list_2_cmd_2_cmp
                0x0000000080871ac0       0x1c cmd/built-in.o
                0x0000000080871ac0                _u_boot_list_2_cmd_2_cmp
 .u_boot_list_2_cmd_2_coninfo
                0x0000000080871adc       0x1c cmd/built-in.o
                0x0000000080871adc                _u_boot_list_2_cmd_2_coninfo
 .u_boot_list_2_cmd_2_cp
                0x0000000080871af8       0x1c cmd/built-in.o
                0x0000000080871af8                _u_boot_list_2_cmd_2_cp
 .u_boot_list_2_cmd_2_crc32
                0x0000000080871b14       0x1c cmd/built-in.o
                0x0000000080871b14                _u_boot_list_2_cmd_2_crc32
 .u_boot_list_2_cmd_2_dfu
                0x0000000080871b30       0x1c cmd/built-in.o
                0x0000000080871b30                _u_boot_list_2_cmd_2_dfu
 .u_boot_list_2_cmd_2_dhcp
                0x0000000080871b4c       0x1c cmd/built-in.o
                0x0000000080871b4c                _u_boot_list_2_cmd_2_dhcp
 .u_boot_list_2_cmd_2_dm
                0x0000000080871b68       0x1c test/dm/built-in.o
                0x0000000080871b68                _u_boot_list_2_cmd_2_dm
 .u_boot_list_2_cmd_2_echo
                0x0000000080871b84       0x1c cmd/built-in.o
                0x0000000080871b84                _u_boot_list_2_cmd_2_echo
 .u_boot_list_2_cmd_2_editenv
                0x0000000080871ba0       0x1c cmd/built-in.o
                0x0000000080871ba0                _u_boot_list_2_cmd_2_editenv
 .u_boot_list_2_cmd_2_eeprom
                0x0000000080871bbc       0x1c cmd/built-in.o
                0x0000000080871bbc                _u_boot_list_2_cmd_2_eeprom
 .u_boot_list_2_cmd_2_env
                0x0000000080871bd8       0x1c cmd/built-in.o
                0x0000000080871bd8                _u_boot_list_2_cmd_2_env
 .u_boot_list_2_cmd_2_exit
                0x0000000080871bf4       0x1c cmd/built-in.o
                0x0000000080871bf4                _u_boot_list_2_cmd_2_exit
 .u_boot_list_2_cmd_2_ext2load
                0x0000000080871c10       0x1c cmd/built-in.o
                0x0000000080871c10                _u_boot_list_2_cmd_2_ext2load
 .u_boot_list_2_cmd_2_ext2ls
                0x0000000080871c2c       0x1c cmd/built-in.o
                0x0000000080871c2c                _u_boot_list_2_cmd_2_ext2ls
 .u_boot_list_2_cmd_2_ext4load
                0x0000000080871c48       0x1c cmd/built-in.o
                0x0000000080871c48                _u_boot_list_2_cmd_2_ext4load
 .u_boot_list_2_cmd_2_ext4ls
                0x0000000080871c64       0x1c cmd/built-in.o
                0x0000000080871c64                _u_boot_list_2_cmd_2_ext4ls
 .u_boot_list_2_cmd_2_ext4size
                0x0000000080871c80       0x1c cmd/built-in.o
                0x0000000080871c80                _u_boot_list_2_cmd_2_ext4size
 .u_boot_list_2_cmd_2_ext4write
                0x0000000080871c9c       0x1c cmd/built-in.o
                0x0000000080871c9c                _u_boot_list_2_cmd_2_ext4write
 .u_boot_list_2_cmd_2_false
                0x0000000080871cb8       0x1c cmd/built-in.o
                0x0000000080871cb8                _u_boot_list_2_cmd_2_false
 .u_boot_list_2_cmd_2_fastboot
                0x0000000080871cd4       0x1c cmd/built-in.o
                0x0000000080871cd4                _u_boot_list_2_cmd_2_fastboot
 .u_boot_list_2_cmd_2_fatinfo
                0x0000000080871cf0       0x1c cmd/built-in.o
                0x0000000080871cf0                _u_boot_list_2_cmd_2_fatinfo
 .u_boot_list_2_cmd_2_fatload
                0x0000000080871d0c       0x1c cmd/built-in.o
                0x0000000080871d0c                _u_boot_list_2_cmd_2_fatload
 .u_boot_list_2_cmd_2_fatls
                0x0000000080871d28       0x1c cmd/built-in.o
                0x0000000080871d28                _u_boot_list_2_cmd_2_fatls
 .u_boot_list_2_cmd_2_fatsize
                0x0000000080871d44       0x1c cmd/built-in.o
                0x0000000080871d44                _u_boot_list_2_cmd_2_fatsize
 .u_boot_list_2_cmd_2_fatwrite
                0x0000000080871d60       0x1c cmd/built-in.o
                0x0000000080871d60                _u_boot_list_2_cmd_2_fatwrite
 .u_boot_list_2_cmd_2_fdt
                0x0000000080871d7c       0x1c cmd/built-in.o
                0x0000000080871d7c                _u_boot_list_2_cmd_2_fdt
 .u_boot_list_2_cmd_2_fstype
                0x0000000080871d98       0x1c cmd/built-in.o
                0x0000000080871d98                _u_boot_list_2_cmd_2_fstype
 .u_boot_list_2_cmd_2_go
                0x0000000080871db4       0x1c cmd/built-in.o
                0x0000000080871db4                _u_boot_list_2_cmd_2_go
 .u_boot_list_2_cmd_2_gpio
                0x0000000080871dd0       0x1c cmd/built-in.o
                0x0000000080871dd0                _u_boot_list_2_cmd_2_gpio
 .u_boot_list_2_cmd_2_gpt
                0x0000000080871dec       0x1c cmd/built-in.o
                0x0000000080871dec                _u_boot_list_2_cmd_2_gpt
 .u_boot_list_2_cmd_2_help
                0x0000000080871e08       0x1c cmd/built-in.o
                0x0000000080871e08                _u_boot_list_2_cmd_2_help
 .u_boot_list_2_cmd_2_i2c
                0x0000000080871e24       0x1c cmd/built-in.o
                0x0000000080871e24                _u_boot_list_2_cmd_2_i2c
 .u_boot_list_2_cmd_2_iminfo
                0x0000000080871e40       0x1c cmd/built-in.o
                0x0000000080871e40                _u_boot_list_2_cmd_2_iminfo
 .u_boot_list_2_cmd_2_imxtract
                0x0000000080871e5c       0x1c cmd/built-in.o
                0x0000000080871e5c                _u_boot_list_2_cmd_2_imxtract
 .u_boot_list_2_cmd_2_itest
                0x0000000080871e78       0x1c cmd/built-in.o
                0x0000000080871e78                _u_boot_list_2_cmd_2_itest
 .u_boot_list_2_cmd_2_load
                0x0000000080871e94       0x1c cmd/built-in.o
                0x0000000080871e94                _u_boot_list_2_cmd_2_load
 .u_boot_list_2_cmd_2_loadb
                0x0000000080871eb0       0x1c cmd/built-in.o
                0x0000000080871eb0                _u_boot_list_2_cmd_2_loadb
 .u_boot_list_2_cmd_2_loads
                0x0000000080871ecc       0x1c cmd/built-in.o
                0x0000000080871ecc                _u_boot_list_2_cmd_2_loads
 .u_boot_list_2_cmd_2_loadx
                0x0000000080871ee8       0x1c cmd/built-in.o
                0x0000000080871ee8                _u_boot_list_2_cmd_2_loadx
 .u_boot_list_2_cmd_2_loady
                0x0000000080871f04       0x1c cmd/built-in.o
                0x0000000080871f04                _u_boot_list_2_cmd_2_loady
 .u_boot_list_2_cmd_2_loop
                0x0000000080871f20       0x1c cmd/built-in.o
                0x0000000080871f20                _u_boot_list_2_cmd_2_loop
 .u_boot_list_2_cmd_2_ls
                0x0000000080871f3c       0x1c cmd/built-in.o
                0x0000000080871f3c                _u_boot_list_2_cmd_2_ls
 .u_boot_list_2_cmd_2_md
                0x0000000080871f58       0x1c cmd/built-in.o
                0x0000000080871f58                _u_boot_list_2_cmd_2_md
 .u_boot_list_2_cmd_2_mdio
                0x0000000080871f74       0x1c cmd/built-in.o
                0x0000000080871f74                _u_boot_list_2_cmd_2_mdio
 .u_boot_list_2_cmd_2_mii
                0x0000000080871f90       0x1c cmd/built-in.o
                0x0000000080871f90                _u_boot_list_2_cmd_2_mii
 .u_boot_list_2_cmd_2_mm
                0x0000000080871fac       0x1c cmd/built-in.o
                0x0000000080871fac                _u_boot_list_2_cmd_2_mm
 .u_boot_list_2_cmd_2_mmc
                0x0000000080871fc8       0x1c cmd/built-in.o
                0x0000000080871fc8                _u_boot_list_2_cmd_2_mmc
 .u_boot_list_2_cmd_2_mmcinfo
                0x0000000080871fe4       0x1c cmd/built-in.o
                0x0000000080871fe4                _u_boot_list_2_cmd_2_mmcinfo
 .u_boot_list_2_cmd_2_mtdparts
                0x0000000080872000       0x1c cmd/built-in.o
                0x0000000080872000                _u_boot_list_2_cmd_2_mtdparts
 .u_boot_list_2_cmd_2_mw
                0x000000008087201c       0x1c cmd/built-in.o
                0x000000008087201c                _u_boot_list_2_cmd_2_mw
 .u_boot_list_2_cmd_2_nand
                0x0000000080872038       0x1c cmd/built-in.o
                0x0000000080872038                _u_boot_list_2_cmd_2_nand
 .u_boot_list_2_cmd_2_nboot
                0x0000000080872054       0x1c cmd/built-in.o
                0x0000000080872054                _u_boot_list_2_cmd_2_nboot
 .u_boot_list_2_cmd_2_nfs
                0x0000000080872070       0x1c cmd/built-in.o
                0x0000000080872070                _u_boot_list_2_cmd_2_nfs
 .u_boot_list_2_cmd_2_nm
                0x000000008087208c       0x1c cmd/built-in.o
                0x000000008087208c                _u_boot_list_2_cmd_2_nm
 .u_boot_list_2_cmd_2_part
                0x00000000808720a8       0x1c cmd/built-in.o
                0x00000000808720a8                _u_boot_list_2_cmd_2_part
 .u_boot_list_2_cmd_2_ping
                0x00000000808720c4       0x1c cmd/built-in.o
                0x00000000808720c4                _u_boot_list_2_cmd_2_ping
 .u_boot_list_2_cmd_2_printenv
                0x00000000808720e0       0x1c cmd/built-in.o
                0x00000000808720e0                _u_boot_list_2_cmd_2_printenv
 .u_boot_list_2_cmd_2_pxe
                0x00000000808720fc       0x1c cmd/built-in.o
                0x00000000808720fc                _u_boot_list_2_cmd_2_pxe
 .u_boot_list_2_cmd_2_question_mark
                0x0000000080872118       0x1c cmd/built-in.o
                0x0000000080872118                _u_boot_list_2_cmd_2_question_mark
 .u_boot_list_2_cmd_2_reset
                0x0000000080872134       0x1c cmd/built-in.o
                0x0000000080872134                _u_boot_list_2_cmd_2_reset
 .u_boot_list_2_cmd_2_run
                0x0000000080872150       0x1c cmd/built-in.o
                0x0000000080872150                _u_boot_list_2_cmd_2_run
 .u_boot_list_2_cmd_2_save
                0x000000008087216c       0x1c cmd/built-in.o
                0x000000008087216c                _u_boot_list_2_cmd_2_save
 .u_boot_list_2_cmd_2_saveenv
                0x0000000080872188       0x1c cmd/built-in.o
                0x0000000080872188                _u_boot_list_2_cmd_2_saveenv
 .u_boot_list_2_cmd_2_setenv
                0x00000000808721a4       0x1c cmd/built-in.o
                0x00000000808721a4                _u_boot_list_2_cmd_2_setenv
 .u_boot_list_2_cmd_2_sf
                0x00000000808721c0       0x1c cmd/built-in.o
                0x00000000808721c0                _u_boot_list_2_cmd_2_sf
 .u_boot_list_2_cmd_2_showvar
                0x00000000808721dc       0x1c common/built-in.o
                0x00000000808721dc                _u_boot_list_2_cmd_2_showvar
 .u_boot_list_2_cmd_2_size
                0x00000000808721f8       0x1c cmd/built-in.o
                0x00000000808721f8                _u_boot_list_2_cmd_2_size
 .u_boot_list_2_cmd_2_sleep
                0x0000000080872214       0x1c cmd/built-in.o
                0x0000000080872214                _u_boot_list_2_cmd_2_sleep
 .u_boot_list_2_cmd_2_source
                0x0000000080872230       0x1c cmd/built-in.o
                0x0000000080872230                _u_boot_list_2_cmd_2_source
 .u_boot_list_2_cmd_2_spl
                0x000000008087224c       0x1c cmd/built-in.o
                0x000000008087224c                _u_boot_list_2_cmd_2_spl
 .u_boot_list_2_cmd_2_sspi
                0x0000000080872268       0x1c cmd/built-in.o
                0x0000000080872268                _u_boot_list_2_cmd_2_sspi
 .u_boot_list_2_cmd_2_sysboot
                0x0000000080872284       0x1c cmd/built-in.o
                0x0000000080872284                _u_boot_list_2_cmd_2_sysboot
 .u_boot_list_2_cmd_2_test
                0x00000000808722a0       0x1c cmd/built-in.o
                0x00000000808722a0                _u_boot_list_2_cmd_2_test
 .u_boot_list_2_cmd_2_tftpboot
                0x00000000808722bc       0x1c cmd/built-in.o
                0x00000000808722bc                _u_boot_list_2_cmd_2_tftpboot
 .u_boot_list_2_cmd_2_time
                0x00000000808722d8       0x1c cmd/built-in.o
                0x00000000808722d8                _u_boot_list_2_cmd_2_time
 .u_boot_list_2_cmd_2_true
                0x00000000808722f4       0x1c cmd/built-in.o
                0x00000000808722f4                _u_boot_list_2_cmd_2_true
 .u_boot_list_2_cmd_2_usb
                0x0000000080872310       0x1c cmd/built-in.o
                0x0000000080872310                _u_boot_list_2_cmd_2_usb
 .u_boot_list_2_cmd_2_usbboot
                0x000000008087232c       0x1c cmd/built-in.o
                0x000000008087232c                _u_boot_list_2_cmd_2_usbboot
 .u_boot_list_2_cmd_2_version
                0x0000000080872348       0x1c cmd/built-in.o
                0x0000000080872348                _u_boot_list_2_cmd_2_version
 .u_boot_list_2_cmd_3
                0x0000000080872364        0x0 cmd/built-in.o
 .u_boot_list_2_cmd_3
                0x0000000080872364        0x0 common/built-in.o
 .u_boot_list_2_driver_1
                0x0000000080872364        0x0 drivers/built-in.o
 .u_boot_list_2_driver_2_eth_cpsw
                0x0000000080872364       0x44 drivers/net/built-in.o
                0x0000000080872364                _u_boot_list_2_driver_2_eth_cpsw
 .u_boot_list_2_driver_2_eth_usb
                0x00000000808723a8       0x44 drivers/usb/gadget/built-in.o
                0x00000000808723a8                _u_boot_list_2_driver_2_eth_usb
 .u_boot_list_2_driver_2_gpio_omap
                0x00000000808723ec       0x44 drivers/gpio/built-in.o
                0x00000000808723ec                _u_boot_list_2_driver_2_gpio_omap
 .u_boot_list_2_driver_2_i2c_generic_chip_drv
                0x0000000080872430       0x44 drivers/i2c/built-in.o
                0x0000000080872430                _u_boot_list_2_driver_2_i2c_generic_chip_drv
 .u_boot_list_2_driver_2_i2c_omap
                0x0000000080872474       0x44 drivers/i2c/built-in.o
                0x0000000080872474                _u_boot_list_2_driver_2_i2c_omap
 .u_boot_list_2_driver_2_mmc
                0x00000000808724b8       0x44 drivers/built-in.o
                0x00000000808724b8                _u_boot_list_2_driver_2_mmc
 .u_boot_list_2_driver_2_mod_exp_sw
                0x00000000808724fc       0x44 drivers/built-in.o
                0x00000000808724fc                _u_boot_list_2_driver_2_mod_exp_sw
 .u_boot_list_2_driver_2_ns16550_serial
                0x0000000080872540       0x44 drivers/serial/built-in.o
                0x0000000080872540                _u_boot_list_2_driver_2_ns16550_serial
 .u_boot_list_2_driver_2_omap_hsmmc
                0x0000000080872584       0x44 drivers/built-in.o
                0x0000000080872584                _u_boot_list_2_driver_2_omap_hsmmc
 .u_boot_list_2_driver_2_omap_timer
                0x00000000808725c8       0x44 drivers/built-in.o
                0x00000000808725c8                _u_boot_list_2_driver_2_omap_timer
 .u_boot_list_2_driver_2_root_driver
                0x000000008087260c       0x44 drivers/built-in.o
                0x000000008087260c                _u_boot_list_2_driver_2_root_driver
 .u_boot_list_2_driver_2_simple_bus_drv
                0x0000000080872650       0x44 drivers/built-in.o
                0x0000000080872650                _u_boot_list_2_driver_2_simple_bus_drv
 .u_boot_list_2_driver_2_ti_musb_host
                0x0000000080872694       0x44 drivers/usb/musb-new/built-in.o
                0x0000000080872694                _u_boot_list_2_driver_2_ti_musb_host
 .u_boot_list_2_driver_2_ti_musb_wrapper
                0x00000000808726d8       0x44 drivers/usb/musb-new/built-in.o
                0x00000000808726d8                _u_boot_list_2_driver_2_ti_musb_wrapper
 .u_boot_list_2_driver_2_usb_dev_generic_drv
                0x000000008087271c       0x44 drivers/usb/host/built-in.o
                0x000000008087271c                _u_boot_list_2_driver_2_usb_dev_generic_drv
 .u_boot_list_2_driver_2_usb_generic_hub
                0x0000000080872760       0x44 common/built-in.o
                0x0000000080872760                _u_boot_list_2_driver_2_usb_generic_hub
 .u_boot_list_2_driver_2_usb_mass_storage
                0x00000000808727a4       0x44 common/built-in.o
                0x00000000808727a4                _u_boot_list_2_driver_2_usb_mass_storage
 .u_boot_list_2_driver_3
                0x00000000808727e8        0x0 drivers/built-in.o
 .u_boot_list_2_driver_info_1
                0x00000000808727e8        0x0 drivers/built-in.o
 .u_boot_list_2_driver_info_2_mod_exp_sw
                0x00000000808727e8        0x8 drivers/built-in.o
                0x00000000808727e8                _u_boot_list_2_driver_info_2_mod_exp_sw
 .u_boot_list_2_driver_info_3
                0x00000000808727f0        0x0 drivers/built-in.o
 .u_boot_list_2_env_clbk_1
                0x00000000808727f0        0x0 env/built-in.o
 .u_boot_list_2_env_clbk_2_baudrate
                0x00000000808727f0        0x8 drivers/serial/built-in.o
                0x00000000808727f0                _u_boot_list_2_env_clbk_2_baudrate
 .u_boot_list_2_env_clbk_2_bootfile
                0x00000000808727f8        0x8 net/built-in.o
                0x00000000808727f8                _u_boot_list_2_env_clbk_2_bootfile
 .u_boot_list_2_env_clbk_2_callbacks
                0x0000000080872800        0x8 env/built-in.o
                0x0000000080872800                _u_boot_list_2_env_clbk_2_callbacks
 .u_boot_list_2_env_clbk_2_console
                0x0000000080872808        0x8 common/built-in.o
                0x0000000080872808                _u_boot_list_2_env_clbk_2_console
 .u_boot_list_2_env_clbk_2_ethaddr
                0x0000000080872810        0x8 net/built-in.o
                0x0000000080872810                _u_boot_list_2_env_clbk_2_ethaddr
 .u_boot_list_2_env_clbk_2_flags
                0x0000000080872818        0x8 env/built-in.o
                0x0000000080872818                _u_boot_list_2_env_clbk_2_flags
 .u_boot_list_2_env_clbk_2_gatewayip
                0x0000000080872820        0x8 net/built-in.o
                0x0000000080872820                _u_boot_list_2_env_clbk_2_gatewayip
 .u_boot_list_2_env_clbk_2_ipaddr
                0x0000000080872828        0x8 net/built-in.o
                0x0000000080872828                _u_boot_list_2_env_clbk_2_ipaddr
 .u_boot_list_2_env_clbk_2_loadaddr
                0x0000000080872830        0x8 common/built-in.o
                0x0000000080872830                _u_boot_list_2_env_clbk_2_loadaddr
 .u_boot_list_2_env_clbk_2_netmask
                0x0000000080872838        0x8 net/built-in.o
                0x0000000080872838                _u_boot_list_2_env_clbk_2_netmask
 .u_boot_list_2_env_clbk_2_nvlan
                0x0000000080872840        0x8 net/built-in.o
                0x0000000080872840                _u_boot_list_2_env_clbk_2_nvlan
 .u_boot_list_2_env_clbk_2_serialno
                0x0000000080872848        0x8 drivers/usb/gadget/built-in.o
                0x0000000080872848                _u_boot_list_2_env_clbk_2_serialno
 .u_boot_list_2_env_clbk_2_serverip
                0x0000000080872850        0x8 net/built-in.o
                0x0000000080872850                _u_boot_list_2_env_clbk_2_serverip
 .u_boot_list_2_env_clbk_2_vlan
                0x0000000080872858        0x8 net/built-in.o
                0x0000000080872858                _u_boot_list_2_env_clbk_2_vlan
 .u_boot_list_2_env_clbk_3
                0x0000000080872860        0x0 env/built-in.o
 .u_boot_list_2_env_driver_1
                0x0000000080872860        0x0 env/built-in.o
 .u_boot_list_2_env_driver_2_fat
                0x0000000080872860       0x18 env/built-in.o
                0x0000000080872860                _u_boot_list_2_env_driver_2_fat
 .u_boot_list_2_env_driver_3
                0x0000000080872878        0x0 env/built-in.o
 .u_boot_list_2_fit_loadable_1
                0x0000000080872878        0x0 common/built-in.o
 .u_boot_list_2_fit_loadable_3
                0x0000000080872878        0x0 common/built-in.o
 .u_boot_list_2_g_dnl_bind_callbacks_1
                0x0000000080872878        0x0 drivers/usb/gadget/built-in.o
 .u_boot_list_2_g_dnl_bind_callbacks_2___usb_function_name_usb_dnl_dfu
                0x0000000080872878        0x8 drivers/usb/gadget/built-in.o
                0x0000000080872878                _u_boot_list_2_g_dnl_bind_callbacks_2___usb_function_name_usb_dnl_dfu
 .u_boot_list_2_g_dnl_bind_callbacks_2___usb_function_name_usb_dnl_fastboot
                0x0000000080872880        0x8 drivers/usb/gadget/built-in.o
                0x0000000080872880                _u_boot_list_2_g_dnl_bind_callbacks_2___usb_function_name_usb_dnl_fastboot
 .u_boot_list_2_g_dnl_bind_callbacks_3
                0x0000000080872888        0x0 drivers/usb/gadget/built-in.o
 .u_boot_list_2_part_driver_1
                0x0000000080872888        0x0 disk/built-in.o
 .u_boot_list_2_part_driver_2_a_efi
                0x0000000080872888       0x18 disk/built-in.o
                0x0000000080872888                _u_boot_list_2_part_driver_2_a_efi
 .u_boot_list_2_part_driver_2_dos
                0x00000000808728a0       0x18 disk/built-in.o
                0x00000000808728a0                _u_boot_list_2_part_driver_2_dos
 .u_boot_list_2_part_driver_2_iso
                0x00000000808728b8       0x18 disk/built-in.o
                0x00000000808728b8                _u_boot_list_2_part_driver_2_iso
 .u_boot_list_2_part_driver_3
                0x00000000808728d0        0x0 disk/built-in.o
 .u_boot_list_2_uclass_1
                0x00000000808728d0        0x0 drivers/built-in.o
 .u_boot_list_2_uclass_2_eth
                0x00000000808728d0       0x48 net/built-in.o
                0x00000000808728d0                _u_boot_list_2_uclass_2_eth
 .u_boot_list_2_uclass_2_gpio
                0x0000000080872918       0x48 drivers/gpio/built-in.o
                0x0000000080872918                _u_boot_list_2_uclass_2_gpio
 .u_boot_list_2_uclass_2_i2c
                0x0000000080872960       0x48 drivers/i2c/built-in.o
                0x0000000080872960                _u_boot_list_2_uclass_2_i2c
 .u_boot_list_2_uclass_2_i2c_generic
                0x00000000808729a8       0x48 drivers/i2c/built-in.o
                0x00000000808729a8                _u_boot_list_2_uclass_2_i2c_generic
 .u_boot_list_2_uclass_2_misc
                0x00000000808729f0       0x48 drivers/built-in.o
                0x00000000808729f0                _u_boot_list_2_uclass_2_misc
 .u_boot_list_2_uclass_2_mmc
                0x0000000080872a38       0x48 drivers/built-in.o
                0x0000000080872a38                _u_boot_list_2_uclass_2_mmc
 .u_boot_list_2_uclass_2_mod_exp
                0x0000000080872a80       0x48 drivers/built-in.o
                0x0000000080872a80                _u_boot_list_2_uclass_2_mod_exp
 .u_boot_list_2_uclass_2_root
                0x0000000080872ac8       0x48 drivers/built-in.o
                0x0000000080872ac8                _u_boot_list_2_uclass_2_root
 .u_boot_list_2_uclass_2_serial
                0x0000000080872b10       0x48 drivers/serial/built-in.o
                0x0000000080872b10                _u_boot_list_2_uclass_2_serial
 .u_boot_list_2_uclass_2_simple_bus
                0x0000000080872b58       0x48 drivers/built-in.o
                0x0000000080872b58                _u_boot_list_2_uclass_2_simple_bus
 .u_boot_list_2_uclass_2_timer
                0x0000000080872ba0       0x48 drivers/built-in.o
                0x0000000080872ba0                _u_boot_list_2_uclass_2_timer
 .u_boot_list_2_uclass_2_usb
                0x0000000080872be8       0x48 drivers/usb/host/built-in.o
                0x0000000080872be8                _u_boot_list_2_uclass_2_usb
 .u_boot_list_2_uclass_2_usb_dev_generic
                0x0000000080872c30       0x48 drivers/usb/host/built-in.o
                0x0000000080872c30                _u_boot_list_2_uclass_2_usb_dev_generic
 .u_boot_list_2_uclass_2_usb_hub
                0x0000000080872c78       0x48 common/built-in.o
                0x0000000080872c78                _u_boot_list_2_uclass_2_usb_hub
 .u_boot_list_2_uclass_2_usb_mass_storage
                0x0000000080872cc0       0x48 common/built-in.o
                0x0000000080872cc0                _u_boot_list_2_uclass_2_usb_mass_storage
 .u_boot_list_2_uclass_3
                0x0000000080872d08        0x0 drivers/built-in.o
 .u_boot_list_2_usb_driver_entry_1
                0x0000000080872d08        0x0 drivers/usb/host/built-in.o
 .u_boot_list_2_usb_driver_entry_2_usb_generic_hub
                0x0000000080872d08        0x8 common/built-in.o
                0x0000000080872d08                _u_boot_list_2_usb_driver_entry_2_usb_generic_hub
 .u_boot_list_2_usb_driver_entry_2_usb_mass_storage
                0x0000000080872d10        0x8 common/built-in.o
                0x0000000080872d10                _u_boot_list_2_usb_driver_entry_2_usb_mass_storage
 .u_boot_list_2_usb_driver_entry_3
                0x0000000080872d18        0x0 drivers/usb/host/built-in.o
                0x0000000080872d18                . = ALIGN (0x4)

.__efi_runtime_start
                0x0000000080872d18        0x0
 *(.__efi_runtime_start)
 .__efi_runtime_start
                0x0000000080872d18        0x0 arch/arm/lib/built-in.o

.efi_runtime    0x0000000080872d18      0x100
 *(efi_runtime_text)
 efi_runtime_text
                0x0000000080872d18       0x24 lib/built-in.o
                0x0000000080872d18                efi_reset_system
                0x0000000080872d1a                efi_get_time
 *(efi_runtime_data)
 *fill*         0x0000000080872d3c        0x4 
 efi_runtime_data
                0x0000000080872d40       0xd8 lib/built-in.o
                0x0000000080872d40                systab
                0x0000000080872dc8                efi_runtime_services

.__efi_runtime_stop
                0x0000000080872e18        0x0
 *(.__efi_runtime_stop)
 .__efi_runtime_stop
                0x0000000080872e18        0x0 arch/arm/lib/built-in.o

.efi_runtime_rel_start
                0x0000000080872e18        0x0
 *(.__efi_runtime_rel_start)
 .__efi_runtime_rel_start
                0x0000000080872e18        0x0 arch/arm/lib/built-in.o

.efi_runtime_rel
                0x0000000080872e18       0x90
 *(.relefi_runtime_text)
 *(.relefi_runtime_data)
 .relefi_runtime_data
                0x0000000080872e18       0x90 arch/arm/cpu/armv7/start.o

.efi_runtime_rel_stop
                0x0000000080872ea8        0x0
 *(.__efi_runtime_rel_stop)
 .__efi_runtime_rel_stop
                0x0000000080872ea8        0x0 arch/arm/lib/built-in.o
                0x0000000080872ea8                . = ALIGN (0x4)

.image_copy_end
                0x0000000080872ea8        0x0
 *(.__image_copy_end)
 .__image_copy_end
                0x0000000080872ea8        0x0 arch/arm/lib/built-in.o

.rel_dyn_start  0x0000000080872ea8        0x0
 *(.__rel_dyn_start)
 .__rel_dyn_start
                0x0000000080872ea8        0x0 arch/arm/lib/built-in.o

.rel.dyn        0x0000000080872ea8     0xfc78
 *(.rel*)
 .rel.got       0x0000000080872ea8        0x0 arch/arm/cpu/armv7/start.o
 .rel.plt       0x0000000080872ea8        0x0 arch/arm/cpu/armv7/start.o
 .rel.iplt      0x0000000080872ea8        0x0 arch/arm/cpu/armv7/start.o
 .rel.text      0x0000000080872ea8       0x20 arch/arm/cpu/armv7/start.o
 .rel.text.request_and_set_gpio
                0x0000000080872ec8       0x18 arch/arm/cpu/armv7/start.o
 .rel.text.do_board_detect
                0x0000000080872ee0        0x0 arch/arm/cpu/armv7/start.o
 .rel.text.board_init
                0x0000000080872ee0       0x60 arch/arm/cpu/armv7/start.o
 .rel.text.board_late_init
                0x0000000080872f40       0x68 arch/arm/cpu/armv7/start.o
 .rel.text.board_fit_config_name_match
                0x0000000080872fa8        0x0 arch/arm/cpu/armv7/start.o
 .rel.vectors   0x0000000080872fa8       0x38 arch/arm/cpu/armv7/start.o
 .rel.text.relocate_vectors
                0x0000000080872fe0       0x20 arch/arm/cpu/armv7/start.o
 .rel.text.arch_lmb_reserve
                0x0000000080873000        0x8 arch/arm/cpu/armv7/start.o
 .rel.text.boot_jump_linux
                0x0000000080873008       0x38 arch/arm/cpu/armv7/start.o
 .rel.text.boot_prep_linux
                0x0000000080873040       0x28 arch/arm/cpu/armv7/start.o
 .rel.text.boot_prep_vxworks
                0x0000000080873068       0x10 arch/arm/cpu/armv7/start.o
 .rel.text.interrupt_init
                0x0000000080873078        0x8 arch/arm/cpu/armv7/start.o
 .rel.text.bad_mode
                0x0000000080873080        0x8 arch/arm/cpu/armv7/start.o
 .rel.text.show_regs
                0x0000000080873088       0x60 arch/arm/cpu/armv7/start.o
 .rel.text.do_undefined_instruction
                0x00000000808730e8        0x8 arch/arm/cpu/armv7/start.o
 .rel.text.do_software_interrupt
                0x00000000808730f0        0x8 arch/arm/cpu/armv7/start.o
 .rel.text.do_prefetch_abort
                0x00000000808730f8        0x8 arch/arm/cpu/armv7/start.o
 .rel.text.do_data_abort
                0x0000000080873100        0x8 arch/arm/cpu/armv7/start.o
 .rel.text.do_not_used
                0x0000000080873108        0x8 arch/arm/cpu/armv7/start.o
 .rel.text.do_fiq
                0x0000000080873110        0x8 arch/arm/cpu/armv7/start.o
 .rel.text.do_irq
                0x0000000080873118        0x8 arch/arm/cpu/armv7/start.o
 .rel.text.do_reset
                0x0000000080873120        0x8 arch/arm/cpu/armv7/start.o
 .rel.text.enable_caches
                0x0000000080873128        0x0 arch/arm/cpu/armv7/start.o
 .rel.text.check_cache_range
                0x0000000080873128        0x8 arch/arm/cpu/armv7/start.o
 .rel.text.mmu_page_table_flush
                0x0000000080873130        0x0 arch/arm/cpu/armv7/start.o
 .rel.text.mmu_set_region_dcache_behaviour
                0x0000000080873130        0x0 arch/arm/cpu/armv7/start.o
 .rel.text.dram_bank_mmu_setup
                0x0000000080873130       0x10 arch/arm/cpu/armv7/start.o
 .rel.rodata    0x0000000080873140      0x158 arch/arm/cpu/armv7/start.o
 .rel.text.get_dpll_mpu_params
                0x0000000080873298        0x0 arch/arm/cpu/armv7/start.o
 .rel.text.get_dpll_core_params
                0x0000000080873298        0x0 arch/arm/cpu/armv7/start.o
 .rel.text.get_dpll_per_params
                0x0000000080873298        0x0 arch/arm/cpu/armv7/start.o
 .rel.text.enable_basic_clocks
                0x0000000080873298        0x0 arch/arm/cpu/armv7/start.o
 .rel.text.set_mpu_spreadspectrum
                0x0000000080873298        0x0 arch/arm/cpu/armv7/start.o
 .rel.text.do_setup_dpll
                0x0000000080873298        0x0 arch/arm/cpu/armv7/start.o
 .rel.text.do_enable_clocks
                0x0000000080873298        0x0 arch/arm/cpu/armv7/start.o
 .rel.text.do_disable_clocks
                0x0000000080873298        0x0 arch/arm/cpu/armv7/start.o
 .rel.text.prcm_init
                0x0000000080873298        0x0 arch/arm/cpu/armv7/start.o
 .rel.text.get_sysboot_value
                0x0000000080873298        0x0 arch/arm/cpu/armv7/start.o
 .rel.text.print_cpuinfo
                0x0000000080873298       0x48 arch/arm/cpu/armv7/start.o
 .rel.text.configure_mr
                0x00000000808732e0        0x0 arch/arm/cpu/armv7/start.o
 .rel.text.config_sdram_emif4d5
                0x00000000808732e0        0x0 arch/arm/cpu/armv7/start.o
 .rel.text.config_sdram
                0x00000000808732e0        0x0 arch/arm/cpu/armv7/start.o
 .rel.text.set_sdram_timings
                0x00000000808732e0        0x0 arch/arm/cpu/armv7/start.o
 .rel.text.config_ddr_phy
                0x00000000808732e0        0x0 arch/arm/cpu/armv7/start.o
 .rel.text.config_cmd_ctrl
                0x00000000808732e0        0x0 arch/arm/cpu/armv7/start.o
 .rel.text.config_ddr_data
                0x00000000808732e0        0x0 arch/arm/cpu/armv7/start.o
 .rel.text.arch_misc_init
                0x00000000808732e0       0x18 arch/arm/cpu/armv7/start.o
 .rel.text.hw_data_init
                0x00000000808732f8       0x10 arch/arm/cpu/armv7/start.o
 .rel.text.clk_synthesizer_reg_write
                0x0000000080873308        0x8 arch/arm/cpu/armv7/start.o
 .rel.text.setup_clock_synthesizer
                0x0000000080873310       0x10 arch/arm/cpu/armv7/start.o
 .rel.text.omap_die_id_serial
                0x0000000080873320        0x0 arch/arm/cpu/armv7/start.o
 .rel.text.omap_die_id_get_board_serial
                0x0000000080873320        0x0 arch/arm/cpu/armv7/start.o
 .rel.text.omap_die_id_usbethaddr
                0x0000000080873320        0x0 arch/arm/cpu/armv7/start.o
 .rel.text.omap_die_id_display
                0x0000000080873320        0x0 arch/arm/cpu/armv7/start.o
 .rel.text.get_device_type
                0x0000000080873320        0x8 arch/arm/cpu/armv7/start.o
 .rel.text.fb_set_reboot_flag
                0x0000000080873328       0x18 arch/arm/cpu/armv7/start.o
 .rel.text.set_gpmc_cs0
                0x0000000080873340       0x10 arch/arm/cpu/armv7/start.o
 .rel.text.gpmc_init
                0x0000000080873350       0x10 arch/arm/cpu/armv7/start.o
 .rel.rodata.dev_types
                0x0000000080873360       0x20 arch/arm/cpu/armv7/start.o
 .rel.data.cpu_revs_am43xx
                0x0000000080873380       0x18 arch/arm/cpu/armv7/start.o
 .rel.data.cpu_revs
                0x0000000080873398       0x18 arch/arm/cpu/armv7/start.o
 .rel.text.ti_i2c_eeprom_am_set
                0x00000000808733b0        0x0 arch/arm/cpu/armv7/start.o
 .rel.text.ti_i2c_eeprom_am_get
                0x00000000808733b0        0x0 arch/arm/cpu/armv7/start.o
 .rel.text.ti_i2c_eeprom_dra7_get
                0x00000000808733b0        0x0 arch/arm/cpu/armv7/start.o
 .rel.text.set_board_info_env
                0x00000000808733b0       0x18 arch/arm/cpu/armv7/start.o
 .rel.text.board_ti_set_ethaddr
                0x00000000808733c8        0x0 arch/arm/cpu/armv7/start.o
 .rel.text.do_go
                0x00000000808733c8       0x10 arch/arm/cpu/armv7/start.o
 .rel.text.do_bootm
                0x00000000808733d8       0x18 arch/arm/cpu/armv7/start.o
 .rel.text.do_bootd
                0x00000000808733f0        0x8 arch/arm/cpu/armv7/start.o
 .rel.text.image_info
                0x00000000808733f8       0x60 arch/arm/cpu/armv7/start.o
 .rel.text.do_iminfo
                0x0000000080873458        0x8 arch/arm/cpu/armv7/start.o
 .rel.text.bootm_maybe_autostart
                0x0000000080873460       0x20 arch/arm/cpu/armv7/start.o
 .rel.text.do_help
                0x0000000080873480       0x10 arch/arm/cpu/armv7/start.o
 .rel.text.do_version
                0x0000000080873490       0x10 arch/arm/cpu/armv7/start.o
 .rel.text.blk_common_cmd
                0x00000000808734a0       0x70 arch/arm/cpu/armv7/start.o
 .rel.text.source
                0x0000000080873510       0x70 arch/arm/cpu/armv7/start.o
 .rel.text.do_source
                0x0000000080873580       0x28 arch/arm/cpu/armv7/start.o
 .rel.text.print_num
                0x00000000808735a8        0x8 arch/arm/cpu/armv7/start.o
 .rel.text.do_bdinfo
                0x00000000808735b0       0x68 arch/arm/cpu/armv7/start.o
 .rel.text.do_bootefi_exec
                0x0000000080873618       0x70 arch/arm/cpu/armv7/start.o
 .rel.text.do_bootefi
                0x0000000080873688       0x10 arch/arm/cpu/armv7/start.o
 .rel.text.efi_set_bootdev
                0x0000000080873698       0x48 arch/arm/cpu/armv7/start.o
 .rel.text.bootz_setup
                0x00000000808736e0        0x0 arch/arm/cpu/armv7/start.o
 .rel.text.do_bootz
                0x00000000808736e0       0x20 arch/arm/cpu/armv7/start.o
 .rel.text.do_coninfo
                0x0000000080873700       0x28 arch/arm/cpu/armv7/start.o
 .rel.text.do_echo
                0x0000000080873728        0x8 arch/arm/cpu/armv7/start.o
 .rel.text.do_eeprom
                0x0000000080873730       0x20 arch/arm/cpu/armv7/start.o
 .rel.text.load_elf_image_shdr
                0x0000000080873750       0x18 arch/arm/cpu/armv7/start.o
 .rel.text.valid_elf_image
                0x0000000080873768       0x10 arch/arm/cpu/armv7/start.o
 .rel.text.do_bootelf
                0x0000000080873778       0x30 arch/arm/cpu/armv7/start.o
 .rel.text.do_bootvx
                0x00000000808737a8       0xe0 arch/arm/cpu/armv7/start.o
 .rel.text.do_fat_fsinfo
                0x0000000080873888       0x10 arch/arm/cpu/armv7/start.o
 .rel.text.do_fat_fswrite
                0x0000000080873898       0x18 arch/arm/cpu/armv7/start.o
 .rel.text.fdt_valid
                0x00000000808738b0       0x28 arch/arm/cpu/armv7/start.o
 .rel.text.is_printable_string
                0x00000000808738d8        0x8 arch/arm/cpu/armv7/start.o
 .rel.text.print_data
                0x00000000808738e0       0x58 arch/arm/cpu/armv7/start.o
 .rel.text.set_working_fdt_addr
                0x0000000080873938       0x10 arch/arm/cpu/armv7/start.o
 .rel.text.do_fdt
                0x0000000080873948      0x290 arch/arm/cpu/armv7/start.o
 .rel.text.do_load_wrapper
                0x0000000080873bd8        0x8 arch/arm/cpu/armv7/start.o
 .rel.text.gpio_get_description
                0x0000000080873be0       0x18 arch/arm/cpu/armv7/start.o
 .rel.text.do_gpio
                0x0000000080873bf8       0x58 arch/arm/cpu/armv7/start.o
 .rel.text.do_i2c
                0x0000000080873c50        0x8 arch/arm/cpu/armv7/start.o
 .rel.text.i2c_get_cur_bus
                0x0000000080873c58       0x10 arch/arm/cpu/armv7/start.o
 .rel.text.do_i2c_bus_speed
                0x0000000080873c68       0x18 arch/arm/cpu/armv7/start.o
 .rel.text.do_i2c_reset
                0x0000000080873c80        0x8 arch/arm/cpu/armv7/start.o
 .rel.text.do_i2c_probe
                0x0000000080873c88       0x10 arch/arm/cpu/armv7/start.o
 .rel.text.do_i2c_bus_num
                0x0000000080873c98       0x30 arch/arm/cpu/armv7/start.o
 .rel.text.show_bus
                0x0000000080873cc8       0x20 arch/arm/cpu/armv7/start.o
 .rel.text.do_i2c_show_bus
                0x0000000080873ce8        0x8 arch/arm/cpu/armv7/start.o
 .rel.text.do_i2c_crc
                0x0000000080873cf0       0x20 arch/arm/cpu/armv7/start.o
 .rel.text.do_i2c_olen
                0x0000000080873d10       0x18 arch/arm/cpu/armv7/start.o
 .rel.text.do_i2c_flags
                0x0000000080873d28       0x18 arch/arm/cpu/armv7/start.o
 .rel.text.do_i2c_write
                0x0000000080873d40       0x18 arch/arm/cpu/armv7/start.o
 .rel.text.do_i2c_mw
                0x0000000080873d58       0x10 arch/arm/cpu/armv7/start.o
 .rel.text.do_i2c_read
                0x0000000080873d68       0x10 arch/arm/cpu/armv7/start.o
 .rel.text.do_i2c_md
                0x0000000080873d78       0x58 arch/arm/cpu/armv7/start.o
 .rel.text.mod_i2c_mem.isra.2
                0x0000000080873dd0       0x60 arch/arm/cpu/armv7/start.o
 .rel.text.do_i2c_loop
                0x0000000080873e30       0x18 arch/arm/cpu/armv7/start.o
 .rel.text.binary_test
                0x0000000080873e48       0x18 arch/arm/cpu/armv7/start.o
 .rel.text.do_itest
                0x0000000080873e60        0x8 arch/arm/cpu/armv7/start.o
 .rel.text.bin_data_init
                0x0000000080873e68       0x18 arch/arm/cpu/armv7/start.o
 .rel.text.k_data_save
                0x0000000080873e80       0x30 arch/arm/cpu/armv7/start.o
 .rel.text.k_data_restore
                0x0000000080873eb0       0x30 arch/arm/cpu/armv7/start.o
 .rel.text.load_serial_ymodem
                0x0000000080873ee0       0x20 arch/arm/cpu/armv7/start.o
 .rel.text.bin_data_char
                0x0000000080873f00       0x10 arch/arm/cpu/armv7/start.o
 .rel.text.chk1.constprop.1
                0x0000000080873f10        0x8 arch/arm/cpu/armv7/start.o
 .rel.text.s1_sendpacket.constprop.2
                0x0000000080873f18       0x18 arch/arm/cpu/armv7/start.o
 .rel.text.load_serial
                0x0000000080873f30       0x20 arch/arm/cpu/armv7/start.o
 .rel.text.do_load_serial
                0x0000000080873f50       0x30 arch/arm/cpu/armv7/start.o
 .rel.text.do_load_serial_bin
                0x0000000080873f80      0x120 arch/arm/cpu/armv7/start.o
 .rel.text.do_mem_mw
                0x00000000808740a0        0x8 arch/arm/cpu/armv7/start.o
 .rel.text.do_mem_md
                0x00000000808740a8       0x20 arch/arm/cpu/armv7/start.o
 .rel.text.do_mem_base
                0x00000000808740c8       0x10 arch/arm/cpu/armv7/start.o
 .rel.text.do_mem_cp
                0x00000000808740d8       0x10 arch/arm/cpu/armv7/start.o
 .rel.text.do_mem_cmp
                0x00000000808740e8       0x38 arch/arm/cpu/armv7/start.o
 .rel.text.do_mem_crc
                0x0000000080874120        0x8 arch/arm/cpu/armv7/start.o
 .rel.text.mod_mem.isra.2
                0x0000000080874128       0x48 arch/arm/cpu/armv7/start.o
 .rel.text.do_mii
                0x0000000080874170      0x1a8 arch/arm/cpu/armv7/start.o
 .rel.text.do_mdio
                0x0000000080874318       0xb0 arch/arm/cpu/armv7/start.o
 .rel.text.do_mmcops
                0x00000000808743c8       0x18 arch/arm/cpu/armv7/start.o
 .rel.text.init_mmc_device
                0x00000000808743e0        0x8 arch/arm/cpu/armv7/start.o
 .rel.text.do_mmc_rescan
                0x00000000808743e8        0x8 arch/arm/cpu/armv7/start.o
 .rel.text.do_mmc_hwpartition
                0x00000000808743f0       0xc8 arch/arm/cpu/armv7/start.o
 .rel.text.do_mmc_dev
                0x00000000808744b8       0x38 arch/arm/cpu/armv7/start.o
 .rel.text.do_mmc_part
                0x00000000808744f0       0x10 arch/arm/cpu/armv7/start.o
 .rel.text.do_mmc_erase
                0x0000000080874500       0x30 arch/arm/cpu/armv7/start.o
 .rel.text.do_mmc_write
                0x0000000080874530       0x30 arch/arm/cpu/armv7/start.o
 .rel.text.do_mmc_read
                0x0000000080874560       0x28 arch/arm/cpu/armv7/start.o
 .rel.text.do_mmcinfo
                0x0000000080874588       0xf8 arch/arm/cpu/armv7/start.o
 .rel.text.do_mmc_setdsr
                0x0000000080874680       0x28 arch/arm/cpu/armv7/start.o
 .rel.text.mtd_part_info
                0x00000000808746a8       0x28 arch/arm/cpu/armv7/start.o
 .rel.text.index_partitions
                0x00000000808746d0       0x50 arch/arm/cpu/armv7/start.o
 .rel.text.current_save
                0x0000000080874720       0x58 arch/arm/cpu/armv7/start.o
 .rel.text.part_sort_add
                0x0000000080874778       0x20 arch/arm/cpu/armv7/start.o
 .rel.text.env_get_mtdparts
                0x0000000080874798        0x8 arch/arm/cpu/armv7/start.o
 .rel.text.memsize_format
                0x00000000808747a0       0x20 arch/arm/cpu/armv7/start.o
 .rel.text.device_del
                0x00000000808747c0       0x18 arch/arm/cpu/armv7/start.o
 .rel.text.generate_mtdparts_save.constprop.7
                0x00000000808747d8       0x30 arch/arm/cpu/armv7/start.o
 .rel.text.device_delall.constprop.9
                0x0000000080874808        0x8 arch/arm/cpu/armv7/start.o
 .rel.text.mtd_devices_init
                0x0000000080874810       0x10 arch/arm/cpu/armv7/start.o
 .rel.text.get_mtd_info.constprop.10
                0x0000000080874820       0x28 arch/arm/cpu/armv7/start.o
 .rel.text.part_validate
                0x0000000080874848       0x48 arch/arm/cpu/armv7/start.o
 .rel.text.device_find
                0x0000000080874890        0x8 arch/arm/cpu/armv7/start.o
 .rel.text.device_parse
                0x0000000080874898       0xe0 arch/arm/cpu/armv7/start.o
 .rel.text.mtd_id_parse
                0x0000000080874978       0x30 arch/arm/cpu/armv7/start.o
 .rel.text.find_dev_and_part
                0x00000000808749a8       0x48 arch/arm/cpu/armv7/start.o
 .rel.text.mtdparts_init
                0x00000000808749f0      0x198 arch/arm/cpu/armv7/start.o
 .rel.text.do_chpart
                0x0000000080874b88       0x38 arch/arm/cpu/armv7/start.o
 .rel.text.do_mtdparts
                0x0000000080874bc0      0x168 arch/arm/cpu/armv7/start.o
 .rel.text.set_dev
                0x0000000080874d28       0x18 arch/arm/cpu/armv7/start.o
 .rel.text.nand_print_and_set_info
                0x0000000080874d40       0x60 arch/arm/cpu/armv7/start.o
 .rel.text.do_nand
                0x0000000080874da0      0x1c0 arch/arm/cpu/armv7/start.o
 .rel.text.nand_load_image
                0x0000000080874f60       0x50 arch/arm/cpu/armv7/start.o
 .rel.text.do_nandboot
                0x0000000080874fb0       0x20 arch/arm/cpu/armv7/start.o
 .rel.text.netboot_common
                0x0000000080874fd0       0xa8 arch/arm/cpu/armv7/start.o
 .rel.text.do_ping
                0x0000000080875078       0x18 arch/arm/cpu/armv7/start.o
 .rel.text.do_part_list
                0x0000000080875090       0x28 arch/arm/cpu/armv7/start.o
 .rel.text.do_part_start
                0x00000000808750b8       0x10 arch/arm/cpu/armv7/start.o
 .rel.text.do_part_size
                0x00000000808750c8       0x10 arch/arm/cpu/armv7/start.o
 .rel.text.do_part
                0x00000000808750d8       0x28 arch/arm/cpu/armv7/start.o
 .rel.text.do_pxe
                0x0000000080875100       0x10 arch/arm/cpu/armv7/start.o
 .rel.text.label_print
                0x0000000080875110        0x8 arch/arm/cpu/armv7/start.o
 .rel.text.do_get_tftp
                0x0000000080875118        0x8 arch/arm/cpu/armv7/start.o
 .rel.text.from_env
                0x0000000080875120        0x8 arch/arm/cpu/armv7/start.o
 .rel.text.get_string
                0x0000000080875128        0x8 arch/arm/cpu/armv7/start.o
 .rel.text.get_token
                0x0000000080875130        0x8 arch/arm/cpu/armv7/start.o
 .rel.text.parse_sliteral
                0x0000000080875138        0x8 arch/arm/cpu/armv7/start.o
 .rel.text.parse_integer
                0x0000000080875140        0x8 arch/arm/cpu/armv7/start.o
 .rel.text.do_get_any
                0x0000000080875148       0x10 arch/arm/cpu/armv7/start.o
 .rel.text.do_get_fat
                0x0000000080875158       0x10 arch/arm/cpu/armv7/start.o
 .rel.text.do_get_ext2
                0x0000000080875168       0x10 arch/arm/cpu/armv7/start.o
 .rel.text.format_mac_pxe.constprop.9
                0x0000000080875178       0x10 arch/arm/cpu/armv7/start.o
 .rel.text.get_relfile
                0x0000000080875188       0x38 arch/arm/cpu/armv7/start.o
 .rel.text.get_pxe_file
                0x00000000808751c0        0x8 arch/arm/cpu/armv7/start.o
 .rel.text.handle_include
                0x00000000808751c8       0x10 arch/arm/cpu/armv7/start.o
 .rel.text.parse_pxefile_top
                0x00000000808751d8      0x150 arch/arm/cpu/armv7/start.o
 .rel.text.get_pxelinux_path
                0x0000000080875328       0x18 arch/arm/cpu/armv7/start.o
 .rel.text.do_pxe_get
                0x0000000080875340       0x48 arch/arm/cpu/armv7/start.o
 .rel.text.label_boot
                0x0000000080875388      0x110 arch/arm/cpu/armv7/start.o
 .rel.text.handle_pxe_menu
                0x0000000080875498       0x18 arch/arm/cpu/armv7/start.o
 .rel.text.do_pxe_boot
                0x00000000808754b0       0x38 arch/arm/cpu/armv7/start.o
 .rel.text.do_sysboot
                0x00000000808754e8       0x80 arch/arm/cpu/armv7/start.o
 .rel.text.do_spi_flash
                0x0000000080875568      0x108 arch/arm/cpu/armv7/start.o
 .rel.text.do_spi
                0x0000000080875670       0x60 arch/arm/cpu/armv7/start.o
 .rel.text.do_time
                0x00000000808756d0       0x18 arch/arm/cpu/armv7/start.o
 .rel.text.do_test
                0x00000000808756e8       0x20 arch/arm/cpu/armv7/start.o
 .rel.text.usb_get_class_desc
                0x0000000080875708       0x50 arch/arm/cpu/armv7/start.o
 .rel.text.usb_display_class_sub
                0x0000000080875758       0x98 arch/arm/cpu/armv7/start.o
 .rel.text.usb_display_desc
                0x00000000808757f0       0x38 arch/arm/cpu/armv7/start.o
 .rel.text.usb_show_tree_graph
                0x0000000080875828       0x48 arch/arm/cpu/armv7/start.o
 .rel.text.usb_display_string
                0x0000000080875870        0x8 arch/arm/cpu/armv7/start.o
 .rel.text.usb_display_config
                0x0000000080875878       0xa8 arch/arm/cpu/armv7/start.o
 .rel.text.do_usbboot
                0x0000000080875920        0x8 arch/arm/cpu/armv7/start.o
 .rel.text.do_usb_start
                0x0000000080875928        0x8 arch/arm/cpu/armv7/start.o
 .rel.text.usb_show_tree
                0x0000000080875930        0x8 arch/arm/cpu/armv7/start.o
 .rel.text.do_usb
                0x0000000080875938       0xf0 arch/arm/cpu/armv7/start.o
 .rel.text.common_diskboot
                0x0000000080875a28       0x40 arch/arm/cpu/armv7/start.o
 .rel.text.do_fastboot
                0x0000000080875a68       0x28 arch/arm/cpu/armv7/start.o
 .rel.text.do_imgextract
                0x0000000080875a90       0xc8 arch/arm/cpu/armv7/start.o
 .rel.text.do_spl
                0x0000000080875b58       0x80 arch/arm/cpu/armv7/start.o
 .rel.text.do_dfu
                0x0000000080875bd8       0x10 arch/arm/cpu/armv7/start.o
 .rel.text.extract_val
                0x0000000080875be8       0x10 arch/arm/cpu/armv7/start.o
 .rel.text.extract_env
                0x0000000080875bf8       0x18 arch/arm/cpu/armv7/start.o
 .rel.text.set_gpt_info.constprop.1
                0x0000000080875c10       0x98 arch/arm/cpu/armv7/start.o
 .rel.text.do_gpt
                0x0000000080875ca8       0x78 arch/arm/cpu/armv7/start.o
 .rel.text.do_env_delete
                0x0000000080875d20       0x20 arch/arm/cpu/armv7/start.o
 .rel.text.do_env_exists
                0x0000000080875d40        0x8 arch/arm/cpu/armv7/start.o
 .rel.text.do_env_save
                0x0000000080875d48        0x8 arch/arm/cpu/armv7/start.o
 .rel.text.do_env
                0x0000000080875d50        0x8 arch/arm/cpu/armv7/start.o
 .rel.text.env_print
                0x0000000080875d58       0x18 arch/arm/cpu/armv7/start.o
 .rel.text.do_env_print
                0x0000000080875d70       0x10 arch/arm/cpu/armv7/start.o
 .rel.text.do_env_import
                0x0000000080875d80       0x58 arch/arm/cpu/armv7/start.o
 .rel.text.do_env_default
                0x0000000080875dd8       0x18 arch/arm/cpu/armv7/start.o
 .rel.text._do_env_set.isra.1
                0x0000000080875df0       0x40 arch/arm/cpu/armv7/start.o
 .rel.text.do_env_ask
                0x0000000080875e30       0x10 arch/arm/cpu/armv7/start.o
 .rel.text.get_env_id
                0x0000000080875e40        0x8 arch/arm/cpu/armv7/start.o
 .rel.text.env_set
                0x0000000080875e48        0x8 arch/arm/cpu/armv7/start.o
 .rel.text.env_set_hex
                0x0000000080875e50        0x8 arch/arm/cpu/armv7/start.o
 .rel.text.do_env_export
                0x0000000080875e58       0x40 arch/arm/cpu/armv7/start.o
 .rel.text.env_get_f
                0x0000000080875e98        0x8 arch/arm/cpu/armv7/start.o
 .rel.text.env_get
                0x0000000080875ea0        0x8 arch/arm/cpu/armv7/start.o
 .rel.text.do_env_edit.part.3
                0x0000000080875ea8       0x18 arch/arm/cpu/armv7/start.o
 .rel.rodata.op_table
                0x0000000080875ec0       0x68 arch/arm/cpu/armv7/start.o
 .rel.rodata.reg_4_desc_tbl
                0x0000000080875f28       0x60 arch/arm/cpu/armv7/start.o
 .rel.rodata.desc_and_len_tbl
                0x0000000080875f88       0x30 arch/arm/cpu/armv7/start.o
 .rel.rodata.reg_5_desc_tbl
                0x0000000080875fb8       0x60 arch/arm/cpu/armv7/start.o
 .rel.rodata.reg_2_desc_tbl
                0x0000000080876018        0x8 arch/arm/cpu/armv7/start.o
 .rel.rodata.reg_0_5_desc_tbl
                0x0000000080876020       0x30 arch/arm/cpu/armv7/start.o
 .rel.rodata.reg_3_desc_tbl
                0x0000000080876050       0x18 arch/arm/cpu/armv7/start.o
 .rel.rodata.reg_0_desc_tbl
                0x0000000080876068       0x50 arch/arm/cpu/armv7/start.o
 .rel.rodata.reg_1_desc_tbl
                0x00000000808760b8       0x80 arch/arm/cpu/armv7/start.o
 .rel.rodata.keywords
                0x0000000080876138       0x90 arch/arm/cpu/armv7/start.o
 .rel.rodata.op_adv
                0x00000000808761c8       0x80 arch/arm/cpu/armv7/start.o
 .rel.rodata.CSWTCH.30
                0x0000000080876248       0x28 arch/arm/cpu/armv7/start.o
 .rel.rodata.subcmd_list
                0x0000000080876270       0x10 arch/arm/cpu/armv7/start.o
 .rel.u_boot_list_2_cmd_2_go
                0x0000000080876280       0x20 arch/arm/cpu/armv7/start.o
 .rel.u_boot_list_2_cmd_2_reset
                0x00000000808762a0       0x20 arch/arm/cpu/armv7/start.o
 .rel.u_boot_list_2_cmd_2_iminfo
                0x00000000808762c0       0x20 arch/arm/cpu/armv7/start.o
 .rel.u_boot_list_2_cmd_2_boot
                0x00000000808762e0       0x20 arch/arm/cpu/armv7/start.o
 .rel.u_boot_list_2_cmd_2_bootd
                0x0000000080876300       0x20 arch/arm/cpu/armv7/start.o
 .rel.u_boot_list_2_cmd_2_bootm
                0x0000000080876320       0x20 arch/arm/cpu/armv7/start.o
 .rel.data.cmd_bootm_sub
                0x0000000080876340       0xd8 arch/arm/cpu/armv7/start.o
 .rel.u_boot_list_2_cmd_2_question_mark
                0x0000000080876418       0x20 arch/arm/cpu/armv7/start.o
 .rel.u_boot_list_2_cmd_2_help
                0x0000000080876438       0x20 arch/arm/cpu/armv7/start.o
 .rel.u_boot_list_2_cmd_2_version
                0x0000000080876458       0x20 arch/arm/cpu/armv7/start.o
 .rel.u_boot_list_2_cmd_2_source
                0x0000000080876478       0x20 arch/arm/cpu/armv7/start.o
 .rel.u_boot_list_2_cmd_2_bdinfo
                0x0000000080876498       0x20 arch/arm/cpu/armv7/start.o
 .rel.data.loaded_image_info_obj
                0x00000000808764b8       0x48 arch/arm/cpu/armv7/start.o
 .rel.u_boot_list_2_cmd_2_bootefi
                0x0000000080876500       0x20 arch/arm/cpu/armv7/start.o
 .rel.data.bootefi_device_obj
                0x0000000080876520       0x18 arch/arm/cpu/armv7/start.o
 .rel.data.loaded_image_info
                0x0000000080876538       0x10 arch/arm/cpu/armv7/start.o
 .rel.u_boot_list_2_cmd_2_bootz
                0x0000000080876548       0x20 arch/arm/cpu/armv7/start.o
 .rel.u_boot_list_2_cmd_2_coninfo
                0x0000000080876568       0x20 arch/arm/cpu/armv7/start.o
 .rel.u_boot_list_2_cmd_2_echo
                0x0000000080876588       0x20 arch/arm/cpu/armv7/start.o
 .rel.u_boot_list_2_cmd_2_eeprom
                0x00000000808765a8       0x20 arch/arm/cpu/armv7/start.o
 .rel.u_boot_list_2_cmd_2_bootelf
                0x00000000808765c8       0x20 arch/arm/cpu/armv7/start.o
 .rel.u_boot_list_2_cmd_2_bootvx
                0x00000000808765e8       0x20 arch/arm/cpu/armv7/start.o
 .rel.u_boot_list_2_cmd_2_exit
                0x0000000080876608       0x20 arch/arm/cpu/armv7/start.o
 .rel.u_boot_list_2_cmd_2_ext4load
                0x0000000080876628       0x20 arch/arm/cpu/armv7/start.o
 .rel.u_boot_list_2_cmd_2_ext4write
                0x0000000080876648       0x20 arch/arm/cpu/armv7/start.o
 .rel.u_boot_list_2_cmd_2_ext4ls
                0x0000000080876668       0x20 arch/arm/cpu/armv7/start.o
 .rel.u_boot_list_2_cmd_2_ext4size
                0x0000000080876688       0x20 arch/arm/cpu/armv7/start.o
 .rel.u_boot_list_2_cmd_2_ext2ls
                0x00000000808766a8       0x20 arch/arm/cpu/armv7/start.o
 .rel.u_boot_list_2_cmd_2_ext2load
                0x00000000808766c8       0x20 arch/arm/cpu/armv7/start.o
 .rel.u_boot_list_2_cmd_2_fatinfo
                0x00000000808766e8       0x20 arch/arm/cpu/armv7/start.o
 .rel.u_boot_list_2_cmd_2_fatwrite
                0x0000000080876708       0x20 arch/arm/cpu/armv7/start.o
 .rel.u_boot_list_2_cmd_2_fatload
                0x0000000080876728       0x20 arch/arm/cpu/armv7/start.o
 .rel.u_boot_list_2_cmd_2_fatls
                0x0000000080876748       0x20 arch/arm/cpu/armv7/start.o
 .rel.u_boot_list_2_cmd_2_fatsize
                0x0000000080876768       0x20 arch/arm/cpu/armv7/start.o
 .rel.u_boot_list_2_cmd_2_fdt
                0x0000000080876788       0x20 arch/arm/cpu/armv7/start.o
 .rel.u_boot_list_2_cmd_2_save
                0x00000000808767a8       0x20 arch/arm/cpu/armv7/start.o
 .rel.u_boot_list_2_cmd_2_size
                0x00000000808767c8       0x20 arch/arm/cpu/armv7/start.o
 .rel.u_boot_list_2_cmd_2_fstype
                0x00000000808767e8       0x20 arch/arm/cpu/armv7/start.o
 .rel.u_boot_list_2_cmd_2_ls
                0x0000000080876808       0x20 arch/arm/cpu/armv7/start.o
 .rel.u_boot_list_2_cmd_2_load
                0x0000000080876828       0x20 arch/arm/cpu/armv7/start.o
 .rel.u_boot_list_2_cmd_2_gpio
                0x0000000080876848       0x20 arch/arm/cpu/armv7/start.o
 .rel.u_boot_list_2_cmd_2_i2c
                0x0000000080876868       0x20 arch/arm/cpu/armv7/start.o
 .rel.data.cmd_i2c_sub
                0x0000000080876888      0x1e0 arch/arm/cpu/armv7/start.o
 .rel.u_boot_list_2_cmd_2_itest
                0x0000000080876a68       0x20 arch/arm/cpu/armv7/start.o
 .rel.u_boot_list_2_cmd_2_loadb
                0x0000000080876a88       0x20 arch/arm/cpu/armv7/start.o
 .rel.u_boot_list_2_cmd_2_loadx
                0x0000000080876aa8       0x20 arch/arm/cpu/armv7/start.o
 .rel.u_boot_list_2_cmd_2_loady
                0x0000000080876ac8       0x20 arch/arm/cpu/armv7/start.o
 .rel.u_boot_list_2_cmd_2_loads
                0x0000000080876ae8       0x20 arch/arm/cpu/armv7/start.o
 .rel.u_boot_list_2_cmd_2_base
                0x0000000080876b08       0x20 arch/arm/cpu/armv7/start.o
 .rel.u_boot_list_2_cmd_2_cmp
                0x0000000080876b28       0x20 arch/arm/cpu/armv7/start.o
 .rel.u_boot_list_2_cmd_2_nm
                0x0000000080876b48       0x20 arch/arm/cpu/armv7/start.o
 .rel.u_boot_list_2_cmd_2_loop
                0x0000000080876b68       0x20 arch/arm/cpu/armv7/start.o
 .rel.u_boot_list_2_cmd_2_cp
                0x0000000080876b88       0x20 arch/arm/cpu/armv7/start.o
 .rel.u_boot_list_2_cmd_2_mm
                0x0000000080876ba8       0x20 arch/arm/cpu/armv7/start.o
 .rel.u_boot_list_2_cmd_2_crc32
                0x0000000080876bc8       0x20 arch/arm/cpu/armv7/start.o
 .rel.u_boot_list_2_cmd_2_md
                0x0000000080876be8       0x20 arch/arm/cpu/armv7/start.o
 .rel.u_boot_list_2_cmd_2_mw
                0x0000000080876c08       0x20 arch/arm/cpu/armv7/start.o
 .rel.u_boot_list_2_cmd_2_mii
                0x0000000080876c28       0x20 arch/arm/cpu/armv7/start.o
 .rel.u_boot_list_2_cmd_2_mdio
                0x0000000080876c48       0x20 arch/arm/cpu/armv7/start.o
 .rel.u_boot_list_2_cmd_2_sleep
                0x0000000080876c68       0x20 arch/arm/cpu/armv7/start.o
 .rel.u_boot_list_2_cmd_2_mmcinfo
                0x0000000080876c88       0x20 arch/arm/cpu/armv7/start.o
 .rel.data.cmd_mmc
                0x0000000080876ca8      0x140 arch/arm/cpu/armv7/start.o
 .rel.u_boot_list_2_cmd_2_mmc
                0x0000000080876de8       0x20 arch/arm/cpu/armv7/start.o
 .rel.u_boot_list_2_cmd_2_mtdparts
                0x0000000080876e08       0x20 arch/arm/cpu/armv7/start.o
 .rel.u_boot_list_2_cmd_2_chpart
                0x0000000080876e28       0x20 arch/arm/cpu/armv7/start.o
 .rel.u_boot_list_2_cmd_2_nboot
                0x0000000080876e48       0x20 arch/arm/cpu/armv7/start.o
 .rel.u_boot_list_2_cmd_2_nand
                0x0000000080876e68       0x20 arch/arm/cpu/armv7/start.o
 .rel.u_boot_list_2_cmd_2_ping
                0x0000000080876e88       0x20 arch/arm/cpu/armv7/start.o
 .rel.u_boot_list_2_cmd_2_dhcp
                0x0000000080876ea8       0x20 arch/arm/cpu/armv7/start.o
 .rel.u_boot_list_2_cmd_2_bootp
                0x0000000080876ec8       0x20 arch/arm/cpu/armv7/start.o
 .rel.u_boot_list_2_cmd_2_tftpboot
                0x0000000080876ee8       0x20 arch/arm/cpu/armv7/start.o
 .rel.u_boot_list_2_cmd_2_nfs
                0x0000000080876f08       0x20 arch/arm/cpu/armv7/start.o
 .rel.u_boot_list_2_cmd_2_part
                0x0000000080876f28       0x20 arch/arm/cpu/armv7/start.o
 .rel.u_boot_list_2_cmd_2_pxe
                0x0000000080876f48       0x20 arch/arm/cpu/armv7/start.o
 .rel.data.cmd_pxe_sub
                0x0000000080876f68       0x40 arch/arm/cpu/armv7/start.o
 .rel.u_boot_list_2_cmd_2_sysboot
                0x0000000080876fa8       0x20 arch/arm/cpu/armv7/start.o
 .rel.data.pxe_default_paths
                0x0000000080876fc8       0x18 arch/arm/cpu/armv7/start.o
 .rel.u_boot_list_2_cmd_2_sf
                0x0000000080876fe0       0x20 arch/arm/cpu/armv7/start.o
 .rel.u_boot_list_2_cmd_2_sspi
                0x0000000080877000       0x20 arch/arm/cpu/armv7/start.o
 .rel.u_boot_list_2_cmd_2_time
                0x0000000080877020       0x20 arch/arm/cpu/armv7/start.o
 .rel.u_boot_list_2_cmd_2_test
                0x0000000080877040       0x20 arch/arm/cpu/armv7/start.o
 .rel.u_boot_list_2_cmd_2_true
                0x0000000080877060       0x18 arch/arm/cpu/armv7/start.o
 .rel.u_boot_list_2_cmd_2_false
                0x0000000080877078       0x18 arch/arm/cpu/armv7/start.o
 .rel.u_boot_list_2_cmd_2_usb
                0x0000000080877090       0x20 arch/arm/cpu/armv7/start.o
 .rel.u_boot_list_2_cmd_2_usbboot
                0x00000000808770b0       0x20 arch/arm/cpu/armv7/start.o
 .rel.u_boot_list_2_cmd_2_fastboot
                0x00000000808770d0       0x20 arch/arm/cpu/armv7/start.o
 .rel.u_boot_list_2_cmd_2_imxtract
                0x00000000808770f0       0x20 arch/arm/cpu/armv7/start.o
 .rel.data.cmd_spl_export_sub
                0x0000000080877110       0x30 arch/arm/cpu/armv7/start.o
 .rel.data.__compound_literal.0
                0x0000000080877140       0x38 arch/arm/cpu/armv7/start.o
 .rel.data.__compound_literal.1
                0x0000000080877178       0x30 arch/arm/cpu/armv7/start.o
 .rel.data.cmd_spl_sub
                0x00000000808771a8       0x18 arch/arm/cpu/armv7/start.o
 .rel.u_boot_list_2_cmd_2_spl
                0x00000000808771c0       0x20 arch/arm/cpu/armv7/start.o
 .rel.u_boot_list_2_cmd_2_dfu
                0x00000000808771e0       0x20 arch/arm/cpu/armv7/start.o
 .rel.u_boot_list_2_cmd_2_gpt
                0x0000000080877200       0x20 arch/arm/cpu/armv7/start.o
 .rel.u_boot_list_2_cmd_2_setenv
                0x0000000080877220       0x28 arch/arm/cpu/armv7/start.o
 .rel.u_boot_list_2_cmd_2_askenv
                0x0000000080877248       0x20 arch/arm/cpu/armv7/start.o
 .rel.u_boot_list_2_cmd_2_editenv
                0x0000000080877268       0x28 arch/arm/cpu/armv7/start.o
 .rel.u_boot_list_2_cmd_2_env
                0x0000000080877290       0x20 arch/arm/cpu/armv7/start.o
 .rel.u_boot_list_2_cmd_2_saveenv
                0x00000000808772b0       0x20 arch/arm/cpu/armv7/start.o
 .rel.data.cmd_env_sub
                0x00000000808772d0      0x160 arch/arm/cpu/armv7/start.o
 .rel.u_boot_list_2_cmd_2_printenv
                0x0000000080877430       0x28 arch/arm/cpu/armv7/start.o
 .rel.u_boot_list_2_cmd_2_run
                0x0000000080877458       0x28 arch/arm/cpu/armv7/start.o
 .rel.text.main_loop
                0x0000000080877480       0x18 arch/arm/cpu/armv7/start.o
 .rel.text.jumptable_init
                0x0000000080877498      0x100 arch/arm/cpu/armv7/start.o
 .rel.text.hash_lookup_algo
                0x0000000080877598       0x10 arch/arm/cpu/armv7/start.o
 .rel.text.hash_progressive_lookup_algo
                0x00000000808775a8        0x0 arch/arm/cpu/armv7/start.o
 .rel.text.hash_block
                0x00000000808775a8        0x0 arch/arm/cpu/armv7/start.o
 .rel.text.hash_command
                0x00000000808775a8       0x28 arch/arm/cpu/armv7/start.o
 .rel.text.mapset
                0x00000000808775d0        0x8 arch/arm/cpu/armv7/start.o
 .rel.text.syntax_err
                0x00000000808775d8        0x8 arch/arm/cpu/armv7/start.o
 .rel.text.xmalloc
                0x00000000808775e0        0x8 arch/arm/cpu/armv7/start.o
 .rel.text.xrealloc
                0x00000000808775e8        0x8 arch/arm/cpu/armv7/start.o
 .rel.text.done_word
                0x00000000808775f0       0x10 arch/arm/cpu/armv7/start.o
 .rel.text.do_showvar
                0x0000000080877600       0x20 arch/arm/cpu/armv7/start.o
 .rel.text.is_assignment
                0x0000000080877620        0x8 arch/arm/cpu/armv7/start.o
 .rel.text.file_get
                0x0000000080877628       0x30 arch/arm/cpu/armv7/start.o
 .rel.text.b_addqchr
                0x0000000080877658        0x8 arch/arm/cpu/armv7/start.o
 .rel.text.get_local_var
                0x0000000080877660       0x20 arch/arm/cpu/armv7/start.o
 .rel.text.set_local_var
                0x0000000080877680       0x20 arch/arm/cpu/armv7/start.o
 .rel.text.insert_var_value_sub
                0x00000000808776a0        0x8 arch/arm/cpu/armv7/start.o
 .rel.text.unset_local_var
                0x00000000808776a8        0x0 arch/arm/cpu/armv7/start.o
 .rel.text.parse_string_outer
                0x00000000808776a8       0x18 arch/arm/cpu/armv7/start.o
 .rel.text.run_list_real
                0x00000000808776c0       0x48 arch/arm/cpu/armv7/start.o
 .rel.text.parse_stream_outer
                0x0000000080877708       0x68 arch/arm/cpu/armv7/start.o
 .rel.text.parse_file_outer
                0x0000000080877770       0x10 arch/arm/cpu/armv7/start.o
 .rel.text.u_boot_hush_start
                0x0000000080877780       0x18 arch/arm/cpu/armv7/start.o
 .rel.text.bootdelay_process
                0x0000000080877798       0x60 arch/arm/cpu/armv7/start.o
 .rel.text.autoboot_command
                0x00000000808777f8       0x30 arch/arm/cpu/armv7/start.o
 .rel.text.setup_mon_len
                0x0000000080877828       0x10 arch/arm/cpu/armv7/start.o
 .rel.text.reserve_mmu
                0x0000000080877838        0x8 arch/arm/cpu/armv7/start.o
 .rel.text.display_new_sp
                0x0000000080877840        0x8 arch/arm/cpu/armv7/start.o
 .rel.text.reserve_fdt
                0x0000000080877848        0x8 arch/arm/cpu/armv7/start.o
 .rel.text.reserve_global_data
                0x0000000080877850        0x8 arch/arm/cpu/armv7/start.o
 .rel.text.reserve_malloc
                0x0000000080877858        0x8 arch/arm/cpu/armv7/start.o
 .rel.text.reserve_uboot
                0x0000000080877860        0x8 arch/arm/cpu/armv7/start.o
 .rel.text.display_text_info
                0x0000000080877868       0x18 arch/arm/cpu/armv7/start.o
 .rel.text.setup_reloc
                0x0000000080877880       0x18 arch/arm/cpu/armv7/start.o
 .rel.text.reserve_board
                0x0000000080877898        0x8 arch/arm/cpu/armv7/start.o
 .rel.text.announce_dram_init
                0x00000000808778a0        0x8 arch/arm/cpu/armv7/start.o
 .rel.text.init_baud_rate
                0x00000000808778a8        0x8 arch/arm/cpu/armv7/start.o
 .rel.text.show_dram_config
                0x00000000808778b0       0x28 arch/arm/cpu/armv7/start.o
 .rel.text.setup_dest_addr
                0x00000000808778d8       0x18 arch/arm/cpu/armv7/start.o
 .rel.text.board_init_f
                0x00000000808778f0        0x8 arch/arm/cpu/armv7/start.o
 .rel.text.initr_net
                0x00000000808778f8        0x8 arch/arm/cpu/armv7/start.o
 .rel.text.initr_ethaddr
                0x0000000080877900        0x8 arch/arm/cpu/armv7/start.o
 .rel.text.initr_env
                0x0000000080877908       0x20 arch/arm/cpu/armv7/start.o
 .rel.text.initr_mmc
                0x0000000080877928        0x8 arch/arm/cpu/armv7/start.o
 .rel.text.initr_nand
                0x0000000080877930       0x10 arch/arm/cpu/armv7/start.o
 .rel.text.initr_announce
                0x0000000080877940        0x8 arch/arm/cpu/armv7/start.o
 .rel.text.initr_malloc
                0x0000000080877948        0x8 arch/arm/cpu/armv7/start.o
 .rel.text.initr_reloc_global_data
                0x0000000080877950       0x18 arch/arm/cpu/armv7/start.o
 .rel.text.board_init_r
                0x0000000080877968        0x8 arch/arm/cpu/armv7/start.o
 .rel.text.show_board_info
                0x0000000080877970       0x10 arch/arm/cpu/armv7/start.o
 .rel.text.bootm_find_images
                0x0000000080877980       0x20 arch/arm/cpu/armv7/start.o
 .rel.text.bootm_decomp_image
                0x00000000808779a0       0x48 arch/arm/cpu/armv7/start.o
 .rel.text.do_bootm_states
                0x00000000808779e8      0x118 arch/arm/cpu/armv7/start.o
 .rel.text.do_bootm_rtems
                0x0000000080877b00        0x8 arch/arm/cpu/armv7/start.o
 .rel.text.do_bootm_plan9
                0x0000000080877b08       0x18 arch/arm/cpu/armv7/start.o
 .rel.text.do_bootm_standalone
                0x0000000080877b20       0x18 arch/arm/cpu/armv7/start.o
 .rel.text.do_bootm_qnxelf
                0x0000000080877b38        0x8 arch/arm/cpu/armv7/start.o
 .rel.text.do_bootm_netbsd
                0x0000000080877b40       0x18 arch/arm/cpu/armv7/start.o
 .rel.text.do_bootvx_fdt
                0x0000000080877b58       0x38 arch/arm/cpu/armv7/start.o
 .rel.text.boot_selected_os
                0x0000000080877b90        0x8 arch/arm/cpu/armv7/start.o
 .rel.text.bootm_os_get_boot_func
                0x0000000080877b98        0x8 arch/arm/cpu/armv7/start.o
 .rel.text.of_bus_default_map
                0x0000000080877ba0        0x8 arch/arm/cpu/armv7/start.o
 .rel.text.of_dump_addr
                0x0000000080877ba8       0x18 arch/arm/cpu/armv7/start.o
 .rel.text.fdt_support_default_count_cells
                0x0000000080877bc0        0x8 arch/arm/cpu/armv7/start.o
 .rel.text.fdt_find_or_add_subnode
                0x0000000080877bc8       0x10 arch/arm/cpu/armv7/start.o
 .rel.text.fdt_root
                0x0000000080877bd8       0x20 arch/arm/cpu/armv7/start.o
 .rel.text.fdt_initrd
                0x0000000080877bf8       0x30 arch/arm/cpu/armv7/start.o
 .rel.text.fdt_chosen
                0x0000000080877c28       0x20 arch/arm/cpu/armv7/start.o
 .rel.text.do_fixup_by_path
                0x0000000080877c48       0x20 arch/arm/cpu/armv7/start.o
 .rel.text.do_fixup_by_prop
                0x0000000080877c68        0x0 arch/arm/cpu/armv7/start.o
 .rel.text.do_fixup_by_compat
                0x0000000080877c68        0x0 arch/arm/cpu/armv7/start.o
 .rel.text.fdt_fixup_memory_banks
                0x0000000080877c68       0x38 arch/arm/cpu/armv7/start.o
 .rel.text.fdt_fixup_ethernet
                0x0000000080877ca0       0x30 arch/arm/cpu/armv7/start.o
 .rel.text.fdt_del_node_and_alias
                0x0000000080877cd0        0x0 arch/arm/cpu/armv7/start.o
 .rel.text.fdt_translate_address
                0x0000000080877cd0       0x78 arch/arm/cpu/armv7/start.o
 .rel.text.fdt_node_offset_by_compat_reg
                0x0000000080877d48        0x0 arch/arm/cpu/armv7/start.o
 .rel.text.fdt_set_phandle
                0x0000000080877d48        0x0 arch/arm/cpu/armv7/start.o
 .rel.text.fdt_create_phandle
                0x0000000080877d48        0x0 arch/arm/cpu/armv7/start.o
 .rel.text.fdt_set_node_status
                0x0000000080877d48        0x0 arch/arm/cpu/armv7/start.o
 .rel.text.fdt_verify_alias_address
                0x0000000080877d48        0x0 arch/arm/cpu/armv7/start.o
 .rel.text.fdt_get_base_address
                0x0000000080877d48        0x0 arch/arm/cpu/armv7/start.o
 .rel.text.fdt_read_range
                0x0000000080877d48        0x0 arch/arm/cpu/armv7/start.o
 .rel.text.fdt_setup_simplefb_node
                0x0000000080877d48        0x0 arch/arm/cpu/armv7/start.o
 .rel.text.fdt_fixup_display
                0x0000000080877d48        0x0 arch/arm/cpu/armv7/start.o
 .rel.text.miiphy_get_dev_by_name
                0x0000000080877d48       0x10 arch/arm/cpu/armv7/start.o
 .rel.text.miiphy_init
                0x0000000080877d58       0x10 arch/arm/cpu/armv7/start.o
 .rel.text.mdio_register
                0x0000000080877d68       0x18 arch/arm/cpu/armv7/start.o
 .rel.text.mdio_register_seq
                0x0000000080877d80        0x0 arch/arm/cpu/armv7/start.o
 .rel.text.mdio_unregister
                0x0000000080877d80        0x0 arch/arm/cpu/armv7/start.o
 .rel.text.mdio_list_devices
                0x0000000080877d80       0x28 arch/arm/cpu/armv7/start.o
 .rel.text.miiphy_set_current_dev
                0x0000000080877da8       0x10 arch/arm/cpu/armv7/start.o
 .rel.text.miiphy_get_active_dev
                0x0000000080877db8        0x8 arch/arm/cpu/armv7/start.o
 .rel.text.mdio_get_current_dev
                0x0000000080877dc0        0x8 arch/arm/cpu/armv7/start.o
 .rel.text.mdio_phydev_for_ethname
                0x0000000080877dc8       0x10 arch/arm/cpu/armv7/start.o
 .rel.text.miiphy_get_current_dev
                0x0000000080877dd8        0x8 arch/arm/cpu/armv7/start.o
 .rel.text.miiphy_listdev
                0x0000000080877de0       0x30 arch/arm/cpu/armv7/start.o
 .rel.text.miiphy_is_1000base_x
                0x0000000080877e10        0x8 arch/arm/cpu/armv7/start.o
 .rel.text.miiphy_speed
                0x0000000080877e18       0x28 arch/arm/cpu/armv7/start.o
 .rel.text.miiphy_duplex
                0x0000000080877e40       0x30 arch/arm/cpu/armv7/start.o
 .rel.text.usb_set_maxpacket_ep
                0x0000000080877e70       0x18 arch/arm/cpu/armv7/start.o
 .rel.text.usb_control_msg
                0x0000000080877e88        0x8 arch/arm/cpu/armv7/start.o
 .rel.text.get_descriptor_len
                0x0000000080877e90       0x10 arch/arm/cpu/armv7/start.o
 .rel.text.usb_string_sub
                0x0000000080877ea0        0x8 arch/arm/cpu/armv7/start.o
 .rel.text.usb_get_configuration_len
                0x0000000080877ea8       0x10 arch/arm/cpu/armv7/start.o
 .rel.text.usb_get_configuration_no
                0x0000000080877eb8        0x8 arch/arm/cpu/armv7/start.o
 .rel.text.usb_set_interface
                0x0000000080877ec0        0x8 arch/arm/cpu/armv7/start.o
 .rel.text.usb_string
                0x0000000080877ec8       0x18 arch/arm/cpu/armv7/start.o
 .rel.text.usb_select_config
                0x0000000080877ee0       0xb8 arch/arm/cpu/armv7/start.o
 .rel.text.usb_setup_device
                0x0000000080877f98       0x20 arch/arm/cpu/armv7/start.o
 .rel.text.usb_find_usb2_hub_address_port
                0x0000000080877fb8        0x8 arch/arm/cpu/armv7/start.o
 .rel.text.usb_hub_port_connect_change
                0x0000000080877fc0       0x78 arch/arm/cpu/armv7/start.o
 .rel.text.usb_hub_configure
                0x0000000080878038      0x1a0 arch/arm/cpu/armv7/start.o
 .rel.text.usb_hub_probe
                0x00000000808781d8        0x0 arch/arm/cpu/armv7/start.o
 .rel.text.usb_hub_post_probe
                0x00000000808781d8       0x10 arch/arm/cpu/armv7/start.o
 .rel.text.usb_stor_BBB_reset
                0x00000000808781e8       0x30 arch/arm/cpu/armv7/start.o
 .rel.text.usb_stor_CB_reset
                0x0000000080878218       0x18 arch/arm/cpu/armv7/start.o
 .rel.text.usb_stor_BBB_transport
                0x0000000080878230       0x88 arch/arm/cpu/armv7/start.o
 .rel.text.usb_stor_CB_comdat
                0x00000000808782b8       0xe8 arch/arm/cpu/armv7/start.o
 .rel.text.usb_stor_CBI_get_status.isra.2
                0x00000000808783a0       0x10 arch/arm/cpu/armv7/start.o
 .rel.text.usb_stor_CB_transport
                0x00000000808783b0       0x50 arch/arm/cpu/armv7/start.o
 .rel.text.usb_request_sense.constprop.9
                0x0000000080878400       0x10 arch/arm/cpu/armv7/start.o
 .rel.text.usb_stor_write
                0x0000000080878410       0x58 arch/arm/cpu/armv7/start.o
 .rel.text.usb_stor_read
                0x0000000080878468       0x58 arch/arm/cpu/armv7/start.o
 .rel.text.usb_stor_info
                0x00000000808784c0       0x20 arch/arm/cpu/armv7/start.o
 .rel.text.usb_stor_reset
                0x00000000808784e0        0x8 arch/arm/cpu/armv7/start.o
 .rel.text.usb_stor_scan
                0x00000000808784e8       0x18 arch/arm/cpu/armv7/start.o
 .rel.text.usb_storage_probe
                0x0000000080878500       0x78 arch/arm/cpu/armv7/start.o
 .rel.text.usb_stor_get_info
                0x0000000080878578       0x60 arch/arm/cpu/armv7/start.o
 .rel.text.usb_mass_storage_probe
                0x00000000808785d8       0x58 arch/arm/cpu/armv7/start.o
 .rel.text.menu_get_choice
                0x0000000080878630       0x18 arch/arm/cpu/armv7/start.o
 .rel.text.delete_char.part.0
                0x0000000080878648       0x10 arch/arm/cpu/armv7/start.o
 .rel.text.cread_add_char
                0x0000000080878658        0x8 arch/arm/cpu/armv7/start.o
 .rel.text.cli_readline_into_buffer
                0x0000000080878660       0xb0 arch/arm/cpu/armv7/start.o
 .rel.text.cli_readline
                0x0000000080878710        0x8 arch/arm/cpu/armv7/start.o
 .rel.text.cli_simple_parse_line
                0x0000000080878718        0x0 arch/arm/cpu/armv7/start.o
 .rel.text.cli_simple_run_command
                0x0000000080878718        0x0 arch/arm/cpu/armv7/start.o
 .rel.text.cli_simple_loop
                0x0000000080878718        0x0 arch/arm/cpu/armv7/start.o
 .rel.text.cli_simple_run_command_list
                0x0000000080878718        0x0 arch/arm/cpu/armv7/start.o
 .rel.text.console_setfile
                0x0000000080878718       0x30 arch/arm/cpu/armv7/start.o
 .rel.text.fgetc
                0x0000000080878748        0x8 arch/arm/cpu/armv7/start.o
 .rel.text.ftstc
                0x0000000080878750        0x8 arch/arm/cpu/armv7/start.o
 .rel.text.fputc
                0x0000000080878758        0x8 arch/arm/cpu/armv7/start.o
 .rel.text.fputs
                0x0000000080878760        0x8 arch/arm/cpu/armv7/start.o
 .rel.text.ctrlc
                0x0000000080878768       0x10 arch/arm/cpu/armv7/start.o
 .rel.text.confirm_yesno
                0x0000000080878778       0x20 arch/arm/cpu/armv7/start.o
 .rel.text.disable_ctrlc
                0x0000000080878798        0x8 arch/arm/cpu/armv7/start.o
 .rel.text.had_ctrlc
                0x00000000808787a0        0x8 arch/arm/cpu/armv7/start.o
 .rel.text.clear_ctrlc
                0x00000000808787a8        0x8 arch/arm/cpu/armv7/start.o
 .rel.text.on_console
                0x00000000808787b0       0x20 arch/arm/cpu/armv7/start.o
 .rel.text.console_announce_r
                0x00000000808787d0        0x0 arch/arm/cpu/armv7/start.o
 .rel.text.stdio_print_current_devices
                0x00000000808787d0        0x0 arch/arm/cpu/armv7/start.o
 .rel.text.console_init_r
                0x00000000808787d0       0x10 arch/arm/cpu/armv7/start.o
 .rel.text.do_check_chunk
                0x00000000808787e0       0x48 arch/arm/cpu/armv7/start.o
 .rel.text.do_check_free_chunk
                0x0000000080878828       0x60 arch/arm/cpu/armv7/start.o
 .rel.text.do_check_inuse_chunk
                0x0000000080878888       0x38 arch/arm/cpu/armv7/start.o
 .rel.text.do_check_malloced_chunk
                0x00000000808788c0       0x40 arch/arm/cpu/armv7/start.o
 .rel.text.malloc_update_mallinfo
                0x0000000080878900        0x0 arch/arm/cpu/armv7/start.o
 .rel.text.sbrk
                0x0000000080878900       0x18 arch/arm/cpu/armv7/start.o
 .rel.text.mem_malloc_init
                0x0000000080878918       0x20 arch/arm/cpu/armv7/start.o
 .rel.text.malloc_trim
                0x0000000080878938       0x18 arch/arm/cpu/armv7/start.o
 .rel.text.free
                0x0000000080878950       0x18 arch/arm/cpu/armv7/start.o
 .rel.text.malloc
                0x0000000080878968       0x68 arch/arm/cpu/armv7/start.o
 .rel.text.calloc
                0x00000000808789d0        0x8 arch/arm/cpu/armv7/start.o
 .rel.text.realloc
                0x00000000808789d8       0x10 arch/arm/cpu/armv7/start.o
 .rel.text.memalign
                0x00000000808789e8       0x18 arch/arm/cpu/armv7/start.o
 .rel.text.malloc_stats
                0x0000000080878a00        0x0 arch/arm/cpu/armv7/start.o
 .rel.text.mallinfo
                0x0000000080878a00        0x0 arch/arm/cpu/armv7/start.o
 .rel.text.mallopt
                0x0000000080878a00        0x0 arch/arm/cpu/armv7/start.o
 .rel.text.initf_malloc
                0x0000000080878a00       0x18 arch/arm/cpu/armv7/start.o
 .rel.text.malloc_simple
                0x0000000080878a18       0x20 arch/arm/cpu/armv7/start.o
 .rel.text.memalign_simple
                0x0000000080878a38        0x0 arch/arm/cpu/armv7/start.o
 .rel.text.on_loadaddr
                0x0000000080878a38        0x8 arch/arm/cpu/armv7/start.o
 .rel.text.env_get_bootm_low
                0x0000000080878a40        0x8 arch/arm/cpu/armv7/start.o
 .rel.text.env_get_bootm_size
                0x0000000080878a48       0x10 arch/arm/cpu/armv7/start.o
 .rel.text.env_get_bootm_mapsize
                0x0000000080878a58        0x8 arch/arm/cpu/armv7/start.o
 .rel.text.genimg_print_size
                0x0000000080878a60       0x10 arch/arm/cpu/armv7/start.o
 .rel.text.genimg_print_time
                0x0000000080878a70        0x8 arch/arm/cpu/armv7/start.o
 .rel.text.genimg_get_short_name
                0x0000000080878a78        0x0 arch/arm/cpu/armv7/start.o
 .rel.text.genimg_get_cat_name
                0x0000000080878a78        0x0 arch/arm/cpu/armv7/start.o
 .rel.text.genimg_get_cat_short_name
                0x0000000080878a78        0x0 arch/arm/cpu/armv7/start.o
 .rel.text.genimg_get_cat_count
                0x0000000080878a78        0x0 arch/arm/cpu/armv7/start.o
 .rel.text.genimg_get_cat_desc
                0x0000000080878a78        0x0 arch/arm/cpu/armv7/start.o
 .rel.text.genimg_get_os_name
                0x0000000080878a78       0x10 arch/arm/cpu/armv7/start.o
 .rel.text.genimg_get_arch_name
                0x0000000080878a88       0x10 arch/arm/cpu/armv7/start.o
 .rel.text.genimg_get_type_name
                0x0000000080878a98       0x10 arch/arm/cpu/armv7/start.o
 .rel.text.genimg_get_type_short_name
                0x0000000080878aa8        0x0 arch/arm/cpu/armv7/start.o
 .rel.text.genimg_get_comp_name
                0x0000000080878aa8       0x10 arch/arm/cpu/armv7/start.o
 .rel.text.image_print_contents
                0x0000000080878ab8       0x60 arch/arm/cpu/armv7/start.o
 .rel.text.genimg_get_comp_short_name
                0x0000000080878b18        0x0 arch/arm/cpu/armv7/start.o
 .rel.text.genimg_get_os_short_name
                0x0000000080878b18        0x0 arch/arm/cpu/armv7/start.o
 .rel.text.genimg_get_arch_short_name
                0x0000000080878b18        0x0 arch/arm/cpu/armv7/start.o
 .rel.text.get_table_entry_id
                0x0000000080878b18        0x8 arch/arm/cpu/armv7/start.o
 .rel.text.genimg_get_os_id
                0x0000000080878b20       0x10 arch/arm/cpu/armv7/start.o
 .rel.text.genimg_get_arch_id
                0x0000000080878b30       0x10 arch/arm/cpu/armv7/start.o
 .rel.text.genimg_get_type_id
                0x0000000080878b40       0x10 arch/arm/cpu/armv7/start.o
 .rel.text.genimg_get_comp_id
                0x0000000080878b50       0x10 arch/arm/cpu/armv7/start.o
 .rel.text.genimg_get_kernel_addr_fit
                0x0000000080878b60       0x28 arch/arm/cpu/armv7/start.o
 .rel.text.boot_get_ramdisk
                0x0000000080878b88       0x90 arch/arm/cpu/armv7/start.o
 .rel.text.boot_ramdisk_high
                0x0000000080878c18       0x38 arch/arm/cpu/armv7/start.o
 .rel.text.boot_get_loadable
                0x0000000080878c50       0x30 arch/arm/cpu/armv7/start.o
 .rel.text.android_image_get_kernel
                0x0000000080878c80       0x38 arch/arm/cpu/armv7/start.o
 .rel.text.android_image_check_header
                0x0000000080878cb8        0x8 arch/arm/cpu/armv7/start.o
 .rel.text.android_image_get_ramdisk
                0x0000000080878cc0        0x8 arch/arm/cpu/armv7/start.o
 .rel.text.android_print_contents
                0x0000000080878cc8       0x60 arch/arm/cpu/armv7/start.o
 .rel.text.fdt_error
                0x0000000080878d28       0x10 arch/arm/cpu/armv7/start.o
 .rel.text.boot_fdt_add_mem_rsv_regions
                0x0000000080878d38        0x8 arch/arm/cpu/armv7/start.o
 .rel.text.boot_relocate_fdt
                0x0000000080878d40       0x48 arch/arm/cpu/armv7/start.o
 .rel.text.boot_get_fdt
                0x0000000080878d88       0xd8 arch/arm/cpu/armv7/start.o
 .rel.text.image_setup_libfdt
                0x0000000080878e60       0x20 arch/arm/cpu/armv7/start.o
 .rel.text.fit_get_debug
                0x0000000080878e80        0x8 arch/arm/cpu/armv7/start.o
 .rel.text.fit_image_get_address
                0x0000000080878e88        0x8 arch/arm/cpu/armv7/start.o
 .rel.text.fit_get_desc
                0x0000000080878e90        0x8 arch/arm/cpu/armv7/start.o
 .rel.text.fit_get_timestamp
                0x0000000080878e98       0x10 arch/arm/cpu/armv7/start.o
 .rel.text.fit_image_get_node
                0x0000000080878ea8       0x18 arch/arm/cpu/armv7/start.o
 .rel.text.fit_image_get_os
                0x0000000080878ec0        0x8 arch/arm/cpu/armv7/start.o
 .rel.text.fit_image_get_arch
                0x0000000080878ec8        0x8 arch/arm/cpu/armv7/start.o
 .rel.text.fit_image_get_type
                0x0000000080878ed0        0x8 arch/arm/cpu/armv7/start.o
 .rel.text.fit_image_get_comp
                0x0000000080878ed8        0x8 arch/arm/cpu/armv7/start.o
 .rel.text.fit_image_get_load
                0x0000000080878ee0        0x8 arch/arm/cpu/armv7/start.o
 .rel.text.fit_image_get_entry
                0x0000000080878ee8        0x8 arch/arm/cpu/armv7/start.o
 .rel.text.fit_image_get_data
                0x0000000080878ef0        0x8 arch/arm/cpu/armv7/start.o
 .rel.text.fit_image_get_data_offset
                0x0000000080878ef8        0x0 arch/arm/cpu/armv7/start.o
 .rel.text.fit_image_get_data_size
                0x0000000080878ef8        0x0 arch/arm/cpu/armv7/start.o
 .rel.text.fit_image_hash_get_algo
                0x0000000080878ef8        0x8 arch/arm/cpu/armv7/start.o
 .rel.text.fit_image_hash_get_value
                0x0000000080878f00        0x8 arch/arm/cpu/armv7/start.o
 .rel.text.fit_image_print_data
                0x0000000080878f08       0x70 arch/arm/cpu/armv7/start.o
 .rel.text.fit_image_print
                0x0000000080878f78       0x88 arch/arm/cpu/armv7/start.o
 .rel.text.fit_set_timestamp
                0x0000000080879000        0x0 arch/arm/cpu/armv7/start.o
 .rel.text.calculate_hash
                0x0000000080879000       0x28 arch/arm/cpu/armv7/start.o
 .rel.text.fit_image_verify
                0x0000000080879028       0x68 arch/arm/cpu/armv7/start.o
 .rel.text.fit_all_image_verify
                0x0000000080879090       0x28 arch/arm/cpu/armv7/start.o
 .rel.text.fit_check_format
                0x00000000808790b8       0x30 arch/arm/cpu/armv7/start.o
 .rel.text.fit_conf_find_compat
                0x00000000808790e8        0x0 arch/arm/cpu/armv7/start.o
 .rel.text.fit_conf_get_node
                0x00000000808790e8       0x30 arch/arm/cpu/armv7/start.o
 .rel.text.fit_conf_print
                0x0000000080879118       0x70 arch/arm/cpu/armv7/start.o
 .rel.text.fit_print_contents
                0x0000000080879188       0x68 arch/arm/cpu/armv7/start.o
 .rel.text.fit_get_node_from_config
                0x00000000808791f0       0x18 arch/arm/cpu/armv7/start.o
 .rel.text.fit_image_load
                0x0000000080879208       0xa0 arch/arm/cpu/armv7/start.o
 .rel.text.boot_get_setup_fit
                0x00000000808792a8        0x8 arch/arm/cpu/armv7/start.o
 .rel.text.stdio_get_list
                0x00000000808792b0        0x8 arch/arm/cpu/armv7/start.o
 .rel.text.stdio_get_by_name
                0x00000000808792b8       0x10 arch/arm/cpu/armv7/start.o
 .rel.text.stdio_register_dev
                0x00000000808792c8        0x8 arch/arm/cpu/armv7/start.o
 .rel.text.stdio_init_tables
                0x00000000808792d0        0x8 arch/arm/cpu/armv7/start.o
 .rel.text.stdio_add_devices
                0x00000000808792d8       0x28 arch/arm/cpu/armv7/start.o
 .rel.text.do_run
                0x0000000080879300        0x8 arch/arm/cpu/armv7/start.o
 .rel.text.cli_process_fdt
                0x0000000080879308       0x10 arch/arm/cpu/armv7/start.o
 .rel.text.cli_secure_boot_cmd
                0x0000000080879318       0x18 arch/arm/cpu/armv7/start.o
 .rel.text.run_usb_dnl_gadget
                0x0000000080879330       0x30 arch/arm/cpu/armv7/start.o
 .rel.text.find_cmd
                0x0000000080879360       0x10 arch/arm/cpu/armv7/start.o
 .rel.text.cmd_usage
                0x0000000080879370       0x18 arch/arm/cpu/armv7/start.o
 .rel.text._do_help
                0x0000000080879388       0x10 arch/arm/cpu/armv7/start.o
 .rel.text.var_complete
                0x0000000080879398       0x10 arch/arm/cpu/armv7/start.o
 .rel.text.cmd_auto_complete
                0x00000000808793a8       0x58 arch/arm/cpu/armv7/start.o
 .rel.text.cmd_get_data_size
                0x0000000080879400        0x8 arch/arm/cpu/armv7/start.o
 .rel.text.cmd_process
                0x0000000080879408       0x20 arch/arm/cpu/armv7/start.o
 .rel.text.cmd_process_error
                0x0000000080879428        0x8 arch/arm/cpu/armv7/start.o
 .rel.text.zm_save
                0x0000000080879430        0x8 arch/arm/cpu/armv7/start.o
 .rel.text.zm_dprintf
                0x0000000080879438        0x8 arch/arm/cpu/armv7/start.o
 .rel.text.zm_dump
                0x0000000080879440        0x8 arch/arm/cpu/armv7/start.o
 .rel.text.xyzModem_get_hdr
                0x0000000080879448       0x38 arch/arm/cpu/armv7/start.o
 .rel.text.xyzModem_stream_open
                0x0000000080879480       0x28 arch/arm/cpu/armv7/start.o
 .rel.text.xyzModem_stream_read
                0x00000000808794a8       0x30 arch/arm/cpu/armv7/start.o
 .rel.text.xyzModem_stream_close
                0x00000000808794d8       0x30 arch/arm/cpu/armv7/start.o
 .rel.text.xyzModem_stream_terminate
                0x0000000080879508       0x30 arch/arm/cpu/armv7/start.o
 .rel.text.xyzModem_error
                0x0000000080879538       0x10 arch/arm/cpu/armv7/start.o
 .rel.rodata.init_sequence_f
                0x0000000080879548      0x170 arch/arm/cpu/armv7/start.o
 .rel.rodata.boot_os
                0x00000000808796b8       0x38 arch/arm/cpu/armv7/start.o
 .rel.rodata.usb_hub_ids
                0x00000000808796f0        0x8 arch/arm/cpu/armv7/start.o
 .rel.rodata.usb_mass_storage_ids
                0x00000000808796f8        0x8 arch/arm/cpu/armv7/start.o
 .rel.rodata.uimage_os
                0x0000000080879700       0xa0 arch/arm/cpu/armv7/start.o
 .rel.rodata.table_info
                0x00000000808797a0        0x0 arch/arm/cpu/armv7/start.o
 .rel.rodata.uimage_comp
                0x00000000808797a0       0x70 arch/arm/cpu/armv7/start.o
 .rel.rodata.uimage_type
                0x0000000080879810      0x200 arch/arm/cpu/armv7/start.o
 .rel.rodata.uimage_arch
                0x0000000080879a10      0x1a0 arch/arm/cpu/armv7/start.o
 .rel.rodata.CSWTCH.96
                0x0000000080879bb0       0xd8 arch/arm/cpu/armv7/start.o
 .rel.rodata.CSWTCH.44
                0x0000000080879c88       0x40 arch/arm/cpu/armv7/start.o
 .rel.data.hash_algo
                0x0000000080879cc8       0x78 arch/arm/cpu/armv7/start.o
 .rel.data.reserved_list
                0x0000000080879d40       0x58 arch/arm/cpu/armv7/start.o
 .rel.u_boot_list_2_cmd_2_showvar
                0x0000000080879d98       0x20 arch/arm/cpu/armv7/start.o
 .rel.data.init_sequence_r
                0x0000000080879db8      0x130 arch/arm/cpu/armv7/start.o
 .rel.data.of_busses
                0x0000000080879ee8       0x28 arch/arm/cpu/armv7/start.o
 .rel.u_boot_list_2_usb_driver_entry_2_usb_generic_hub
                0x0000000080879f10       0x10 arch/arm/cpu/armv7/start.o
 .rel.u_boot_list_2_uclass_2_usb_hub
                0x0000000080879f20       0x20 arch/arm/cpu/armv7/start.o
 .rel.u_boot_list_2_driver_2_usb_generic_hub
                0x0000000080879f40       0x10 arch/arm/cpu/armv7/start.o
 .rel.data.usb_scan_list
                0x0000000080879f50       0x10 arch/arm/cpu/armv7/start.o
 .rel.u_boot_list_2_driver_2_usb_mass_storage
                0x0000000080879f60       0x18 arch/arm/cpu/armv7/start.o
 .rel.u_boot_list_2_blk_driver_2_usb
                0x0000000080879f78       0x10 arch/arm/cpu/armv7/start.o
 .rel.u_boot_list_2_usb_driver_entry_2_usb_mass_storage
                0x0000000080879f88       0x10 arch/arm/cpu/armv7/start.o
 .rel.u_boot_list_2_uclass_2_usb_mass_storage
                0x0000000080879f98        0x8 arch/arm/cpu/armv7/start.o
 .rel.u_boot_list_2_env_clbk_2_console
                0x0000000080879fa0       0x10 arch/arm/cpu/armv7/start.o
 .rel.data.av_  0x0000000080879fb0      0x800 arch/arm/cpu/armv7/start.o
 .rel.u_boot_list_2_env_clbk_2_loadaddr
                0x000000008087a7b0       0x10 arch/arm/cpu/armv7/start.o
 .rel.data.stdio_names
                0x000000008087a7c0       0x18 arch/arm/cpu/armv7/start.o
 .rel.data.zm_out
                0x000000008087a7d8        0x8 arch/arm/cpu/armv7/start.o
 .rel.text.get_dev_hwpart
                0x000000008087a7e0       0x18 arch/arm/cpu/armv7/start.o
 .rel.text.dev_print
                0x000000008087a7f8       0x88 arch/arm/cpu/armv7/start.o
 .rel.text.part_init
                0x000000008087a880       0x20 arch/arm/cpu/armv7/start.o
 .rel.text.part_print
                0x000000008087a8a0       0x78 arch/arm/cpu/armv7/start.o
 .rel.text.part_get_info
                0x000000008087a918       0x18 arch/arm/cpu/armv7/start.o
 .rel.text.blk_get_device_by_str
                0x000000008087a930       0x18 arch/arm/cpu/armv7/start.o
 .rel.text.blk_get_device_part_str
                0x000000008087a948       0x60 arch/arm/cpu/armv7/start.o
 .rel.text.part_get_info_by_name
                0x000000008087a9a8        0x0 arch/arm/cpu/armv7/start.o
 .rel.text.part_set_generic_name
                0x000000008087a9a8       0x18 arch/arm/cpu/armv7/start.o
 .rel.text.test_block_type
                0x000000008087a9c0       0x10 arch/arm/cpu/armv7/start.o
 .rel.text.print_partition_extended
                0x000000008087a9d0       0x30 arch/arm/cpu/armv7/start.o
 .rel.text.part_print_dos
                0x000000008087aa00        0x8 arch/arm/cpu/armv7/start.o
 .rel.text.part_get_info_extended
                0x000000008087aa08       0x20 arch/arm/cpu/armv7/start.o
 .rel.text.write_mbr_partition
                0x000000008087aa28        0x0 arch/arm/cpu/armv7/start.o
 .rel.text.part_get_info_iso_verb
                0x000000008087aa28       0x70 arch/arm/cpu/armv7/start.o
 .rel.text.part_print_iso
                0x000000008087aa98       0x18 arch/arm/cpu/armv7/start.o
 .rel.text.print_efiname
                0x000000008087aab0       0x10 arch/arm/cpu/armv7/start.o
 .rel.text.set_protective_mbr
                0x000000008087aac0       0x28 arch/arm/cpu/armv7/start.o
 .rel.text.validate_gpt_entries
                0x000000008087aae8       0x10 arch/arm/cpu/armv7/start.o
 .rel.text.validate_gpt_header
                0x000000008087aaf8       0x38 arch/arm/cpu/armv7/start.o
 .rel.text.is_gpt_valid
                0x000000008087ab30       0x40 arch/arm/cpu/armv7/start.o
 .rel.text.is_pte_valid
                0x000000008087ab70       0x18 arch/arm/cpu/armv7/start.o
 .rel.text.part_print_efi
                0x000000008087ab88       0x68 arch/arm/cpu/armv7/start.o
 .rel.text.part_get_info_efi
                0x000000008087abf0       0x50 arch/arm/cpu/armv7/start.o
 .rel.text.get_disk_guid
                0x000000008087ac40       0x20 arch/arm/cpu/armv7/start.o
 .rel.text.write_gpt_table
                0x000000008087ac60       0x18 arch/arm/cpu/armv7/start.o
 .rel.text.gpt_fill_pte
                0x000000008087ac78       0x30 arch/arm/cpu/armv7/start.o
 .rel.text.gpt_fill_header
                0x000000008087aca8       0x10 arch/arm/cpu/armv7/start.o
 .rel.text.gpt_restore
                0x000000008087acb8       0x10 arch/arm/cpu/armv7/start.o
 .rel.text.gpt_verify_headers
                0x000000008087acc8       0x18 arch/arm/cpu/armv7/start.o
 .rel.text.gpt_verify_partitions
                0x000000008087ace0       0x50 arch/arm/cpu/armv7/start.o
 .rel.text.write_mbr_and_gpt_partitions
                0x000000008087ad30        0x0 arch/arm/cpu/armv7/start.o
 .rel.rodata.CSWTCH.46
                0x000000008087ad30       0x40 arch/arm/cpu/armv7/start.o
 .rel.u_boot_list_2_part_driver_2_dos
                0x000000008087ad70       0x20 arch/arm/cpu/armv7/start.o
 .rel.u_boot_list_2_part_driver_2_iso
                0x000000008087ad90       0x20 arch/arm/cpu/armv7/start.o
 .rel.u_boot_list_2_part_driver_2_a_efi
                0x000000008087adb0       0x20 arch/arm/cpu/armv7/start.o
 .rel.text.device_bind_common.isra.4
                0x000000008087add0       0x20 arch/arm/cpu/armv7/start.o
 .rel.text.device_probe
                0x000000008087adf0       0x20 arch/arm/cpu/armv7/start.o
 .rel.text.dev_get_platdata
                0x000000008087ae10       0x10 arch/arm/cpu/armv7/start.o
 .rel.text.dev_get_parent_platdata
                0x000000008087ae20       0x10 arch/arm/cpu/armv7/start.o
 .rel.text.dev_get_uclass_platdata
                0x000000008087ae30       0x10 arch/arm/cpu/armv7/start.o
 .rel.text.dev_get_priv
                0x000000008087ae40       0x10 arch/arm/cpu/armv7/start.o
 .rel.text.dev_get_uclass_priv
                0x000000008087ae50       0x10 arch/arm/cpu/armv7/start.o
 .rel.text.dev_get_parent_priv
                0x000000008087ae60       0x10 arch/arm/cpu/armv7/start.o
 .rel.text.devfdt_get_addr_index
                0x000000008087ae70       0x20 arch/arm/cpu/armv7/start.o
 .rel.text.devfdt_get_addr_size_index
                0x000000008087ae90        0x0 arch/arm/cpu/armv7/start.o
 .rel.text.devfdt_get_addr_name
                0x000000008087ae90        0x0 arch/arm/cpu/armv7/start.o
 .rel.text.lists_driver_lookup_name
                0x000000008087ae90       0x10 arch/arm/cpu/armv7/start.o
 .rel.text.lists_uclass_lookup
                0x000000008087aea0       0x10 arch/arm/cpu/armv7/start.o
 .rel.text.lists_bind_drivers
                0x000000008087aeb0       0x18 arch/arm/cpu/armv7/start.o
 .rel.text.device_bind_driver_to_node
                0x000000008087aec8        0x8 arch/arm/cpu/armv7/start.o
 .rel.text.lists_bind_fdt
                0x000000008087aed0       0x58 arch/arm/cpu/armv7/start.o
 .rel.text.dm_scan_fdt_node
                0x000000008087af28       0x18 arch/arm/cpu/armv7/start.o
 .rel.text.dm_root
                0x000000008087af40        0x8 arch/arm/cpu/armv7/start.o
 .rel.text.dm_init
                0x000000008087af48       0x10 arch/arm/cpu/armv7/start.o
 .rel.text.dm_scan_platdata
                0x000000008087af58        0x8 arch/arm/cpu/armv7/start.o
 .rel.text.dm_init_and_scan
                0x000000008087af60       0x18 arch/arm/cpu/armv7/start.o
 .rel.text.uclass_get_device_tail.part.3
                0x000000008087af78       0x18 arch/arm/cpu/armv7/start.o
 .rel.text.uclass_get
                0x000000008087af90        0x8 arch/arm/cpu/armv7/start.o
 .rel.text.uclass_find_device_by_seq
                0x000000008087af98       0x28 arch/arm/cpu/armv7/start.o
 .rel.text.uclass_resolve_seq
                0x000000008087afc0       0x20 arch/arm/cpu/armv7/start.o
 .rel.text.dm_fdt_pre_reloc
                0x000000008087afe0       0x18 arch/arm/cpu/armv7/start.o
 .rel.text.device_unbind
                0x000000008087aff8       0x18 arch/arm/cpu/armv7/start.o
 .rel.text.device_remove
                0x000000008087b010       0x30 arch/arm/cpu/armv7/start.o
 .rel.text.simple_bus_post_bind
                0x000000008087b040        0x8 arch/arm/cpu/armv7/start.o
 .rel.text.show_devices
                0x000000008087b048       0x30 arch/arm/cpu/armv7/start.o
 .rel.text.dm_dump_all
                0x000000008087b078       0x10 arch/arm/cpu/armv7/start.o
 .rel.text.dm_dump_uclass
                0x000000008087b088       0x20 arch/arm/cpu/armv7/start.o
 .rel.text.of_read_fmap_entry
                0x000000008087b0a8        0x0 arch/arm/cpu/armv7/start.o
 .rel.text.ofnode_read_u32
                0x000000008087b0a8       0x30 arch/arm/cpu/armv7/start.o
 .rel.text.ofnode_read_u32_default
                0x000000008087b0d8       0x18 arch/arm/cpu/armv7/start.o
 .rel.text.ofnode_read_s32_default
                0x000000008087b0f0        0x0 arch/arm/cpu/armv7/start.o
 .rel.text.ofnode_read_string
                0x000000008087b0f0        0x0 arch/arm/cpu/armv7/start.o
 .rel.text.ofnode_read_u32_array
                0x000000008087b0f0       0x20 arch/arm/cpu/armv7/start.o
 .rel.text.ofnode_first_subnode
                0x000000008087b110        0x0 arch/arm/cpu/armv7/start.o
 .rel.text.ofnode_next_subnode
                0x000000008087b110        0x0 arch/arm/cpu/armv7/start.o
 .rel.text.ofnode_get_name
                0x000000008087b110       0x18 arch/arm/cpu/armv7/start.o
 .rel.text.ofnode_find_subnode
                0x000000008087b128        0x0 arch/arm/cpu/armv7/start.o
 .rel.text.decode_timing_property
                0x000000008087b128        0x0 arch/arm/cpu/armv7/start.o
 .rel.text.ofnode_get_chosen_prop
                0x000000008087b128        0x0 arch/arm/cpu/armv7/start.o
 .rel.text.ofnode_read_bool
                0x000000008087b128        0x0 arch/arm/cpu/armv7/start.o
 .rel.text.ofnode_decode_display_timing
                0x000000008087b128        0x0 arch/arm/cpu/armv7/start.o
 .rel.text.ofnode_read_pci_addr
                0x000000008087b128        0x0 arch/arm/cpu/armv7/start.o
 .rel.text.ofnode_pre_reloc
                0x000000008087b128        0x0 arch/arm/cpu/armv7/start.o
 .rel.text.ofnode_read_resource
                0x000000008087b128        0x0 arch/arm/cpu/armv7/start.o
 .rel.text.ofnode_read_resource_byname
                0x000000008087b128        0x0 arch/arm/cpu/armv7/start.o
 .rel.text.timer_pre_probe
                0x000000008087b128        0x8 arch/arm/cpu/armv7/start.o
 .rel.text.dm_timer_init
                0x000000008087b130        0x8 arch/arm/cpu/armv7/start.o
 .rel.text.blk_driver_lookup_type
                0x000000008087b138       0x10 arch/arm/cpu/armv7/start.o
 .rel.text.blk_list_devices
                0x000000008087b148        0x8 arch/arm/cpu/armv7/start.o
 .rel.text.blk_print_device_num
                0x000000008087b150        0x8 arch/arm/cpu/armv7/start.o
 .rel.text.blk_show_device
                0x000000008087b158       0x10 arch/arm/cpu/armv7/start.o
 .rel.text.blk_get_devnum_by_typename
                0x000000008087b168       0x10 arch/arm/cpu/armv7/start.o
 .rel.text.mod_exp_sw
                0x000000008087b178       0x10 arch/arm/cpu/armv7/start.o
 .rel.text.mmc_send_status
                0x000000008087b188       0x10 arch/arm/cpu/armv7/start.o
 .rel.text.mmc_bread
                0x000000008087b198       0x28 arch/arm/cpu/armv7/start.o
 .rel.text.mmc_hwpart_config
                0x000000008087b1c0       0x48 arch/arm/cpu/armv7/start.o
 .rel.text.mmc_startup
                0x000000008087b208       0x58 arch/arm/cpu/armv7/start.o
 .rel.text.mmc_start_init
                0x000000008087b260       0x10 arch/arm/cpu/armv7/start.o
 .rel.text.mmc_init
                0x000000008087b270       0x10 arch/arm/cpu/armv7/start.o
 .rel.text.mmc_initialize
                0x000000008087b280       0x10 arch/arm/cpu/armv7/start.o
 .rel.text.find_mmc_device
                0x000000008087b290       0x10 arch/arm/cpu/armv7/start.o
 .rel.text.mmc_get_next_devnum
                0x000000008087b2a0        0x8 arch/arm/cpu/armv7/start.o
 .rel.text.get_mmc_num
                0x000000008087b2a8        0x8 arch/arm/cpu/armv7/start.o
 .rel.text.mmc_do_preinit
                0x000000008087b2b0        0x8 arch/arm/cpu/armv7/start.o
 .rel.text.mmc_list_init
                0x000000008087b2b8       0x10 arch/arm/cpu/armv7/start.o
 .rel.text.mmc_list_add
                0x000000008087b2c8        0x8 arch/arm/cpu/armv7/start.o
 .rel.text.print_mmc_devices
                0x000000008087b2d0       0x40 arch/arm/cpu/armv7/start.o
 .rel.text.mmc_create
                0x000000008087b310       0x18 arch/arm/cpu/armv7/start.o
 .rel.text.mmc_berase
                0x000000008087b328       0x10 arch/arm/cpu/armv7/start.o
 .rel.text.mmc_bwrite
                0x000000008087b338       0x18 arch/arm/cpu/armv7/start.o
 .rel.text.mmc_reset_controller_fsm
                0x000000008087b350       0x10 arch/arm/cpu/armv7/start.o
 .rel.text.omap_hsmmc_set_ios
                0x000000008087b360       0x10 arch/arm/cpu/armv7/start.o
 .rel.text.omap_hsmmc_send_cmd
                0x000000008087b370       0x38 arch/arm/cpu/armv7/start.o
 .rel.text.omap_hsmmc_ofdata_to_platdata
                0x000000008087b3a8       0x28 arch/arm/cpu/armv7/start.o
 .rel.text.mmc_init_stream
                0x000000008087b3d0       0x18 arch/arm/cpu/armv7/start.o
 .rel.text.omap_hsmmc_probe
                0x000000008087b3e8       0x38 arch/arm/cpu/armv7/start.o
 .rel.text.dfu_write_buffer_drain
                0x000000008087b420       0x20 arch/arm/cpu/armv7/start.o
 .rel.text.dfu_free_buf
                0x000000008087b440        0x8 arch/arm/cpu/armv7/start.o
 .rel.text.dfu_get_buf_size
                0x000000008087b448        0x8 arch/arm/cpu/armv7/start.o
 .rel.text.dfu_get_buf
                0x000000008087b450       0x28 arch/arm/cpu/armv7/start.o
 .rel.text.dfu_transaction_initiate
                0x000000008087b478       0x18 arch/arm/cpu/armv7/start.o
 .rel.text.dfu_flush
                0x000000008087b490       0x10 arch/arm/cpu/armv7/start.o
 .rel.text.dfu_write
                0x000000008087b4a0       0x28 arch/arm/cpu/armv7/start.o
 .rel.text.dfu_read
                0x000000008087b4c8       0x50 arch/arm/cpu/armv7/start.o
 .rel.text.dfu_free_entities
                0x000000008087b518       0x10 arch/arm/cpu/armv7/start.o
 .rel.text.dfu_config_entities
                0x000000008087b528       0xb8 arch/arm/cpu/armv7/start.o
 .rel.text.dfu_init_env_entities
                0x000000008087b5e0       0x28 arch/arm/cpu/armv7/start.o
 .rel.text.dfu_get_dev_type
                0x000000008087b608        0x8 arch/arm/cpu/armv7/start.o
 .rel.text.dfu_get_layout
                0x000000008087b610        0x8 arch/arm/cpu/armv7/start.o
 .rel.text.dfu_show_entities
                0x000000008087b618       0x18 arch/arm/cpu/armv7/start.o
 .rel.text.dfu_get_alt_number
                0x000000008087b630        0x8 arch/arm/cpu/armv7/start.o
 .rel.text.dfu_get_entity
                0x000000008087b638        0x8 arch/arm/cpu/armv7/start.o
 .rel.text.dfu_get_alt
                0x000000008087b640        0x0 arch/arm/cpu/armv7/start.o
 .rel.text.dfu_write_from_mem_addr
                0x000000008087b640        0x0 arch/arm/cpu/armv7/start.o
 .rel.text.mmc_block_op
                0x000000008087b640       0x48 arch/arm/cpu/armv7/start.o
 .rel.text.mmc_file_op
                0x000000008087b688       0x78 arch/arm/cpu/armv7/start.o
 .rel.text.dfu_free_entity_mmc
                0x000000008087b700        0x8 arch/arm/cpu/armv7/start.o
 .rel.text.dfu_write_medium_mmc
                0x000000008087b708       0x20 arch/arm/cpu/armv7/start.o
 .rel.text.dfu_flush_medium_mmc
                0x000000008087b728       0x10 arch/arm/cpu/armv7/start.o
 .rel.text.dfu_get_medium_size_mmc
                0x000000008087b738       0x18 arch/arm/cpu/armv7/start.o
 .rel.text.dfu_read_medium_mmc
                0x000000008087b750       0x20 arch/arm/cpu/armv7/start.o
 .rel.text.dfu_fill_entity_mmc
                0x000000008087b770       0xa0 arch/arm/cpu/armv7/start.o
 .rel.text.dfu_flush_medium_nand
                0x000000008087b810       0x20 arch/arm/cpu/armv7/start.o
 .rel.text.nand_block_op
                0x000000008087b830       0x30 arch/arm/cpu/armv7/start.o
 .rel.text.dfu_write_medium_nand
                0x000000008087b860       0x10 arch/arm/cpu/armv7/start.o
 .rel.text.dfu_read_medium_nand
                0x000000008087b870       0x10 arch/arm/cpu/armv7/start.o
 .rel.text.dfu_fill_entity_nand
                0x000000008087b880       0x78 arch/arm/cpu/armv7/start.o
 .rel.text.dfu_write_medium_ram
                0x000000008087b8f8       0x20 arch/arm/cpu/armv7/start.o
 .rel.text.dfu_read_medium_ram
                0x000000008087b918       0x20 arch/arm/cpu/armv7/start.o
 .rel.text.dfu_fill_entity_ram
                0x000000008087b938       0x48 arch/arm/cpu/armv7/start.o
 .rel.text.rtc_calc_weekday
                0x000000008087b980        0x8 arch/arm/cpu/armv7/start.o
 .rel.text.rtc_to_tm
                0x000000008087b988        0x8 arch/arm/cpu/armv7/start.o
 .rel.text.hw_watchdog_reset
                0x000000008087b990        0x8 arch/arm/cpu/armv7/start.o
 .rel.text._input_send_keycodes
                0x000000008087b998        0x0 arch/arm/cpu/armv7/start.o
 .rel.text.input_add_keycode
                0x000000008087b998        0x0 arch/arm/cpu/armv7/start.o
 .rel.text.input_add_table
                0x000000008087b998        0x0 arch/arm/cpu/armv7/start.o
 .rel.text.input_add_tables
                0x000000008087b998        0x0 arch/arm/cpu/armv7/start.o
 .rel.text.input_stdio_register
                0x000000008087b998        0x0 arch/arm/cpu/armv7/start.o
 .rel.text.create_keymap
                0x000000008087b998        0x0 arch/arm/cpu/armv7/start.o
 .rel.text.key_matrix_decode
                0x000000008087b998        0x0 arch/arm/cpu/armv7/start.o
 .rel.text.key_matrix_decode_fdt
                0x000000008087b998        0x0 arch/arm/cpu/armv7/start.o
 .rel.text.key_matrix_init
                0x000000008087b998        0x0 arch/arm/cpu/armv7/start.o
 .rel.rodata.root_info
                0x000000008087b998        0x8 arch/arm/cpu/armv7/start.o
 .rel.rodata.generic_simple_bus_ids
                0x000000008087b9a0       0x10 arch/arm/cpu/armv7/start.o
 .rel.rodata.omap_timer_ops
                0x000000008087b9b0        0x8 arch/arm/cpu/armv7/start.o
 .rel.rodata.omap_timer_ids
                0x000000008087b9b8       0x18 arch/arm/cpu/armv7/start.o
 .rel.rodata.mod_exp_ops_sw
                0x000000008087b9d0        0x8 arch/arm/cpu/armv7/start.o
 .rel.rodata.omap_hsmmc_ops
                0x000000008087b9d8       0x20 arch/arm/cpu/armv7/start.o
 .rel.rodata.omap_hsmmc_ids
                0x000000008087b9f8       0x30 arch/arm/cpu/armv7/start.o
 .rel.rodata.kbd_to_ansi364
                0x000000008087ba28        0x0 arch/arm/cpu/armv7/start.o
 .rel.u_boot_list_2_driver_2_root_driver
                0x000000008087ba28        0x8 arch/arm/cpu/armv7/start.o
 .rel.u_boot_list_2_uclass_2_root
                0x000000008087ba30        0x8 arch/arm/cpu/armv7/start.o
 .rel.u_boot_list_2_uclass_2_simple_bus
                0x000000008087ba38       0x10 arch/arm/cpu/armv7/start.o
 .rel.u_boot_list_2_driver_2_simple_bus_drv
                0x000000008087ba48       0x10 arch/arm/cpu/armv7/start.o
 .rel.u_boot_list_2_uclass_2_timer
                0x000000008087ba58       0x18 arch/arm/cpu/armv7/start.o
 .rel.u_boot_list_2_driver_2_omap_timer
                0x000000008087ba70       0x28 arch/arm/cpu/armv7/start.o
 .rel.u_boot_list_2_uclass_2_mod_exp
                0x000000008087ba98        0x8 arch/arm/cpu/armv7/start.o
 .rel.u_boot_list_2_driver_info_2_mod_exp_sw
                0x000000008087baa0        0x8 arch/arm/cpu/armv7/start.o
 .rel.u_boot_list_2_driver_2_mod_exp_sw
                0x000000008087baa8       0x10 arch/arm/cpu/armv7/start.o
 .rel.u_boot_list_2_uclass_2_misc
                0x000000008087bab8        0x8 arch/arm/cpu/armv7/start.o
 .rel.u_boot_list_2_driver_2_mmc
                0x000000008087bac0        0x8 arch/arm/cpu/armv7/start.o
 .rel.u_boot_list_2_uclass_2_mmc
                0x000000008087bac8        0x8 arch/arm/cpu/armv7/start.o
 .rel.u_boot_list_2_blk_driver_2_mmc
                0x000000008087bad0       0x18 arch/arm/cpu/armv7/start.o
 .rel.u_boot_list_2_driver_2_omap_hsmmc
                0x000000008087bae8       0x28 arch/arm/cpu/armv7/start.o
 .rel.data.dfu_list
                0x000000008087bb10       0x10 arch/arm/cpu/armv7/start.o
 .rel.data.kbd_entry
                0x000000008087bb20        0x0 arch/arm/cpu/armv7/start.o
 .rel.text.check_reserved
                0x000000008087bb20       0x10 arch/arm/cpu/armv7/start.o
 .rel.text.dm_gpio_lookup_name
                0x000000008087bb30        0x8 arch/arm/cpu/armv7/start.o
 .rel.text.gpio_direction_input
                0x000000008087bb38        0x8 arch/arm/cpu/armv7/start.o
 .rel.text.gpio_direction_output
                0x000000008087bb40        0x8 arch/arm/cpu/armv7/start.o
 .rel.text.dm_gpio_get_value
                0x000000008087bb48        0x8 arch/arm/cpu/armv7/start.o
 .rel.text.dm_gpio_set_value
                0x000000008087bb50        0x8 arch/arm/cpu/armv7/start.o
 .rel.text.dm_gpio_get_open_drain
                0x000000008087bb58        0x0 arch/arm/cpu/armv7/start.o
 .rel.text.dm_gpio_set_open_drain
                0x000000008087bb58        0x0 arch/arm/cpu/armv7/start.o
 .rel.text.dm_gpio_set_dir_flags
                0x000000008087bb58        0x8 arch/arm/cpu/armv7/start.o
 .rel.text.gpio_request_tail
                0x000000008087bb60       0x40 arch/arm/cpu/armv7/start.o
 .rel.text.gpio_get_bank_info
                0x000000008087bba0       0x18 arch/arm/cpu/armv7/start.o
 .rel.text.gpio_get_status
                0x000000008087bbb8       0x28 arch/arm/cpu/armv7/start.o
 .rel.text.gpio_request_by_name_nodev
                0x000000008087bbe0        0x0 arch/arm/cpu/armv7/start.o
 .rel.text.gpio_request_by_name
                0x000000008087bbe0        0x8 arch/arm/cpu/armv7/start.o
 .rel.text.gpio_get_list_count
                0x000000008087bbe8       0x18 arch/arm/cpu/armv7/start.o
 .rel.text.gpio_request_list_by_name_nodev
                0x000000008087bc00        0x8 arch/arm/cpu/armv7/start.o
 .rel.rodata.gpio_function
                0x000000008087bc08       0x28 arch/arm/cpu/armv7/start.o
 .rel.rodata.gpio_omap_ops
                0x000000008087bc30       0x28 arch/arm/cpu/armv7/start.o
 .rel.rodata.omap_gpio_ids
                0x000000008087bc58       0x18 arch/arm/cpu/armv7/start.o
 .rel.u_boot_list_2_uclass_2_gpio
                0x000000008087bc70       0x18 arch/arm/cpu/armv7/start.o
 .rel.u_boot_list_2_driver_2_gpio_omap
                0x000000008087bc88       0x28 arch/arm/cpu/armv7/start.o
 .rel.text.i2c_setup_offset
                0x000000008087bcb0       0x18 arch/arm/cpu/armv7/start.o
 .rel.text.i2c_dump_msgs
                0x000000008087bcc8        0x0 arch/arm/cpu/armv7/start.o
 .rel.text.i2c_get_chip
                0x000000008087bcc8       0x48 arch/arm/cpu/armv7/start.o
 .rel.text.i2c_get_chip_for_busnum
                0x000000008087bd10       0x10 arch/arm/cpu/armv7/start.o
 .rel.text.dm_i2c_probe
                0x000000008087bd20       0x18 arch/arm/cpu/armv7/start.o
 .rel.text.i2c_post_probe
                0x000000008087bd38        0x8 arch/arm/cpu/armv7/start.o
 .rel.text.i2c_chip_ofdata_to_platdata
                0x000000008087bd40       0x20 arch/arm/cpu/armv7/start.o
 .rel.text.i2c_compat_get_device
                0x000000008087bd60       0x10 arch/arm/cpu/armv7/start.o
 .rel.text.i2c_probe
                0x000000008087bd70       0x10 arch/arm/cpu/armv7/start.o
 .rel.text.i2c_get_bus_num
                0x000000008087bd80        0x0 arch/arm/cpu/armv7/start.o
 .rel.text.i2c_set_bus_num
                0x000000008087bd80        0x0 arch/arm/cpu/armv7/start.o
 .rel.text.__omap24_i2c_setspeed
                0x000000008087bd80       0x20 arch/arm/cpu/armv7/start.o
 .rel.text.wait_for_bb
                0x000000008087bda0        0x8 arch/arm/cpu/armv7/start.o
 .rel.text.wait_for_event
                0x000000008087bda8       0x10 arch/arm/cpu/armv7/start.o
 .rel.text.omap_i2c_probe_chip
                0x000000008087bdb8        0x8 arch/arm/cpu/armv7/start.o
 .rel.text.omap_i2c_xfer
                0x000000008087bdc0       0x68 arch/arm/cpu/armv7/start.o
 .rel.text.omap_i2c_probe
                0x000000008087be28       0x10 arch/arm/cpu/armv7/start.o
 .rel.rodata.omap_i2c_ops
                0x000000008087be38       0x18 arch/arm/cpu/armv7/start.o
 .rel.rodata.omap_i2c_ids
                0x000000008087be50       0x10 arch/arm/cpu/armv7/start.o
 .rel.u_boot_list_2_driver_2_i2c_generic_chip_drv
                0x000000008087be60        0x8 arch/arm/cpu/armv7/start.o
 .rel.u_boot_list_2_uclass_2_i2c_generic
                0x000000008087be68        0x8 arch/arm/cpu/armv7/start.o
 .rel.u_boot_list_2_uclass_2_i2c
                0x000000008087be70       0x20 arch/arm/cpu/armv7/start.o
 .rel.u_boot_list_2_driver_2_i2c_omap
                0x000000008087be90       0x28 arch/arm/cpu/armv7/start.o
 .rel.text.__mtd_next_device
                0x000000008087beb8        0x8 arch/arm/cpu/armv7/start.o
 .rel.text.del_mtd_device
                0x000000008087bec0        0x0 arch/arm/cpu/armv7/start.o
 .rel.text.get_mtd_device
                0x000000008087bec0        0x0 arch/arm/cpu/armv7/start.o
 .rel.text.__put_mtd_device
                0x000000008087bec0       0x10 arch/arm/cpu/armv7/start.o
 .rel.text.add_mtd_device
                0x000000008087bed0       0x20 arch/arm/cpu/armv7/start.o
 .rel.text.mtd_arg_off
                0x000000008087bef0       0x10 arch/arm/cpu/armv7/start.o
 .rel.text.mtd_arg_off_size
                0x000000008087bf00       0x28 arch/arm/cpu/armv7/start.o
 .rel.text.get_nand_dev_by_index
                0x000000008087bf28        0x8 arch/arm/cpu/armv7/start.o
 .rel.text.nand_register
                0x000000008087bf30       0x28 arch/arm/cpu/armv7/start.o
 .rel.text.nand_size
                0x000000008087bf58        0x8 arch/arm/cpu/armv7/start.o
 .rel.text.nand_init
                0x000000008087bf60       0x10 arch/arm/cpu/armv7/start.o
 .rel.text.verify_bbt_descr
                0x000000008087bf70       0x20 arch/arm/cpu/armv7/start.o
 .rel.text.create_bbt
                0x000000008087bf90       0x20 arch/arm/cpu/armv7/start.o
 .rel.text.nand_default_bbt
                0x000000008087bfb0       0x28 arch/arm/cpu/armv7/start.o
 .rel.text.nand_erase_opts
                0x000000008087bfd8       0x48 arch/arm/cpu/armv7/start.o
 .rel.text.nand_write_skip_bad
                0x000000008087c020       0x28 arch/arm/cpu/armv7/start.o
 .rel.text.nand_read_skip_bad
                0x000000008087c048       0x28 arch/arm/cpu/armv7/start.o
 .rel.text.nand_calculate_ecc
                0x000000008087c070        0x8 arch/arm/cpu/armv7/start.o
 .rel.text.nand_set_defaults
                0x000000008087c078       0x88 arch/arm/cpu/armv7/start.o
 .rel.text.nand_wait
                0x000000008087c100       0x10 arch/arm/cpu/armv7/start.o
 .rel.text.nand_fill_oob
                0x000000008087c110       0x20 arch/arm/cpu/armv7/start.o
 .rel.text.nand_select_chip
                0x000000008087c130       0x20 arch/arm/cpu/armv7/start.o
 .rel.text.nand_transfer_oob
                0x000000008087c150       0x20 arch/arm/cpu/armv7/start.o
 .rel.text.nand_scan_ident
                0x000000008087c170       0xa8 arch/arm/cpu/armv7/start.o
 .rel.text.nand_scan_tail
                0x000000008087c218      0x140 arch/arm/cpu/armv7/start.o
 .rel.text.onfi_async_timing_mode_to_sdr_timings
                0x000000008087c358        0x0 arch/arm/cpu/armv7/start.o
 .rel.text.omap_nand_hwcontrol
                0x000000008087c358        0x8 arch/arm/cpu/armv7/start.o
 .rel.text.omap_dev_ready
                0x000000008087c360        0x8 arch/arm/cpu/armv7/start.o
 .rel.text.omap_enable_hwecc
                0x000000008087c368        0x8 arch/arm/cpu/armv7/start.o
 .rel.text.omap_calculate_ecc
                0x000000008087c370        0x8 arch/arm/cpu/armv7/start.o
 .rel.text.omap_correct_data_bch
                0x000000008087c378       0x18 arch/arm/cpu/armv7/start.o
 .rel.text.omap_nand_read_prefetch
                0x000000008087c390        0x8 arch/arm/cpu/armv7/start.o
 .rel.text.omap_correct_data
                0x000000008087c398        0x0 arch/arm/cpu/armv7/start.o
 .rel.text.omap_nand_switch_ecc
                0x000000008087c398        0x0 arch/arm/cpu/armv7/start.o
 .rel.text.board_nand_init
                0x000000008087c398       0x68 arch/arm/cpu/armv7/start.o
 .rel.text.elm_check_error
                0x000000008087c400       0x18 arch/arm/cpu/armv7/start.o
 .rel.text.elm_config
                0x000000008087c418        0x8 arch/arm/cpu/armv7/start.o
 .rel.text.elm_reset
                0x000000008087c420        0x8 arch/arm/cpu/armv7/start.o
 .rel.text.elm_init
                0x000000008087c428        0x8 arch/arm/cpu/armv7/start.o
 .rel.data.bbt_mirror_descr
                0x000000008087c430        0x8 arch/arm/cpu/armv7/start.o
 .rel.data.bbt_main_no_oob_descr
                0x000000008087c438        0x8 arch/arm/cpu/armv7/start.o
 .rel.data.bbt_mirror_no_oob_descr
                0x000000008087c440        0x8 arch/arm/cpu/armv7/start.o
 .rel.data.bbt_main_descr
                0x000000008087c448        0x8 arch/arm/cpu/armv7/start.o
 .rel.data.nand_flash_ids
                0x000000008087c450      0x2a8 arch/arm/cpu/armv7/start.o
 .rel.data.nand_manuf_ids
                0x000000008087c6f8        0x0 arch/arm/cpu/armv7/start.o
 .rel.text.spi_flash_probe
                0x000000008087c6f8       0x10 arch/arm/cpu/armv7/start.o
 .rel.text.spi_flash_read_common
                0x000000008087c708       0x10 arch/arm/cpu/armv7/start.o
 .rel.text.read_sr
                0x000000008087c718        0x8 arch/arm/cpu/armv7/start.o
 .rel.text.spi_flash_write_common
                0x000000008087c720       0x40 arch/arm/cpu/armv7/start.o
 .rel.text.spi_flash_cmd_erase_ops
                0x000000008087c760       0x20 arch/arm/cpu/armv7/start.o
 .rel.text.spi_flash_cmd_write_ops
                0x000000008087c780       0x18 arch/arm/cpu/armv7/start.o
 .rel.text.read_cr
                0x000000008087c798        0x8 arch/arm/cpu/armv7/start.o
 .rel.text.spi_flash_cmd_read_ops
                0x000000008087c7a0       0x18 arch/arm/cpu/armv7/start.o
 .rel.text.spi_flash_scan
                0x000000008087c7b8       0x98 arch/arm/cpu/armv7/start.o
 .rel.text.spi_flash_read_write
                0x000000008087c850       0x10 arch/arm/cpu/armv7/start.o
 .rel.rodata.spi_flash_ids
                0x000000008087c860       0x90 arch/arm/cpu/armv7/start.o
 .rel.text.cpsw_gmii_sel_am3352
                0x000000008087c8f0       0x10 arch/arm/cpu/armv7/start.o
 .rel.text.cpsw_mdio_read
                0x000000008087c900       0x10 arch/arm/cpu/armv7/start.o
 .rel.text.cpsw_mdio_write
                0x000000008087c910       0x10 arch/arm/cpu/armv7/start.o
 .rel.text.cpsw_eth_ofdata_to_platdata
                0x000000008087c920      0x108 arch/arm/cpu/armv7/start.o
 .rel.text.cpsw_eth_send
                0x000000008087ca28        0x8 arch/arm/cpu/armv7/start.o
 .rel.text.cpsw_ale_add_mcast.constprop.11
                0x000000008087ca30        0x8 arch/arm/cpu/armv7/start.o
 .rel.text.cpsw_eth_start
                0x000000008087ca38       0x30 arch/arm/cpu/armv7/start.o
 .rel.text._cpsw_register
                0x000000008087ca68       0x18 arch/arm/cpu/armv7/start.o
 .rel.text.cpsw_am33xx_cm_get_macid
                0x000000008087ca80       0x28 arch/arm/cpu/armv7/start.o
 .rel.text.davinci_emac_3517_get_macid
                0x000000008087caa8       0x28 arch/arm/cpu/armv7/start.o
 .rel.text.ti_cm_get_macid
                0x000000008087cad0       0x38 arch/arm/cpu/armv7/start.o
 .rel.rodata.cpsw_eth_ops
                0x000000008087cb08       0x28 arch/arm/cpu/armv7/start.o
 .rel.rodata.cpsw_eth_ids
                0x000000008087cb30       0x10 arch/arm/cpu/armv7/start.o
 .rel.u_boot_list_2_driver_2_eth_cpsw
                0x000000008087cb40       0x28 arch/arm/cpu/armv7/start.o
 .rel.text.genphy_update_link
                0x000000008087cb68       0x28 arch/arm/cpu/armv7/start.o
 .rel.text.genphy_parse_link
                0x000000008087cb90        0x8 arch/arm/cpu/armv7/start.o
 .rel.text.phy_register
                0x000000008087cb98        0x8 arch/arm/cpu/armv7/start.o
 .rel.text.get_phy_device_by_mask
                0x000000008087cba0       0x30 arch/arm/cpu/armv7/start.o
 .rel.text.phy_reset
                0x000000008087cbd0       0x18 arch/arm/cpu/armv7/start.o
 .rel.text.phy_connect_dev
                0x000000008087cbe8       0x10 arch/arm/cpu/armv7/start.o
 .rel.text.phy_connect
                0x000000008087cbf8        0x8 arch/arm/cpu/armv7/start.o
 .rel.text.phy_get_interface_by_name
                0x000000008087cc00        0x8 arch/arm/cpu/armv7/start.o
 .rel.text.phy_atheros_init
                0x000000008087cc08       0x18 arch/arm/cpu/armv7/start.o
 .rel.text.phy_smsc_init
                0x000000008087cc20       0x28 arch/arm/cpu/armv7/start.o
 .rel.rodata.phy_interface_strings
                0x000000008087cc48       0x88 arch/arm/cpu/armv7/start.o
 .rel.data.genphy_driver
                0x000000008087ccd0       0x20 arch/arm/cpu/armv7/start.o
 .rel.data.phy_drivers
                0x000000008087ccf0       0x10 arch/arm/cpu/armv7/start.o
 .rel.data.AR8021_driver
                0x000000008087cd00       0x20 arch/arm/cpu/armv7/start.o
 .rel.data.AR8031_driver
                0x000000008087cd20       0x20 arch/arm/cpu/armv7/start.o
 .rel.data.AR8035_driver
                0x000000008087cd40       0x20 arch/arm/cpu/armv7/start.o
 .rel.data.lan8700_driver
                0x000000008087cd60       0x20 arch/arm/cpu/armv7/start.o
 .rel.data.lan8710_driver
                0x000000008087cd80       0x20 arch/arm/cpu/armv7/start.o
 .rel.data.lan911x_driver
                0x000000008087cda0       0x20 arch/arm/cpu/armv7/start.o
 .rel.data.lan8740_driver
                0x000000008087cdc0       0x20 arch/arm/cpu/armv7/start.o
 .rel.data.lan8742_driver
                0x000000008087cde0       0x20 arch/arm/cpu/armv7/start.o
 .rel.text.serial_post_probe
                0x000000008087ce00       0x20 arch/arm/cpu/armv7/start.o
 .rel.text.serial_init
                0x000000008087ce20       0x18 arch/arm/cpu/armv7/start.o
 .rel.text.on_baudrate
                0x000000008087ce38       0x18 arch/arm/cpu/armv7/start.o
 .rel.text.ns16550_serial_ofdata_to_platdata
                0x000000008087ce50       0x20 arch/arm/cpu/armv7/start.o
 .rel.rodata.ns16550_serial_ops
                0x000000008087ce70       0x20 arch/arm/cpu/armv7/start.o
 .rel.rodata.ns16550_serial_ids
                0x000000008087ce90       0x58 arch/arm/cpu/armv7/start.o
 .rel.u_boot_list_2_env_clbk_2_baudrate
                0x000000008087cee8       0x10 arch/arm/cpu/armv7/start.o
 .rel.u_boot_list_2_uclass_2_serial
                0x000000008087cef8       0x18 arch/arm/cpu/armv7/start.o
 .rel.u_boot_list_2_driver_2_ns16550_serial
                0x000000008087cf10       0x28 arch/arm/cpu/armv7/start.o
 .rel.text.spi_set_wordlen
                0x000000008087cf38        0x0 arch/arm/cpu/armv7/start.o
 .rel.text.spi_setup_slave
                0x000000008087cf38       0x28 arch/arm/cpu/armv7/start.o
 .rel.text.spi_xfer
                0x000000008087cf60       0x18 arch/arm/cpu/armv7/start.o
 .rel.text.usb_get_dr_mode
                0x000000008087cf78       0x28 arch/arm/cpu/armv7/start.o
 .rel.rodata.usb_dr_modes
                0x000000008087cfa0       0x20 arch/arm/cpu/armv7/start.o
 .rel.text.usb_ep_autoconfig
                0x000000008087cfc0        0x8 arch/arm/cpu/armv7/start.o
 .rel.text.usb_ep_autoconfig_reset
                0x000000008087cfc8        0x8 arch/arm/cpu/armv7/start.o
 .rel.text.composite_resume
                0x000000008087cfd0       0x18 arch/arm/cpu/armv7/start.o
 .rel.text.composite_suspend
                0x000000008087cfe8       0x18 arch/arm/cpu/armv7/start.o
 .rel.text.composite_setup_complete
                0x000000008087d000       0x10 arch/arm/cpu/armv7/start.o
 .rel.text.g_dnl_unbind
                0x000000008087d010       0x10 arch/arm/cpu/armv7/start.o
 .rel.text.composite_unbind
                0x000000008087d020       0x38 arch/arm/cpu/armv7/start.o
 .rel.text.composite_bind
                0x000000008087d058       0x18 arch/arm/cpu/armv7/start.o
 .rel.text.g_dnl_do_config
                0x000000008087d070       0x20 arch/arm/cpu/armv7/start.o
 .rel.text.reset_config.isra.6
                0x000000008087d090       0x10 arch/arm/cpu/armv7/start.o
 .rel.text.composite_disconnect
                0x000000008087d0a0        0x8 arch/arm/cpu/armv7/start.o
 .rel.text.composite_setup
                0x000000008087d0a8       0x58 arch/arm/cpu/armv7/start.o
 .rel.text.usb_add_function
                0x000000008087d100       0x10 arch/arm/cpu/armv7/start.o
 .rel.text.usb_add_config
                0x000000008087d110       0x40 arch/arm/cpu/armv7/start.o
 .rel.text.usb_composite_register
                0x000000008087d150       0x18 arch/arm/cpu/armv7/start.o
 .rel.text.usb_composite_unregister
                0x000000008087d168       0x10 arch/arm/cpu/armv7/start.o
 .rel.text.g_dnl_set_serialnumber
                0x000000008087d178        0x8 arch/arm/cpu/armv7/start.o
 .rel.text.g_dnl_bind
                0x000000008087d180       0x50 arch/arm/cpu/armv7/start.o
 .rel.text.g_dnl_detach
                0x000000008087d1d0        0x8 arch/arm/cpu/armv7/start.o
 .rel.text.g_dnl_trigger_detach
                0x000000008087d1d8        0x8 arch/arm/cpu/armv7/start.o
 .rel.text.g_dnl_clear_detach
                0x000000008087d1e0        0x8 arch/arm/cpu/armv7/start.o
 .rel.text.g_dnl_register
                0x000000008087d1e8       0x20 arch/arm/cpu/armv7/start.o
 .rel.text.g_dnl_unregister
                0x000000008087d208        0x8 arch/arm/cpu/armv7/start.o
 .rel.text.dfu_set_alt
                0x000000008087d210       0x10 arch/arm/cpu/armv7/start.o
 .rel.text.dfu_add
                0x000000008087d220       0x68 arch/arm/cpu/armv7/start.o
 .rel.text.dfu_handle
                0x000000008087d288       0x28 arch/arm/cpu/armv7/start.o
 .rel.text.dnload_request_flush
                0x000000008087d2b0        0x8 arch/arm/cpu/armv7/start.o
 .rel.text.dfu_disable
                0x000000008087d2b8       0x10 arch/arm/cpu/armv7/start.o
 .rel.text.dfu_bind
                0x000000008087d2c8       0x28 arch/arm/cpu/armv7/start.o
 .rel.text.state_dfu_manifest_sync
                0x000000008087d2f0        0x8 arch/arm/cpu/armv7/start.o
 .rel.text.state_dfu_dnload_idle
                0x000000008087d2f8        0x8 arch/arm/cpu/armv7/start.o
 .rel.text.state_app_idle
                0x000000008087d300        0x8 arch/arm/cpu/armv7/start.o
 .rel.text.state_dfu_manifest
                0x000000008087d308        0x8 arch/arm/cpu/armv7/start.o
 .rel.text.state_dfu_idle
                0x000000008087d310       0x10 arch/arm/cpu/armv7/start.o
 .rel.text.rx_bytes_expected
                0x000000008087d320       0x10 arch/arm/cpu/armv7/start.o
 .rel.text.fastboot_complete
                0x000000008087d330        0x8 arch/arm/cpu/armv7/start.o
 .rel.text.fastboot_unbind
                0x000000008087d338        0x8 arch/arm/cpu/armv7/start.o
 .rel.text.fastboot_add
                0x000000008087d340       0x48 arch/arm/cpu/armv7/start.o
 .rel.text.fastboot_set_alt
                0x000000008087d388       0x60 arch/arm/cpu/armv7/start.o
 .rel.text.do_bootm_on_complete
                0x000000008087d3e8       0x18 arch/arm/cpu/armv7/start.o
 .rel.text.fastboot_tx_write_str
                0x000000008087d400       0x10 arch/arm/cpu/armv7/start.o
 .rel.text.rx_handler_command
                0x000000008087d410       0x38 arch/arm/cpu/armv7/start.o
 .rel.text.cb_oem
                0x000000008087d448       0x18 arch/arm/cpu/armv7/start.o
 .rel.text.cb_continue
                0x000000008087d460       0x18 arch/arm/cpu/armv7/start.o
 .rel.text.cb_boot
                0x000000008087d478       0x18 arch/arm/cpu/armv7/start.o
 .rel.text.cb_download
                0x000000008087d490       0x40 arch/arm/cpu/armv7/start.o
 .rel.text.rx_handler_dl_image
                0x000000008087d4d0       0x30 arch/arm/cpu/armv7/start.o
 .rel.text.cb_getvar
                0x000000008087d500       0xa8 arch/arm/cpu/armv7/start.o
 .rel.text.fastboot_bind
                0x000000008087d5a8       0x48 arch/arm/cpu/armv7/start.o
 .rel.text.fastboot_fail
                0x000000008087d5f0        0x0 arch/arm/cpu/armv7/start.o
 .rel.text.fastboot_okay
                0x000000008087d5f0        0x0 arch/arm/cpu/armv7/start.o
 .rel.text.cb_reboot
                0x000000008087d5f0       0x28 arch/arm/cpu/armv7/start.o
 .rel.text.tx_complete
                0x000000008087d618       0x30 arch/arm/cpu/armv7/start.o
 .rel.text.rndis_response_complete
                0x000000008087d648        0x8 arch/arm/cpu/armv7/start.o
 .rel.text.eth_setup_complete
                0x000000008087d650        0x8 arch/arm/cpu/armv7/start.o
 .rel.text.rx_complete
                0x000000008087d658       0x20 arch/arm/cpu/armv7/start.o
 .rel.text.usb_eth_send
                0x000000008087d678       0x40 arch/arm/cpu/armv7/start.o
 .rel.text.rndis_command_complete
                0x000000008087d6b8       0x18 arch/arm/cpu/armv7/start.o
 .rel.text.eth_unbind
                0x000000008087d6d0       0x10 arch/arm/cpu/armv7/start.o
 .rel.text.rndis_control_ack_complete
                0x000000008087d6e0       0x20 arch/arm/cpu/armv7/start.o
 .rel.text.rndis_control_ack
                0x000000008087d700       0x18 arch/arm/cpu/armv7/start.o
 .rel.text.nibble
                0x000000008087d718        0x8 arch/arm/cpu/armv7/start.o
 .rel.text.eth_bind
                0x000000008087d720      0x168 arch/arm/cpu/armv7/start.o
 .rel.text.usb_eth_probe
                0x000000008087d888       0x18 arch/arm/cpu/armv7/start.o
 .rel.text.eth_reset_config
                0x000000008087d8a0       0x10 arch/arm/cpu/armv7/start.o
 .rel.text.usb_eth_recv
                0x000000008087d8b0       0x28 arch/arm/cpu/armv7/start.o
 .rel.text.set_ether_config.isra.15
                0x000000008087d8d8       0x50 arch/arm/cpu/armv7/start.o
 .rel.text.rx_submit.constprop.18
                0x000000008087d928       0x30 arch/arm/cpu/armv7/start.o
 .rel.text.usb_eth_free_pkt
                0x000000008087d958        0x8 arch/arm/cpu/armv7/start.o
 .rel.text.eth_setup
                0x000000008087d960       0xd8 arch/arm/cpu/armv7/start.o
 .rel.text.dm_usb_init
                0x000000008087da38       0x18 arch/arm/cpu/armv7/start.o
 .rel.text.usb_eth_start
                0x000000008087da50       0xa0 arch/arm/cpu/armv7/start.o
 .rel.text.usb_ether_init
                0x000000008087daf0       0x28 arch/arm/cpu/armv7/start.o
 .rel.text.rndis_add_response
                0x000000008087db18        0x8 arch/arm/cpu/armv7/start.o
 .rel.text.rndis_signal_connect
                0x000000008087db20        0x8 arch/arm/cpu/armv7/start.o
 .rel.text.rndis_signal_disconnect
                0x000000008087db28        0x8 arch/arm/cpu/armv7/start.o
 .rel.text.rndis_set_host_mac
                0x000000008087db30        0x8 arch/arm/cpu/armv7/start.o
 .rel.text.rndis_get_state
                0x000000008087db38        0x8 arch/arm/cpu/armv7/start.o
 .rel.text.rndis_msg_parser
                0x000000008087db40      0x168 arch/arm/cpu/armv7/start.o
 .rel.text.rndis_register
                0x000000008087dca8       0x20 arch/arm/cpu/armv7/start.o
 .rel.text.rndis_deregister
                0x000000008087dcc8       0x18 arch/arm/cpu/armv7/start.o
 .rel.text.rndis_set_param_dev
                0x000000008087dce0       0x18 arch/arm/cpu/armv7/start.o
 .rel.text.rndis_set_param_vendor
                0x000000008087dcf8       0x18 arch/arm/cpu/armv7/start.o
 .rel.text.rndis_set_param_medium
                0x000000008087dd10       0x18 arch/arm/cpu/armv7/start.o
 .rel.text.rndis_free_response
                0x000000008087dd28        0x8 arch/arm/cpu/armv7/start.o
 .rel.text.rndis_get_next_response
                0x000000008087dd30        0x8 arch/arm/cpu/armv7/start.o
 .rel.text.rndis_uninit
                0x000000008087dd38        0x8 arch/arm/cpu/armv7/start.o
 .rel.text.rndis_rm_hdr
                0x000000008087dd40       0x18 arch/arm/cpu/armv7/start.o
 .rel.text.rndis_init
                0x000000008087dd58        0x8 arch/arm/cpu/armv7/start.o
 .rel.rodata.CSWTCH.114
                0x000000008087dd60       0x18 arch/arm/cpu/armv7/start.o
 .rel.rodata.dfu_state
                0x000000008087dd78       0x50 arch/arm/cpu/armv7/start.o
 .rel.rodata.cmd_dispatch_info
                0x000000008087ddc8       0x60 arch/arm/cpu/armv7/start.o
 .rel.rodata.usb_eth_ops
                0x000000008087de28       0x28 arch/arm/cpu/armv7/start.o
 .rel.u_boot_list_2_env_clbk_2_serialno
                0x000000008087de50       0x10 arch/arm/cpu/armv7/start.o
 .rel.data.composite_driver
                0x000000008087de60       0x38 arch/arm/cpu/armv7/start.o
 .rel.data.g_dnl_driver
                0x000000008087de98       0x20 arch/arm/cpu/armv7/start.o
 .rel.data.g_dnl_string_tab
                0x000000008087deb8        0x8 arch/arm/cpu/armv7/start.o
 .rel.data.g_dnl_string_defs
                0x000000008087dec0       0x18 arch/arm/cpu/armv7/start.o
 .rel.data.g_dnl_composite_strings
                0x000000008087ded8        0x8 arch/arm/cpu/armv7/start.o
 .rel.data.dfu_strings
                0x000000008087dee0        0x8 arch/arm/cpu/armv7/start.o
 .rel.u_boot_list_2_g_dnl_bind_callbacks_2___usb_function_name_usb_dnl_dfu
                0x000000008087dee8       0x10 arch/arm/cpu/armv7/start.o
 .rel.data.dfu_generic_strings
                0x000000008087def8        0x8 arch/arm/cpu/armv7/start.o
 .rel.data.dfu_runtime_descs
                0x000000008087df00        0x8 arch/arm/cpu/armv7/start.o
 .rel.data.stringtab_dfu_generic
                0x000000008087df08        0x8 arch/arm/cpu/armv7/start.o
 .rel.data.strings_dfu_generic
                0x000000008087df10        0x8 arch/arm/cpu/armv7/start.o
 .rel.data.fb_fs_function
                0x000000008087df18       0x18 arch/arm/cpu/armv7/start.o
 .rel.data.fastboot_string_defs
                0x000000008087df30        0x8 arch/arm/cpu/armv7/start.o
 .rel.data.fastboot_strings
                0x000000008087df38        0x8 arch/arm/cpu/armv7/start.o
 .rel.data.stringtab_fastboot
                0x000000008087df40        0x8 arch/arm/cpu/armv7/start.o
 .rel.u_boot_list_2_g_dnl_bind_callbacks_2___usb_function_name_usb_dnl_fastboot
                0x000000008087df48       0x10 arch/arm/cpu/armv7/start.o
 .rel.data.fb_hs_function
                0x000000008087df58       0x18 arch/arm/cpu/armv7/start.o
 .rel.data.strings
                0x000000008087df70       0x38 arch/arm/cpu/armv7/start.o
 .rel.data.fs_rndis_function
                0x000000008087dfa8       0x50 arch/arm/cpu/armv7/start.o
 .rel.data.hs_rndis_function
                0x000000008087dff8       0x50 arch/arm/cpu/armv7/start.o
 .rel.u_boot_list_2_driver_2_eth_usb
                0x000000008087e048       0x18 arch/arm/cpu/armv7/start.o
 .rel.data.hs_eth_function
                0x000000008087e060        0x8 arch/arm/cpu/armv7/start.o
 .rel.data.fs_eth_function
                0x000000008087e068        0x8 arch/arm/cpu/armv7/start.o
 .rel.data.stringtab
                0x000000008087e070        0x8 arch/arm/cpu/armv7/start.o
 .rel.data.l_priv
                0x000000008087e078        0x8 arch/arm/cpu/armv7/start.o
 .rel.text.usb_child_post_bind
                0x000000008087e080       0x10 arch/arm/cpu/armv7/start.o
 .rel.text.usb_disable_asynch
                0x000000008087e090        0x8 arch/arm/cpu/armv7/start.o
 .rel.text.usb_stop
                0x000000008087e098        0x8 arch/arm/cpu/armv7/start.o
 .rel.text.usb_get_bus
                0x000000008087e0a0       0x20 arch/arm/cpu/armv7/start.o
 .rel.text.usb_scan_device
                0x000000008087e0c0       0x80 arch/arm/cpu/armv7/start.o
 .rel.text.usb_scan_bus.constprop.6
                0x000000008087e140       0x28 arch/arm/cpu/armv7/start.o
 .rel.text.usb_init
                0x000000008087e168       0x40 arch/arm/cpu/armv7/start.o
 .rel.u_boot_list_2_uclass_2_usb
                0x000000008087e1a8       0x20 arch/arm/cpu/armv7/start.o
 .rel.u_boot_list_2_driver_2_usb_dev_generic_drv
                0x000000008087e1c8        0x8 arch/arm/cpu/armv7/start.o
 .rel.u_boot_list_2_uclass_2_usb_dev_generic
                0x000000008087e1d0        0x8 arch/arm/cpu/armv7/start.o
 .rel.text.musb_gadget_fifo_flush
                0x000000008087e1d8        0x8 arch/arm/cpu/armv7/start.o
 .rel.text.musb_gadget_fifo_status
                0x000000008087e1e0        0x8 arch/arm/cpu/armv7/start.o
 .rel.text.musb_gadget_enable
                0x000000008087e1e8       0x58 arch/arm/cpu/armv7/start.o
 .rel.text.txstate
                0x000000008087e240       0x30 arch/arm/cpu/armv7/start.o
 .rel.text.musb_alloc_request
                0x000000008087e270        0x8 arch/arm/cpu/armv7/start.o
 .rel.text.init_peripheral_ep
                0x000000008087e278       0x30 arch/arm/cpu/armv7/start.o
 .rel.text.musb_gadget_pullup
                0x000000008087e2a8       0x20 arch/arm/cpu/armv7/start.o
 .rel.text.musb_g_giveback
                0x000000008087e2c8       0x10 arch/arm/cpu/armv7/start.o
 .rel.text.rxstate
                0x000000008087e2d8       0x18 arch/arm/cpu/armv7/start.o
 .rel.text.musb_gadget_dequeue
                0x000000008087e2f0       0x10 arch/arm/cpu/armv7/start.o
 .rel.text.musb_gadget_disable
                0x000000008087e300       0x10 arch/arm/cpu/armv7/start.o
 .rel.text.musb_g_tx
                0x000000008087e310       0x20 arch/arm/cpu/armv7/start.o
 .rel.text.musb_g_rx
                0x000000008087e330       0x20 arch/arm/cpu/armv7/start.o
 .rel.text.musb_ep_restart
                0x000000008087e350       0x18 arch/arm/cpu/armv7/start.o
 .rel.text.musb_gadget_set_halt
                0x000000008087e368       0x38 arch/arm/cpu/armv7/start.o
 .rel.text.musb_gadget_queue
                0x000000008087e3a0       0x20 arch/arm/cpu/armv7/start.o
 .rel.text.musb_gadget_setup
                0x000000008087e3c0       0x10 arch/arm/cpu/armv7/start.o
 .rel.text.musb_gadget_start
                0x000000008087e3d0        0x8 arch/arm/cpu/armv7/start.o
 .rel.text.musb_g_disconnect
                0x000000008087e3d8        0x0 arch/arm/cpu/armv7/start.o
 .rel.text.musb_g_ep0_halt
                0x000000008087e3d8       0x10 arch/arm/cpu/armv7/start.o
 .rel.text.ep0_txstate
                0x000000008087e3e8        0x8 arch/arm/cpu/armv7/start.o
 .rel.text.musb_g_ep0_queue
                0x000000008087e3f0       0x28 arch/arm/cpu/armv7/start.o
 .rel.text.musb_g_ep0_irq
                0x000000008087e418       0xd0 arch/arm/cpu/armv7/start.o
 .rel.text.musb_write_fifo
                0x000000008087e4e8        0x8 arch/arm/cpu/armv7/start.o
 .rel.text.musb_read_fifo
                0x000000008087e4f0        0x8 arch/arm/cpu/armv7/start.o
 .rel.text.musb_load_testpacket
                0x000000008087e4f8        0x8 arch/arm/cpu/armv7/start.o
 .rel.text.musb_start
                0x000000008087e500        0x8 arch/arm/cpu/armv7/start.o
 .rel.text.musb_stop
                0x000000008087e508        0x8 arch/arm/cpu/armv7/start.o
 .rel.text.musb_interrupt
                0x000000008087e510       0x20 arch/arm/cpu/armv7/start.o
 .rel.text.musb_init_controller
                0x000000008087e530      0x178 arch/arm/cpu/armv7/start.o
 .rel.text.construct_urb
                0x000000008087e6a8        0x8 arch/arm/cpu/armv7/start.o
 .rel.text.musb_create_int_queue
                0x000000008087e6b0       0x18 arch/arm/cpu/armv7/start.o
 .rel.text.submit_urb
                0x000000008087e6c8        0x8 arch/arm/cpu/armv7/start.o
 .rel.text.musb_lowlevel_init
                0x000000008087e6d0        0x8 arch/arm/cpu/armv7/start.o
 .rel.text.usb_gadget_handle_interrupts
                0x000000008087e6d8        0x8 arch/arm/cpu/armv7/start.o
 .rel.text.usb_gadget_register_driver
                0x000000008087e6e0       0x28 arch/arm/cpu/armv7/start.o
 .rel.text.usb_gadget_unregister_driver
                0x000000008087e708        0x8 arch/arm/cpu/armv7/start.o
 .rel.text.musb_register
                0x000000008087e710        0x0 arch/arm/cpu/armv7/start.o
 .rel.text.musb_h_tx_flush_fifo
                0x000000008087e710       0x10 arch/arm/cpu/armv7/start.o
 .rel.text.musb_h_ep0_flush_fifo
                0x000000008087e720        0x8 arch/arm/cpu/armv7/start.o
 .rel.text.musb_giveback.isra.9
                0x000000008087e728       0x18 arch/arm/cpu/armv7/start.o
 .rel.text.musb_start_urb
                0x000000008087e740       0x98 arch/arm/cpu/armv7/start.o
 .rel.text.musb_advance_schedule
                0x000000008087e7d8        0x8 arch/arm/cpu/armv7/start.o
 .rel.text.musb_h_ep0_irq
                0x000000008087e7e0       0x80 arch/arm/cpu/armv7/start.o
 .rel.text.musb_host_tx
                0x000000008087e860       0x38 arch/arm/cpu/armv7/start.o
 .rel.text.musb_host_rx
                0x000000008087e898       0x80 arch/arm/cpu/armv7/start.o
 .rel.text.musb_urb_enqueue
                0x000000008087e918       0x18 arch/arm/cpu/armv7/start.o
 .rel.text.musb_urb_dequeue
                0x000000008087e930       0x20 arch/arm/cpu/armv7/start.o
 .rel.text.dsps_musb_init
                0x000000008087e950        0x8 arch/arm/cpu/armv7/start.o
 .rel.text.dsps_interrupt
                0x000000008087e958       0x10 arch/arm/cpu/armv7/start.o
 .rel.text.ti_musb_host_ofdata_to_platdata
                0x000000008087e968       0x58 arch/arm/cpu/armv7/start.o
 .rel.text.ti_musb_wrapper_bind
                0x000000008087e9c0       0x28 arch/arm/cpu/armv7/start.o
 .rel.rodata.musb_ep_ops
                0x000000008087e9e8       0x48 arch/arm/cpu/armv7/start.o
 .rel.rodata.musb_gadget_operations
                0x000000008087ea30       0x28 arch/arm/cpu/armv7/start.o
 .rel.rodata.musb_g_ep0_ops
                0x000000008087ea58       0x38 arch/arm/cpu/armv7/start.o
 .rel.rodata.CSWTCH.19
                0x000000008087ea90       0x38 arch/arm/cpu/armv7/start.o
 .rel.rodata.ti_musb_ids
                0x000000008087eac8        0x8 arch/arm/cpu/armv7/start.o
 .rel.data.musb_usb_ops
                0x000000008087ead0       0x38 arch/arm/cpu/armv7/start.o
 .rel.data.musb_dsps_ops
                0x000000008087eb08       0x20 arch/arm/cpu/armv7/start.o
 .rel.u_boot_list_2_driver_2_ti_musb_host
                0x000000008087eb28       0x28 arch/arm/cpu/armv7/start.o
 .rel.u_boot_list_2_driver_2_ti_musb_wrapper
                0x000000008087eb50       0x18 arch/arm/cpu/armv7/start.o
 .rel.text.set_default_env
                0x000000008087eb68       0x40 arch/arm/cpu/armv7/start.o
 .rel.text.set_default_vars
                0x000000008087eba8       0x10 arch/arm/cpu/armv7/start.o
 .rel.text.env_import
                0x000000008087ebb8       0x38 arch/arm/cpu/armv7/start.o
 .rel.text.env_export
                0x000000008087ebf0       0x28 arch/arm/cpu/armv7/start.o
 .rel.text.env_relocate
                0x000000008087ec18        0x8 arch/arm/cpu/armv7/start.o
 .rel.text.env_complete
                0x000000008087ec20       0x18 arch/arm/cpu/armv7/start.o
 .rel.text.env_driver_lookup_default
                0x000000008087ec38       0x20 arch/arm/cpu/armv7/start.o
 .rel.text.env_get_char
                0x000000008087ec58       0x18 arch/arm/cpu/armv7/start.o
 .rel.text.env_load
                0x000000008087ec70       0x10 arch/arm/cpu/armv7/start.o
 .rel.text.env_save
                0x000000008087ec80       0x10 arch/arm/cpu/armv7/start.o
 .rel.text.env_init
                0x000000008087ec90       0x18 arch/arm/cpu/armv7/start.o
 .rel.text.regex_callback
                0x000000008087eca8       0x10 arch/arm/cpu/armv7/start.o
 .rel.text.env_attr_lookup
                0x000000008087ecb8        0x8 arch/arm/cpu/armv7/start.o
 .rel.text.find_env_callback
                0x000000008087ecc0       0x10 arch/arm/cpu/armv7/start.o
 .rel.text.on_callbacks
                0x000000008087ecd0       0x20 arch/arm/cpu/armv7/start.o
 .rel.text.set_callback
                0x000000008087ecf0        0x8 arch/arm/cpu/armv7/start.o
 .rel.text.env_callback_init
                0x000000008087ecf8       0x20 arch/arm/cpu/armv7/start.o
 .rel.text.skip_num
                0x000000008087ed18        0x8 arch/arm/cpu/armv7/start.o
 .rel.text.on_flags
                0x000000008087ed20       0x20 arch/arm/cpu/armv7/start.o
 .rel.text.env_flags_parse_vartype
                0x000000008087ed40       0x10 arch/arm/cpu/armv7/start.o
 .rel.text.env_flags_parse_varaccess
                0x000000008087ed50       0x10 arch/arm/cpu/armv7/start.o
 .rel.text.set_flags
                0x000000008087ed60       0x10 arch/arm/cpu/armv7/start.o
 .rel.text.env_flags_parse_varaccess_from_binflags
                0x000000008087ed70        0x0 arch/arm/cpu/armv7/start.o
 .rel.text.env_flags_init
                0x000000008087ed70       0x30 arch/arm/cpu/armv7/start.o
 .rel.text.env_flags_validate
                0x000000008087eda0       0x38 arch/arm/cpu/armv7/start.o
 .rel.text.env_fat_save
                0x000000008087edd8       0x30 arch/arm/cpu/armv7/start.o
 .rel.text.env_fat_load
                0x000000008087ee08       0x28 arch/arm/cpu/armv7/start.o
 .rel.data.env_htab
                0x000000008087ee30        0x8 arch/arm/cpu/armv7/start.o
 .rel.u_boot_list_2_env_clbk_2_callbacks
                0x000000008087ee38       0x10 arch/arm/cpu/armv7/start.o
 .rel.u_boot_list_2_env_clbk_2_flags
                0x000000008087ee48       0x10 arch/arm/cpu/armv7/start.o
 .rel.u_boot_list_2_env_driver_2_fat
                0x000000008087ee58       0x18 arch/arm/cpu/armv7/start.o
 .rel.text.fs_probe_unsupported
                0x000000008087ee70        0x8 arch/arm/cpu/armv7/start.o
 .rel.text.fs_get_info
                0x000000008087ee78        0x8 arch/arm/cpu/armv7/start.o
 .rel.text.fs_close
                0x000000008087ee80        0x8 arch/arm/cpu/armv7/start.o
 .rel.text.fs_set_blk_dev
                0x000000008087ee88       0x20 arch/arm/cpu/armv7/start.o
 .rel.text.fs_uuid
                0x000000008087eea8        0x0 arch/arm/cpu/armv7/start.o
 .rel.text.fs_ls
                0x000000008087eea8        0x8 arch/arm/cpu/armv7/start.o
 .rel.text.fs_exists
                0x000000008087eeb0        0x8 arch/arm/cpu/armv7/start.o
 .rel.text.fs_size
                0x000000008087eeb8        0x8 arch/arm/cpu/armv7/start.o
 .rel.text.fs_read
                0x000000008087eec0       0x10 arch/arm/cpu/armv7/start.o
 .rel.text.fs_write
                0x000000008087eed0       0x10 arch/arm/cpu/armv7/start.o
 .rel.text.do_size
                0x000000008087eee0        0x8 arch/arm/cpu/armv7/start.o
 .rel.text.do_load
                0x000000008087eee8       0x50 arch/arm/cpu/armv7/start.o
 .rel.text.do_ls
                0x000000008087ef38        0x8 arch/arm/cpu/armv7/start.o
 .rel.text.do_save
                0x000000008087ef40       0x28 arch/arm/cpu/armv7/start.o
 .rel.text.do_fs_uuid
                0x000000008087ef68        0x0 arch/arm/cpu/armv7/start.o
 .rel.text.do_fs_type
                0x000000008087ef68       0x10 arch/arm/cpu/armv7/start.o
 .rel.text.get_fs
                0x000000008087ef78        0x8 arch/arm/cpu/armv7/start.o
 .rel.text.ext4fs_free_node
                0x000000008087ef80        0x8 arch/arm/cpu/armv7/start.o
 .rel.text.ext4fs_read_file
                0x000000008087ef88        0x8 arch/arm/cpu/armv7/start.o
 .rel.text.ext4fs_ls
                0x000000008087ef90       0x10 arch/arm/cpu/armv7/start.o
 .rel.text.ext4fs_read
                0x000000008087efa0       0x10 arch/arm/cpu/armv7/start.o
 .rel.text.ext4_read_file
                0x000000008087efb0        0x8 arch/arm/cpu/armv7/start.o
 .rel.text.ext4fs_uuid
                0x000000008087efb8        0x8 arch/arm/cpu/armv7/start.o
 .rel.text.put_ext4
                0x000000008087efc0       0x20 arch/arm/cpu/armv7/start.o
 .rel.text.ext4fs_set_block_bmap
                0x000000008087efe0        0x8 arch/arm/cpu/armv7/start.o
 .rel.text.ext4fs_reset_block_bmap
                0x000000008087efe8        0x8 arch/arm/cpu/armv7/start.o
 .rel.text.ext4fs_set_inode_bmap
                0x000000008087eff0        0x8 arch/arm/cpu/armv7/start.o
 .rel.text.ext4fs_reset_inode_bmap
                0x000000008087eff8        0x8 arch/arm/cpu/armv7/start.o
 .rel.text.ext4fs_checksum_update
                0x000000008087f000       0x18 arch/arm/cpu/armv7/start.o
 .rel.text.ext4fs_get_new_blk_no
                0x000000008087f018       0x28 arch/arm/cpu/armv7/start.o
 .rel.text.ext4fs_get_new_inode_no
                0x000000008087f040       0x20 arch/arm/cpu/armv7/start.o
 .rel.text.ext4fs_allocate_blocks
                0x000000008087f060       0x88 arch/arm/cpu/armv7/start.o
 .rel.text.ext4fs_read_inode
                0x000000008087f0e8        0x8 arch/arm/cpu/armv7/start.o
 .rel.text.ext4fs_iget
                0x000000008087f0f0        0x8 arch/arm/cpu/armv7/start.o
 .rel.text.read_allocated_block
                0x000000008087f0f8       0xe0 arch/arm/cpu/armv7/start.o
 .rel.text.ext4fs_update_parent_dentry
                0x000000008087f1d8       0x48 arch/arm/cpu/armv7/start.o
 .rel.text.search_dir
                0x000000008087f220        0x8 arch/arm/cpu/armv7/start.o
 .rel.text.ext4fs_get_parent_inode_num
                0x000000008087f228       0x28 arch/arm/cpu/armv7/start.o
 .rel.text.ext4fs_filename_unlink
                0x000000008087f250       0x18 arch/arm/cpu/armv7/start.o
 .rel.text.ext4fs_reinit_global
                0x000000008087f268       0x48 arch/arm/cpu/armv7/start.o
 .rel.text.ext4fs_close
                0x000000008087f2b0       0x10 arch/arm/cpu/armv7/start.o
 .rel.text.ext4fs_iterate_dir
                0x000000008087f2c0       0x40 arch/arm/cpu/armv7/start.o
 .rel.text.ext4fs_find_file1
                0x000000008087f300       0x18 arch/arm/cpu/armv7/start.o
 .rel.text.ext4fs_find_file
                0x000000008087f318        0x8 arch/arm/cpu/armv7/start.o
 .rel.text.ext4fs_open
                0x000000008087f320       0x10 arch/arm/cpu/armv7/start.o
 .rel.text.ext4fs_mount
                0x000000008087f330       0x20 arch/arm/cpu/armv7/start.o
 .rel.text.ext4fs_set_blk_dev
                0x000000008087f350       0x30 arch/arm/cpu/armv7/start.o
 .rel.text.ext4fs_devread
                0x000000008087f380       0x48 arch/arm/cpu/armv7/start.o
 .rel.text.ext4fs_update
                0x000000008087f3c8       0x10 arch/arm/cpu/armv7/start.o
 .rel.text.ext4fs_get_bgdtable
                0x000000008087f3d8        0x8 arch/arm/cpu/armv7/start.o
 .rel.text.ext4fs_deinit
                0x000000008087f3e0        0x8 arch/arm/cpu/armv7/start.o
 .rel.text.ext4fs_init
                0x000000008087f3e8       0x10 arch/arm/cpu/armv7/start.o
 .rel.text.ext4fs_write
                0x000000008087f3f8       0xd0 arch/arm/cpu/armv7/start.o
 .rel.text.ext4_write_file
                0x000000008087f4c8       0x10 arch/arm/cpu/armv7/start.o
 .rel.text.ext4fs_dump_metadata
                0x000000008087f4d8        0x8 arch/arm/cpu/armv7/start.o
 .rel.text.ext4fs_free_journal
                0x000000008087f4e0       0x28 arch/arm/cpu/armv7/start.o
 .rel.text.ext4fs_log_gdt
                0x000000008087f508       0x10 arch/arm/cpu/armv7/start.o
 .rel.text.ext4fs_log_journal
                0x000000008087f518       0x20 arch/arm/cpu/armv7/start.o
 .rel.text.ext4fs_put_metadata
                0x000000008087f538       0x30 arch/arm/cpu/armv7/start.o
 .rel.text.print_revoke_blks
                0x000000008087f568        0x0 arch/arm/cpu/armv7/start.o
 .rel.text.ext4fs_push_revoke_blk
                0x000000008087f568       0x28 arch/arm/cpu/armv7/start.o
 .rel.text.ext4fs_free_revoke_blks
                0x000000008087f590       0x18 arch/arm/cpu/armv7/start.o
 .rel.text.check_blknr_for_revoke
                0x000000008087f5a8        0x8 arch/arm/cpu/armv7/start.o
 .rel.text.recover_transaction
                0x000000008087f5b0       0x18 arch/arm/cpu/armv7/start.o
 .rel.text.print_jrnl_status
                0x000000008087f5c8       0x10 arch/arm/cpu/armv7/start.o
 .rel.text.ext4fs_check_journal_state
                0x000000008087f5d8       0x28 arch/arm/cpu/armv7/start.o
 .rel.text.ext4fs_init_journal
                0x000000008087f600       0x38 arch/arm/cpu/armv7/start.o
 .rel.text.ext4fs_update_journal
                0x000000008087f638       0x28 arch/arm/cpu/armv7/start.o
 .rel.text.ext2fs_crc16
                0x000000008087f660        0x8 arch/arm/cpu/armv7/start.o
 .rel.text.downcase
                0x000000008087f668        0x8 arch/arm/cpu/armv7/start.o
 .rel.text.disk_read
                0x000000008087f670       0x10 arch/arm/cpu/armv7/start.o
 .rel.text.disk_write
                0x000000008087f680       0x20 arch/arm/cpu/armv7/start.o
 .rel.text.flush_dirty_fat_buffer
                0x000000008087f6a0       0x20 arch/arm/cpu/armv7/start.o
 .rel.text.get_fatent
                0x000000008087f6c0       0x20 arch/arm/cpu/armv7/start.o
 .rel.text.set_fatent_value
                0x000000008087f6e0        0x8 arch/arm/cpu/armv7/start.o
 .rel.text.get_cluster
                0x000000008087f6e8       0x18 arch/arm/cpu/armv7/start.o
 .rel.text.set_cluster
                0x000000008087f700       0x18 arch/arm/cpu/armv7/start.o
 .rel.text.read_bootsectandvi
                0x000000008087f718       0x40 arch/arm/cpu/armv7/start.o
 .rel.text.set_name
                0x000000008087f758       0x18 arch/arm/cpu/armv7/start.o
 .rel.text.check_overflow
                0x000000008087f770        0x8 arch/arm/cpu/armv7/start.o
 .rel.text.get_vfatname
                0x000000008087f778       0x28 arch/arm/cpu/armv7/start.o
 .rel.text.flush_dir_table.constprop.11
                0x000000008087f7a0       0x20 arch/arm/cpu/armv7/start.o
 .rel.text.do_fat_write
                0x000000008087f7c0      0x188 arch/arm/cpu/armv7/start.o
 .rel.text.fat_set_blk_dev
                0x000000008087f948       0x28 arch/arm/cpu/armv7/start.o
 .rel.text.fat_register_device
                0x000000008087f970        0x0 arch/arm/cpu/armv7/start.o
 .rel.text.do_fat_read_at
                0x000000008087f970      0x178 arch/arm/cpu/armv7/start.o
 .rel.text.file_fat_detectfs
                0x000000008087fae8       0x70 arch/arm/cpu/armv7/start.o
 .rel.text.file_fat_read_at
                0x000000008087fb58        0x8 arch/arm/cpu/armv7/start.o
 .rel.text.fat_read_file
                0x000000008087fb60        0x8 arch/arm/cpu/armv7/start.o
 .rel.text.file_fat_write
                0x000000008087fb68       0x10 arch/arm/cpu/armv7/start.o
 .rel.text.file_getfsname
                0x000000008087fb78        0x0 arch/arm/cpu/armv7/start.o
 .rel.text.file_cd
                0x000000008087fb78        0x0 arch/arm/cpu/armv7/start.o
 .rel.text.file_detectfs
                0x000000008087fb78        0x0 arch/arm/cpu/armv7/start.o
 .rel.text.file_ls
                0x000000008087fb78        0x0 arch/arm/cpu/armv7/start.o
 .rel.text.file_read
                0x000000008087fb78        0x0 arch/arm/cpu/armv7/start.o
 .rel.rodata.filesystems
                0x000000008087fb78        0x0 arch/arm/cpu/armv7/start.o
 .rel.data.fstypes
                0x000000008087fb78       0xd8 arch/arm/cpu/armv7/start.o
 .rel.text.efi_load_pe
                0x000000008087fc50       0x88 arch/arm/cpu/armv7/start.o
 .rel.text.efi_install_protocol_interface.part.1
                0x000000008087fcd8        0x8 arch/arm/cpu/armv7/start.o
 .rel.text.efi_uninstall_protocol_interface.isra.2.part.3
                0x000000008087fce0        0x8 arch/arm/cpu/armv7/start.o
 .rel.text.efi_locate_handle.isra.6
                0x000000008087fce8        0x8 arch/arm/cpu/armv7/start.o
 .rel.text.__efi_entry_check
                0x000000008087fcf0       0x30 arch/arm/cpu/armv7/start.o
 .rel.text.__efi_exit_check
                0x000000008087fd20       0x10 arch/arm/cpu/armv7/start.o
 .rel.text.efi_save_gd
                0x000000008087fd30        0x8 arch/arm/cpu/armv7/start.o
 .rel.text.efi_restore_gd
                0x000000008087fd38        0x8 arch/arm/cpu/armv7/start.o
 .rel.text.__efi_nesting_inc
                0x000000008087fd40       0x10 arch/arm/cpu/armv7/start.o
 .rel.text.efi_set_mem
                0x000000008087fd50       0x20 arch/arm/cpu/armv7/start.o
 .rel.text.efi_copy_mem
                0x000000008087fd70       0x20 arch/arm/cpu/armv7/start.o
 .rel.text.efi_exit
                0x000000008087fd90       0x20 arch/arm/cpu/armv7/start.o
 .rel.text.__efi_nesting_dec
                0x000000008087fdb0       0x10 arch/arm/cpu/armv7/start.o
 .rel.text.efi_calculate_crc32
                0x000000008087fdc0       0x30 arch/arm/cpu/armv7/start.o
 .rel.text.efi_uninstall_multiple_protocol_interfaces
                0x000000008087fdf0       0x30 arch/arm/cpu/armv7/start.o
 .rel.text.efi_install_multiple_protocol_interfaces
                0x000000008087fe20       0x30 arch/arm/cpu/armv7/start.o
 .rel.text.efi_locate_protocol
                0x000000008087fe50       0x38 arch/arm/cpu/armv7/start.o
 .rel.text.efi_locate_handle_buffer
                0x000000008087fe88       0x30 arch/arm/cpu/armv7/start.o
 .rel.text.efi_protocols_per_handle
                0x000000008087feb8       0x38 arch/arm/cpu/armv7/start.o
 .rel.text.efi_open_protocol_information
                0x000000008087fef0       0x30 arch/arm/cpu/armv7/start.o
 .rel.text.efi_close_protocol
                0x000000008087ff20       0x30 arch/arm/cpu/armv7/start.o
 .rel.text.efi_open_protocol
                0x000000008087ff50       0x38 arch/arm/cpu/armv7/start.o
 .rel.text.efi_disconnect_controller
                0x000000008087ff88       0x30 arch/arm/cpu/armv7/start.o
 .rel.text.efi_connect_controller
                0x000000008087ffb8       0x30 arch/arm/cpu/armv7/start.o
 .rel.text.efi_unsupported
                0x000000008087ffe8       0x28 arch/arm/cpu/armv7/start.o
 .rel.text.efi_set_watchdog_timer
                0x0000000080880010       0x20 arch/arm/cpu/armv7/start.o
 .rel.text.efi_restore_tpl
                0x0000000080880030       0x20 arch/arm/cpu/armv7/start.o
 .rel.text.efi_stall
                0x0000000080880050       0x30 arch/arm/cpu/armv7/start.o
 .rel.text.efi_get_next_monotonic_count
                0x0000000080880080       0x38 arch/arm/cpu/armv7/start.o
 .rel.text.efi_exit_boot_services
                0x00000000808800b8       0x38 arch/arm/cpu/armv7/start.o
 .rel.text.efi_unload_image
                0x00000000808800f0       0x38 arch/arm/cpu/armv7/start.o
 .rel.text.efi_start_image
                0x0000000080880128       0x40 arch/arm/cpu/armv7/start.o
 .rel.text.efi_load_image
                0x0000000080880168       0x40 arch/arm/cpu/armv7/start.o
 .rel.text.efi_locate_device_path
                0x00000000808801a8       0x30 arch/arm/cpu/armv7/start.o
 .rel.text.efi_locate_handle_ext
                0x00000000808801d8       0x30 arch/arm/cpu/armv7/start.o
 .rel.text.efi_register_protocol_notify
                0x0000000080880208       0x30 arch/arm/cpu/armv7/start.o
 .rel.text.efi_uninstall_protocol_interface_ext
                0x0000000080880238       0x30 arch/arm/cpu/armv7/start.o
 .rel.text.efi_reinstall_protocol_interface
                0x0000000080880268       0x30 arch/arm/cpu/armv7/start.o
 .rel.text.efi_install_protocol_interface_ext
                0x0000000080880298       0x30 arch/arm/cpu/armv7/start.o
 .rel.text.efi_close_event
                0x00000000808802c8       0x38 arch/arm/cpu/armv7/start.o
 .rel.text.efi_free_pool_ext
                0x0000000080880300       0x30 arch/arm/cpu/armv7/start.o
 .rel.text.efi_allocate_pool_ext
                0x0000000080880330       0x30 arch/arm/cpu/armv7/start.o
 .rel.text.efi_get_memory_map_ext
                0x0000000080880360       0x30 arch/arm/cpu/armv7/start.o
 .rel.text.efi_free_pages_ext
                0x0000000080880390       0x30 arch/arm/cpu/armv7/start.o
 .rel.text.efi_allocate_pages_ext
                0x00000000808803c0       0x30 arch/arm/cpu/armv7/start.o
 .rel.text.efi_raise_tpl
                0x00000000808803f0       0x30 arch/arm/cpu/armv7/start.o
 .rel.text.efi_signal_event
                0x0000000080880420       0x38 arch/arm/cpu/armv7/start.o
 .rel.text.efi_signal_event_ext
                0x0000000080880458       0x38 arch/arm/cpu/armv7/start.o
 .rel.text.efi_create_event
                0x0000000080880490        0x8 arch/arm/cpu/armv7/start.o
 .rel.text.efi_create_event_ext
                0x0000000080880498       0x30 arch/arm/cpu/armv7/start.o
 .rel.text.efi_timer_check
                0x00000000808804c8        0x8 arch/arm/cpu/armv7/start.o
 .rel.text.efi_check_event
                0x00000000808804d0       0x38 arch/arm/cpu/armv7/start.o
 .rel.text.efi_wait_for_event
                0x0000000080880508       0x38 arch/arm/cpu/armv7/start.o
 .rel.text.efi_set_timer
                0x0000000080880540        0x8 arch/arm/cpu/armv7/start.o
 .rel.text.efi_set_timer_ext
                0x0000000080880548       0x30 arch/arm/cpu/armv7/start.o
 .rel.text.efi_install_configuration_table
                0x0000000080880578        0x8 arch/arm/cpu/armv7/start.o
 .rel.text.efi_install_configuration_table_ext
                0x0000000080880580       0x30 arch/arm/cpu/armv7/start.o
 .rel.text.efi_reset_system_boottime
                0x00000000808805b0       0x20 arch/arm/cpu/armv7/start.o
 .rel.text.efi_runtime_relocate
                0x00000000808805d0       0x40 arch/arm/cpu/armv7/start.o
 .rel.text.efi_set_virtual_address_map
                0x0000000080880610       0x58 arch/arm/cpu/armv7/start.o
 .rel.text.efi_add_runtime_mmio
                0x0000000080880668        0x0 arch/arm/cpu/armv7/start.o
 .rel.text.efi_cin_get_mode
                0x0000000080880668       0x30 arch/arm/cpu/armv7/start.o
 .rel.text.efi_cout_set_mode
                0x0000000080880698       0x38 arch/arm/cpu/armv7/start.o
 .rel.text.efi_cout_output_string
                0x00000000808806d0       0x40 arch/arm/cpu/armv7/start.o
 .rel.text.efi_cin_read_key_stroke
                0x0000000080880710       0x30 arch/arm/cpu/armv7/start.o
 .rel.text.efi_cin_lock_std_in
                0x0000000080880740       0x30 arch/arm/cpu/armv7/start.o
 .rel.text.efi_cin_set_mode
                0x0000000080880770       0x30 arch/arm/cpu/armv7/start.o
 .rel.text.efi_cout_enable_cursor
                0x00000000808807a0       0x38 arch/arm/cpu/armv7/start.o
 .rel.text.efi_cout_set_cursor_position
                0x00000000808807d8       0x40 arch/arm/cpu/armv7/start.o
 .rel.text.efi_cout_clear_screen
                0x0000000080880818       0x38 arch/arm/cpu/armv7/start.o
 .rel.text.efi_cout_set_attribute
                0x0000000080880850       0x30 arch/arm/cpu/armv7/start.o
 .rel.text.efi_cout_test_string
                0x0000000080880880       0x30 arch/arm/cpu/armv7/start.o
 .rel.text.efi_cout_reset
                0x00000000808808b0       0x30 arch/arm/cpu/armv7/start.o
 .rel.text.efi_cin_reset
                0x00000000808808e0       0x30 arch/arm/cpu/armv7/start.o
 .rel.text.efi_console_timer_notify
                0x0000000080880910       0x38 arch/arm/cpu/armv7/start.o
 .rel.text.efi_cout_query_mode
                0x0000000080880948       0x50 arch/arm/cpu/armv7/start.o
 .rel.text.efi_console_register
                0x0000000080880998       0x58 arch/arm/cpu/armv7/start.o
 .rel.text.efi_find_free_memory
                0x00000000808809f0        0x8 arch/arm/cpu/armv7/start.o
 .rel.text.efi_add_memory_map
                0x00000000808809f8       0x30 arch/arm/cpu/armv7/start.o
 .rel.text.efi_free_pool
                0x0000000080880a28       0x18 arch/arm/cpu/armv7/start.o
 .rel.text.efi_get_memory_map
                0x0000000080880a40        0x8 arch/arm/cpu/armv7/start.o
 .rel.text.efi_memory_init
                0x0000000080880a48       0x10 arch/arm/cpu/armv7/start.o
 .rel.text.efi_convert_device_node_to_text.isra.0
                0x0000000080880a58       0x10 arch/arm/cpu/armv7/start.o
 .rel.text.efi_convert_device_path_to_text
                0x0000000080880a68       0x30 arch/arm/cpu/armv7/start.o
 .rel.text.efi_convert_device_node_to_text_ext
                0x0000000080880a98       0x30 arch/arm/cpu/armv7/start.o
 .rel.text.efi_disk_add_dev.part.3
                0x0000000080880ac8       0x38 arch/arm/cpu/armv7/start.o
 .rel.text.efi_disk_flush_blocks
                0x0000000080880b00       0x30 arch/arm/cpu/armv7/start.o
 .rel.text.efi_disk_reset
                0x0000000080880b30       0x30 arch/arm/cpu/armv7/start.o
 .rel.text.efi_disk_rw_blocks.isra.6
                0x0000000080880b60       0x18 arch/arm/cpu/armv7/start.o
 .rel.text.efi_disk_write_blocks
                0x0000000080880b78       0x30 arch/arm/cpu/armv7/start.o
 .rel.text.efi_disk_read_blocks
                0x0000000080880ba8       0x30 arch/arm/cpu/armv7/start.o
 .rel.text.efi_disk_register
                0x0000000080880bd8       0x20 arch/arm/cpu/armv7/start.o
 .rel.text.efi_net_push
                0x0000000080880bf8        0x8 arch/arm/cpu/armv7/start.o
 .rel.text.efi_net_receive
                0x0000000080880c00       0x58 arch/arm/cpu/armv7/start.o
 .rel.text.efi_net_get_status
                0x0000000080880c58       0x38 arch/arm/cpu/armv7/start.o
 .rel.text.efi_net_transmit
                0x0000000080880c90       0x38 arch/arm/cpu/armv7/start.o
 .rel.text.efi_net_nvdata
                0x0000000080880cc8       0x30 arch/arm/cpu/armv7/start.o
 .rel.text.efi_net_mcastiptomac
                0x0000000080880cf8       0x30 arch/arm/cpu/armv7/start.o
 .rel.text.efi_net_statistics
                0x0000000080880d28       0x30 arch/arm/cpu/armv7/start.o
 .rel.text.efi_net_station_address
                0x0000000080880d58       0x30 arch/arm/cpu/armv7/start.o
 .rel.text.efi_net_receive_filters
                0x0000000080880d88       0x30 arch/arm/cpu/armv7/start.o
 .rel.text.efi_net_shutdown
                0x0000000080880db8       0x30 arch/arm/cpu/armv7/start.o
 .rel.text.efi_net_reset
                0x0000000080880de8       0x30 arch/arm/cpu/armv7/start.o
 .rel.text.efi_net_stop
                0x0000000080880e18       0x30 arch/arm/cpu/armv7/start.o
 .rel.text.efi_net_start
                0x0000000080880e48       0x30 arch/arm/cpu/armv7/start.o
 .rel.text.efi_net_initialize
                0x0000000080880e78       0x30 arch/arm/cpu/armv7/start.o
 .rel.text.efi_net_set_dhcp_ack
                0x0000000080880ea8        0x8 arch/arm/cpu/armv7/start.o
 .rel.text.efi_net_register
                0x0000000080880eb0       0x90 arch/arm/cpu/armv7/start.o
 .rel.text.efi_smbios_register
                0x0000000080880f40        0x8 arch/arm/cpu/armv7/start.o
 .rel.text.lzop_decompress
                0x0000000080880f48        0x8 arch/arm/cpu/armv7/start.o
 .rel.text.inflate_fast
                0x0000000080880f50       0x48 arch/arm/cpu/armv7/start.o
 .rel.text.inflate_table
                0x0000000080880f98       0x20 arch/arm/cpu/armv7/start.o
 .rel.text.inflateReset
                0x0000000080880fb8       0x10 arch/arm/cpu/armv7/start.o
 .rel.text.inflateInit2_
                0x0000000080880fc8       0x20 arch/arm/cpu/armv7/start.o
 .rel.text.inflateEnd
                0x0000000080880fe8       0x10 arch/arm/cpu/armv7/start.o
 .rel.text.z_error
                0x0000000080880ff8        0x0 arch/arm/cpu/armv7/start.o
 .rel.text.inflate
                0x0000000080880ff8      0x150 arch/arm/cpu/armv7/start.o
 .rel.text.fdt_get_phandle
                0x0000000080881148       0x10 arch/arm/cpu/armv7/start.o
 .rel.text.fdt_get_alias_namelen
                0x0000000080881158        0x8 arch/arm/cpu/armv7/start.o
 .rel.text.fdt_node_check_compatible
                0x0000000080881160        0x8 arch/arm/cpu/armv7/start.o
 .rel.text.fdt_strerror
                0x0000000080881168       0x20 arch/arm/cpu/armv7/start.o
 .rel.text.fdt_create_empty_tree
                0x0000000080881188        0x0 arch/arm/cpu/armv7/start.o
 .rel.text.fdt_address_cells
                0x0000000080881188        0x8 arch/arm/cpu/armv7/start.o
 .rel.text.fdt_size_cells
                0x0000000080881190        0x8 arch/arm/cpu/armv7/start.o
 .rel.text.fdt_add_alias_regions
                0x0000000080881198        0x0 arch/arm/cpu/armv7/start.o
 .rel.text.fdt_next_region
                0x0000000080881198        0x0 arch/arm/cpu/armv7/start.o
 .rel.text.overlay_adjust_node_phandles
                0x0000000080881198       0x10 arch/arm/cpu/armv7/start.o
 .rel.text.fdt_overlay_apply
                0x00000000808811a8       0x30 arch/arm/cpu/armv7/start.o
 .rel.text.crc7
                0x00000000808811d8        0x0 arch/arm/cpu/armv7/start.o
 .rel.text.crc16_ccitt
                0x00000000808811d8        0x8 arch/arm/cpu/armv7/start.o
 .rel.text.fdtdec_get_int
                0x00000000808811e0       0x20 arch/arm/cpu/armv7/start.o
 .rel.text.fdtdec_get_uint
                0x0000000080881200        0x0 arch/arm/cpu/armv7/start.o
 .rel.text.zunzip
                0x0000000080881200       0x28 arch/arm/cpu/armv7/start.o
 .rel.text.gunzip
                0x0000000080881228       0x10 arch/arm/cpu/armv7/start.o
 .rel.text.smbios_write_type3
                0x0000000080881238        0x8 arch/arm/cpu/armv7/start.o
 .rel.text.smbios_write_type2
                0x0000000080881240       0x10 arch/arm/cpu/armv7/start.o
 .rel.text.smbios_write_type0
                0x0000000080881250       0x18 arch/arm/cpu/armv7/start.o
 .rel.text.smbios_write_type1
                0x0000000080881268       0x18 arch/arm/cpu/armv7/start.o
 .rel.text.smbios_write_type4
                0x0000000080881280        0x8 arch/arm/cpu/armv7/start.o
 .rel.text.write_smbios_table
                0x0000000080881288       0x18 arch/arm/cpu/armv7/start.o
 .rel.text.initcall_run_list
                0x00000000808812a0       0x20 arch/arm/cpu/armv7/start.o
 .rel.text.lmb_dump_all
                0x00000000808812c0        0x0 arch/arm/cpu/armv7/start.o
 .rel.text.lmb_alloc_base
                0x00000000808812c0        0x8 arch/arm/cpu/armv7/start.o
 .rel.text.qsort
                0x00000000808812c8       0x18 arch/arm/cpu/armv7/start.o
 .rel.text.list_sort
                0x00000000808812e0        0x8 arch/arm/cpu/armv7/start.o
 .rel.text.rsa_mod_exp_sw
                0x00000000808812e8       0x40 arch/arm/cpu/armv7/start.o
 .rel.text.sha1_finish
                0x0000000080881328        0x8 arch/arm/cpu/armv7/start.o
 .rel.text.sha256_finish
                0x0000000080881330        0x8 arch/arm/cpu/armv7/start.o
 .rel.text.get_prop_check_min_len
                0x0000000080881338       0x10 arch/arm/cpu/armv7/start.o
 .rel.text.fdtdec_get_compatible
                0x0000000080881348        0x0 arch/arm/cpu/armv7/start.o
 .rel.text.fdtdec_get_is_enabled
                0x0000000080881348       0x10 arch/arm/cpu/armv7/start.o
 .rel.text.fdtdec_lookup
                0x0000000080881358        0x0 arch/arm/cpu/armv7/start.o
 .rel.text.fdtdec_next_compatible
                0x0000000080881358        0x0 arch/arm/cpu/armv7/start.o
 .rel.text.fdtdec_next_compatible_subnode
                0x0000000080881358        0x0 arch/arm/cpu/armv7/start.o
 .rel.text.fdtdec_next_alias
                0x0000000080881358        0x0 arch/arm/cpu/armv7/start.o
 .rel.text.fdtdec_add_aliases_for_id
                0x0000000080881358        0x0 arch/arm/cpu/armv7/start.o
 .rel.text.fdtdec_get_alias_seq
                0x0000000080881358       0x28 arch/arm/cpu/armv7/start.o
 .rel.text.fdtdec_get_chosen_prop
                0x0000000080881380        0x8 arch/arm/cpu/armv7/start.o
 .rel.text.fdtdec_prepare_fdt
                0x0000000080881388       0x10 arch/arm/cpu/armv7/start.o
 .rel.text.fdtdec_check_fdt
                0x0000000080881398        0x0 arch/arm/cpu/armv7/start.o
 .rel.text.fdtdec_lookup_phandle
                0x0000000080881398       0x10 arch/arm/cpu/armv7/start.o
 .rel.text.fdtdec_get_int_array
                0x00000000808813a8       0x10 arch/arm/cpu/armv7/start.o
 .rel.text.fdtdec_get_int_array_count
                0x00000000808813b8        0x0 arch/arm/cpu/armv7/start.o
 .rel.text.fdtdec_get_bool
                0x00000000808813b8       0x10 arch/arm/cpu/armv7/start.o
 .rel.text.fdtdec_parse_phandle_with_args
                0x00000000808813c8       0x20 arch/arm/cpu/armv7/start.o
 .rel.text.fdtdec_get_config_int
                0x00000000808813e8       0x18 arch/arm/cpu/armv7/start.o
 .rel.text.fdtdec_get_config_bool
                0x0000000080881400        0x0 arch/arm/cpu/armv7/start.o
 .rel.text.fdtdec_get_config_string
                0x0000000080881400       0x18 arch/arm/cpu/armv7/start.o
 .rel.text.fdtdec_decode_region
                0x0000000080881418        0x0 arch/arm/cpu/armv7/start.o
 .rel.text.fdtdec_get_addr_size_fixed
                0x0000000080881418       0x40 arch/arm/cpu/armv7/start.o
 .rel.text.fdtdec_get_addr_size_auto_parent
                0x0000000080881458       0x28 arch/arm/cpu/armv7/start.o
 .rel.text.fdtdec_get_addr_size_auto_noparent
                0x0000000080881480       0x18 arch/arm/cpu/armv7/start.o
 .rel.text.fdtdec_decode_memory_region
                0x0000000080881498        0x0 arch/arm/cpu/armv7/start.o
 .rel.text.fdtdec_decode_display_timing
                0x0000000080881498        0x0 arch/arm/cpu/armv7/start.o
 .rel.text.fdtdec_setup_memory_size
                0x0000000080881498        0x0 arch/arm/cpu/armv7/start.o
 .rel.text.fdtdec_setup_memory_banksize
                0x0000000080881498        0x0 arch/arm/cpu/armv7/start.o
 .rel.text.fdtdec_setup
                0x0000000080881498       0x10 arch/arm/cpu/armv7/start.o
 .rel.text._hdelete
                0x00000000808814a8        0x8 arch/arm/cpu/armv7/start.o
 .rel.text.drop_var_from_set.part.1
                0x00000000808814b0        0x8 arch/arm/cpu/armv7/start.o
 .rel.text.match_string
                0x00000000808814b8        0x8 arch/arm/cpu/armv7/start.o
 .rel.text.match_entry
                0x00000000808814c0        0x8 arch/arm/cpu/armv7/start.o
 .rel.text.hcreate_r
                0x00000000808814c8        0x8 arch/arm/cpu/armv7/start.o
 .rel.text.hdestroy_r
                0x00000000808814d0        0x8 arch/arm/cpu/armv7/start.o
 .rel.text.hmatch_r
                0x00000000808814d8        0x8 arch/arm/cpu/armv7/start.o
 .rel.text.hsearch_r
                0x00000000808814e0       0x18 arch/arm/cpu/armv7/start.o
 .rel.text.hdelete_r
                0x00000000808814f8       0x20 arch/arm/cpu/armv7/start.o
 .rel.text.hexport_r
                0x0000000080881518       0x30 arch/arm/cpu/armv7/start.o
 .rel.text.himport_r
                0x0000000080881548       0x68 arch/arm/cpu/armv7/start.o
 .rel.text.display_options_get_banner_priv
                0x00000000808815b0       0x28 arch/arm/cpu/armv7/start.o
 .rel.text.display_options
                0x00000000808815d8        0x8 arch/arm/cpu/armv7/start.o
 .rel.text.print_freq
                0x00000000808815e0        0x0 arch/arm/cpu/armv7/start.o
 .rel.text.print_size
                0x00000000808815e0       0x28 arch/arm/cpu/armv7/start.o
 .rel.text.print_buffer
                0x0000000080881608       0x28 arch/arm/cpu/armv7/start.o
 .rel.text.crc32_no_comp
                0x0000000080881630        0x8 arch/arm/cpu/armv7/start.o
 .rel.text.hang
                0x0000000080881638        0x8 arch/arm/cpu/armv7/start.o
 .rel.text.skip_spaces
                0x0000000080881640        0x8 arch/arm/cpu/armv7/start.o
 .rel.text.strim
                0x0000000080881648        0x8 arch/arm/cpu/armv7/start.o
 .rel.text.membuff_getraw
                0x0000000080881650        0x0 arch/arm/cpu/armv7/start.o
 .rel.text.membuff_makecontig
                0x0000000080881650        0x0 arch/arm/cpu/armv7/start.o
 .rel.text.membuff_extend_by
                0x0000000080881650        0x0 arch/arm/cpu/armv7/start.o
 .rel.text.emit
                0x0000000080881650        0x8 arch/arm/cpu/armv7/start.o
 .rel.text.store_char_in_data
                0x0000000080881658        0x8 arch/arm/cpu/armv7/start.o
 .rel.text.set_jump_offset
                0x0000000080881660       0x20 arch/arm/cpu/armv7/start.o
 .rel.text.match
                0x0000000080881680       0x38 arch/arm/cpu/armv7/start.o
 .rel.text.compile
                0x00000000808816b8       0x20 arch/arm/cpu/armv7/start.o
 .rel.text.strncasecmp
                0x00000000808816d8        0x8 arch/arm/cpu/armv7/start.o
 .rel.text.strtok
                0x00000000808816e0        0x8 arch/arm/cpu/armv7/start.o
 .rel.text.uuid_str_valid
                0x00000000808816e8        0x8 arch/arm/cpu/armv7/start.o
 .rel.text.uuid_bin_to_str
                0x00000000808816f0       0x18 arch/arm/cpu/armv7/start.o
 .rel.text.number
                0x0000000080881708        0x8 arch/arm/cpu/armv7/start.o
 .rel.text.string
                0x0000000080881710        0x8 arch/arm/cpu/armv7/start.o
 .rel.text.vsnprintf_internal
                0x0000000080881718       0x10 arch/arm/cpu/armv7/start.o
 .rel.text.__assert_fail
                0x0000000080881728        0x8 arch/arm/cpu/armv7/start.o
 .rel.text.simple_itoa
                0x0000000080881730        0x8 arch/arm/cpu/armv7/start.o
 .rel.text.print_grouped_ull
                0x0000000080881738        0x0 arch/arm/cpu/armv7/start.o
 .rel.text.simple_strtoul
                0x0000000080881738        0x8 arch/arm/cpu/armv7/start.o
 .rel.text.simple_strtoull
                0x0000000080881740        0x8 arch/arm/cpu/armv7/start.o
 .rel.text.trailing_strtoln
                0x0000000080881748        0x8 arch/arm/cpu/armv7/start.o
 .rel.text.strmhz
                0x0000000080881750        0x0 arch/arm/cpu/armv7/start.o
 .rel.rodata.efi_boot_services
                0x0000000080881750      0x150 arch/arm/cpu/armv7/start.o
 .rel.rodata.efi_runtime_detach_list
                0x00000000808818a0       0x50 arch/arm/cpu/armv7/start.o
 .rel.rodata.efi_con_out
                0x00000000808818f0       0x50 arch/arm/cpu/armv7/start.o
 .rel.rodata.efi_console_control
                0x0000000080881940       0x18 arch/arm/cpu/armv7/start.o
 .rel.rodata.efi_device_path_to_text
                0x0000000080881958       0x10 arch/arm/cpu/armv7/start.o
 .rel.rodata.z_errmsg
                0x0000000080881968        0x0 arch/arm/cpu/armv7/start.o
 .rel.rodata.fdt_errtable
                0x0000000080881968       0x88 arch/arm/cpu/armv7/start.o
 .rel.rodata.smbios_write_funcs
                0x00000000808819f0       0x38 arch/arm/cpu/armv7/start.o
 .rel.rodata.compat_names
                0x0000000080881a28        0x0 arch/arm/cpu/armv7/start.o
 .rel.data.loaded_image_info_obj.9136
                0x0000000080881a28        0x8 arch/arm/cpu/armv7/start.o
 .rel.data.efi_obj_list
                0x0000000080881a30       0x10 arch/arm/cpu/armv7/start.o
 .rel.data.efi_runtime_mmio
                0x0000000080881a40       0x10 arch/arm/cpu/armv7/start.o
 .rel.data.efi_console_output_obj
                0x0000000080881a50       0x18 arch/arm/cpu/armv7/start.o
 .rel.data.efi_con_in
                0x0000000080881a68       0x10 arch/arm/cpu/armv7/start.o
 .rel.data.efi_console_input_obj
                0x0000000080881a78       0x18 arch/arm/cpu/armv7/start.o
 .rel.data.efi_console_control_obj
                0x0000000080881a90       0x18 arch/arm/cpu/armv7/start.o
 .rel.data.efi_mem
                0x0000000080881aa8       0x10 arch/arm/cpu/armv7/start.o
 .rel.data.current
                0x0000000080881ab8        0x0 arch/arm/cpu/armv7/start.o
 .rel.text.arp_init
                0x0000000080881ab8       0x30 arch/arm/cpu/armv7/start.o
 .rel.text.arp_raw_request
                0x0000000080881ae8       0x18 arch/arm/cpu/armv7/start.o
 .rel.text.arp_request
                0x0000000080881b00       0x38 arch/arm/cpu/armv7/start.o
 .rel.text.arp_timeout_check
                0x0000000080881b38       0x28 arch/arm/cpu/armv7/start.o
 .rel.text.arp_receive
                0x0000000080881b60       0x48 arch/arm/cpu/armv7/start.o
 .rel.text.dhcp_extended
                0x0000000080881ba8       0x30 arch/arm/cpu/armv7/start.o
 .rel.text.dhcp_process_options
                0x0000000080881bd8       0x70 arch/arm/cpu/armv7/start.o
 .rel.text.dhcp_packet_process_options
                0x0000000080881c48        0x8 arch/arm/cpu/armv7/start.o
 .rel.text.dhcp_handler
                0x0000000080881c50       0xe0 arch/arm/cpu/armv7/start.o
 .rel.text.bootp_reset
                0x0000000080881d30       0x20 arch/arm/cpu/armv7/start.o
 .rel.text.bootp_request
                0x0000000080881d50       0x78 arch/arm/cpu/armv7/start.o
 .rel.text.bootp_timeout_handler
                0x0000000080881dc8       0x28 arch/arm/cpu/armv7/start.o
 .rel.text.eth_get_uclass_priv
                0x0000000080881df0       0x18 arch/arm/cpu/armv7/start.o
 .rel.text.eth_write_hwaddr
                0x0000000080881e08       0x10 arch/arm/cpu/armv7/start.o
 .rel.text.eth_post_probe
                0x0000000080881e18       0x30 arch/arm/cpu/armv7/start.o
 .rel.text.eth_post_bind
                0x0000000080881e48        0x8 arch/arm/cpu/armv7/start.o
 .rel.text.eth_get_dev
                0x0000000080881e50        0x8 arch/arm/cpu/armv7/start.o
 .rel.text.eth_set_dev
                0x0000000080881e58        0x8 arch/arm/cpu/armv7/start.o
 .rel.text.eth_get_dev_by_name
                0x0000000080881e60        0x8 arch/arm/cpu/armv7/start.o
 .rel.text.eth_init
                0x0000000080881e68       0x40 arch/arm/cpu/armv7/start.o
 .rel.text.eth_send
                0x0000000080881ea8       0x10 arch/arm/cpu/armv7/start.o
 .rel.text.eth_rx
                0x0000000080881eb8       0x10 arch/arm/cpu/armv7/start.o
 .rel.text.eth_initialize
                0x0000000080881ec8       0x28 arch/arm/cpu/armv7/start.o
 .rel.text.eth_env_set_enetaddr
                0x0000000080881ef0        0x8 arch/arm/cpu/armv7/start.o
 .rel.text.eth_env_get_enetaddr_by_index
                0x0000000080881ef8       0x10 arch/arm/cpu/armv7/start.o
 .rel.text.eth_env_set_enetaddr_by_index
                0x0000000080881f08       0x10 arch/arm/cpu/armv7/start.o
 .rel.text.eth_mac_skip
                0x0000000080881f18       0x10 arch/arm/cpu/armv7/start.o
 .rel.text.eth_get_name
                0x0000000080881f28        0x8 arch/arm/cpu/armv7/start.o
 .rel.text.eth_current_changed
                0x0000000080881f30       0x18 arch/arm/cpu/armv7/start.o
 .rel.text.eth_try_another
                0x0000000080881f48       0x20 arch/arm/cpu/armv7/start.o
 .rel.text.eth_set_current
                0x0000000080881f68       0x20 arch/arm/cpu/armv7/start.o
 .rel.text.start_again_timeout_handler
                0x0000000080881f88        0x8 arch/arm/cpu/armv7/start.o
 .rel.text.on_ipaddr
                0x0000000080881f90        0x8 arch/arm/cpu/armv7/start.o
 .rel.text.on_gatewayip
                0x0000000080881f98        0x8 arch/arm/cpu/armv7/start.o
 .rel.text.on_netmask
                0x0000000080881fa0        0x8 arch/arm/cpu/armv7/start.o
 .rel.text.on_serverip
                0x0000000080881fa8        0x8 arch/arm/cpu/armv7/start.o
 .rel.text.net_init_loop
                0x0000000080881fb0        0x8 arch/arm/cpu/armv7/start.o
 .rel.text.net_clear_handlers
                0x0000000080881fb8       0x20 arch/arm/cpu/armv7/start.o
 .rel.text.net_auto_load
                0x0000000080881fd8       0x18 arch/arm/cpu/armv7/start.o
 .rel.text.net_init
                0x0000000080881ff0       0x20 arch/arm/cpu/armv7/start.o
 .rel.text.net_start_again
                0x0000000080882010       0x78 arch/arm/cpu/armv7/start.o
 .rel.text.net_loop
                0x0000000080882088      0x108 arch/arm/cpu/armv7/start.o
 .rel.text.net_get_udp_handler
                0x0000000080882190        0x0 arch/arm/cpu/armv7/start.o
 .rel.text.net_set_udp_handler
                0x0000000080882190       0x10 arch/arm/cpu/armv7/start.o
 .rel.text.net_get_arp_handler
                0x00000000808821a0        0x8 arch/arm/cpu/armv7/start.o
 .rel.text.net_set_arp_handler
                0x00000000808821a8        0x0 arch/arm/cpu/armv7/start.o
 .rel.text.net_set_timeout_handler
                0x00000000808821a8       0x18 arch/arm/cpu/armv7/start.o
 .rel.text.net_process_received_packet
                0x00000000808821c0       0x58 arch/arm/cpu/armv7/start.o
 .rel.text.net_eth_hdr_size
                0x0000000080882218        0x8 arch/arm/cpu/armv7/start.o
 .rel.text.net_set_ether
                0x0000000080882220       0x10 arch/arm/cpu/armv7/start.o
 .rel.text.net_update_ether
                0x0000000080882230        0x8 arch/arm/cpu/armv7/start.o
 .rel.text.net_set_ip_header
                0x0000000080882238        0x8 arch/arm/cpu/armv7/start.o
 .rel.text.net_set_udp_header
                0x0000000080882240        0x8 arch/arm/cpu/armv7/start.o
 .rel.text.net_send_udp_packet
                0x0000000080882248       0x58 arch/arm/cpu/armv7/start.o
 .rel.text.on_bootfile
                0x00000000808822a0        0x8 arch/arm/cpu/armv7/start.o
 .rel.text.ip_to_string
                0x00000000808822a8        0x8 arch/arm/cpu/armv7/start.o
 .rel.text.vlan_to_string
                0x00000000808822b0        0x0 arch/arm/cpu/armv7/start.o
 .rel.text.on_nvlan
                0x00000000808822b0        0x8 arch/arm/cpu/armv7/start.o
 .rel.text.on_vlan
                0x00000000808822b8        0x8 arch/arm/cpu/armv7/start.o
 .rel.text.rpc_lookup_reply
                0x00000000808822c0       0x28 arch/arm/cpu/armv7/start.o
 .rel.text.nfs_mount_reply
                0x00000000808822e8       0x28 arch/arm/cpu/armv7/start.o
 .rel.text.nfs_umountall_reply
                0x0000000080882310       0x28 arch/arm/cpu/armv7/start.o
 .rel.text.nfs_lookup_reply
                0x0000000080882338       0x60 arch/arm/cpu/armv7/start.o
 .rel.text.nfs_readlink_reply
                0x0000000080882398       0x30 arch/arm/cpu/armv7/start.o
 .rel.text.rpc_req
                0x00000000808823c8       0x40 arch/arm/cpu/armv7/start.o
 .rel.text.nfs_umountall_req
                0x0000000080882408       0x10 arch/arm/cpu/armv7/start.o
 .rel.text.nfs_read_reply.isra.2
                0x0000000080882418       0x40 arch/arm/cpu/armv7/start.o
 .rel.text.nfs_readlink_req
                0x0000000080882458       0x18 arch/arm/cpu/armv7/start.o
 .rel.text.nfs_read_req
                0x0000000080882470       0x18 arch/arm/cpu/armv7/start.o
 .rel.text.nfs_lookup_req
                0x0000000080882488       0x10 arch/arm/cpu/armv7/start.o
 .rel.text.nfs_send
                0x0000000080882498       0x40 arch/arm/cpu/armv7/start.o
 .rel.text.nfs_handler
                0x00000000808824d8       0x98 arch/arm/cpu/armv7/start.o
 .rel.text.nfs_timeout_handler
                0x0000000080882570       0x20 arch/arm/cpu/armv7/start.o
 .rel.text.nfs_start
                0x0000000080882590       0xe8 arch/arm/cpu/armv7/start.o
 .rel.text.ping_timeout_handler
                0x0000000080882678        0x8 arch/arm/cpu/armv7/start.o
 .rel.text.ping_start
                0x0000000080882680       0x58 arch/arm/cpu/armv7/start.o
 .rel.text.ping_receive
                0x00000000808826d8       0x18 arch/arm/cpu/armv7/start.o
 .rel.text.tftp_send
                0x00000000808826f0       0x88 arch/arm/cpu/armv7/start.o
 .rel.text.tftp_handler
                0x0000000080882778       0xe8 arch/arm/cpu/armv7/start.o
 .rel.text.tftp_timeout_handler
                0x0000000080882860       0x40 arch/arm/cpu/armv7/start.o
 .rel.text.tftp_start
                0x00000000808828a0      0x150 arch/arm/cpu/armv7/start.o
 .rel.u_boot_list_2_uclass_2_eth
                0x00000000808829f0       0x28 arch/arm/cpu/armv7/start.o
 .rel.u_boot_list_2_env_clbk_2_ethaddr
                0x0000000080882a18       0x10 arch/arm/cpu/armv7/start.o
 .rel.u_boot_list_2_env_clbk_2_ipaddr
                0x0000000080882a28       0x10 arch/arm/cpu/armv7/start.o
 .rel.u_boot_list_2_env_clbk_2_vlan
                0x0000000080882a38       0x10 arch/arm/cpu/armv7/start.o
 .rel.u_boot_list_2_env_clbk_2_serverip
                0x0000000080882a48       0x10 arch/arm/cpu/armv7/start.o
 .rel.u_boot_list_2_env_clbk_2_nvlan
                0x0000000080882a58       0x10 arch/arm/cpu/armv7/start.o
 .rel.u_boot_list_2_env_clbk_2_bootfile
                0x0000000080882a68       0x10 arch/arm/cpu/armv7/start.o
 .rel.u_boot_list_2_env_clbk_2_netmask
                0x0000000080882a78       0x10 arch/arm/cpu/armv7/start.o
 .rel.u_boot_list_2_env_clbk_2_gatewayip
                0x0000000080882a88       0x10 arch/arm/cpu/armv7/start.o
 .rel.text.do_dm
                0x0000000080882a98        0x8 arch/arm/cpu/armv7/start.o
 .rel.u_boot_list_2_cmd_2_dm
                0x0000000080882aa0       0x20 arch/arm/cpu/armv7/start.o
 .rel.data.test_commands
                0x0000000080882ac0       0x60 arch/arm/cpu/armv7/start.o
 .rel.text.raise
                0x0000000080882b20        0x0 arch/arm/cpu/armv7/start.o

.rel_dyn_end    0x0000000080882b20        0x0
 *(.__rel_dyn_end)
 .__rel_dyn_end
                0x0000000080882b20        0x0 arch/arm/lib/built-in.o

.hash           0x0000000080882b20       0x2c
 *(.hash*)
 .hash          0x0000000080882b20       0x2c arch/arm/cpu/armv7/start.o

.end            0x0000000080882b4c        0x0
 *(.__end)
 .__end         0x0000000080882b4c        0x0 arch/arm/lib/built-in.o
                0x0000000080882b4c                _image_binary_end = .
                0x0000000080883000                . = ALIGN (0x1000)

.mmutable
 *(.mmutable)

.bss_start      0x0000000080872ea8        0x0
 *(.__bss_start)
 .__bss_start   0x0000000080872ea8        0x0 arch/arm/lib/built-in.o
                0x0000000080872ea8                __bss_start
                0x0000000080872ea8                __bss_base = .

.bss            0x0000000080872ea8    0x3f86c
 *(.bss*)
 .bss.params    0x0000000080872ea8        0x4 arch/arm/lib/built-in.o
 .bss.efi_obj_list_initalized
                0x0000000080872eac        0x1 cmd/built-in.o
 .bss.data.8117
                0x0000000080872ead      0x400 cmd/built-in.o
 *fill*         0x00000000808732ad        0x3 
 .bss.working_fdt
                0x00000000808732b0        0x4 cmd/built-in.o
                0x00000000808732b0                working_fdt
 .bss.i2c_mm_last_chip
                0x00000000808732b4        0x4 cmd/built-in.o
 .bss.i2c_mm_last_alen
                0x00000000808732b8        0x4 cmd/built-in.o
 .bss.i2c_mm_last_addr
                0x00000000808732bc        0x4 cmd/built-in.o
 .bss.i2c_dp_last_chip
                0x00000000808732c0        0x4 cmd/built-in.o
 .bss.i2c_dp_last_addr
                0x00000000808732c4        0x4 cmd/built-in.o
 .bss.i2c_cur_bus
                0x00000000808732c8        0x4 cmd/built-in.o
 .bss.i2c_dp_last_alen
                0x00000000808732cc        0x4 cmd/built-in.o
 .bss.send_parms
                0x00000000808732d0       0x14 cmd/built-in.o
 .bss.os_data_init
                0x00000000808732e4        0x4 cmd/built-in.o
 .bss.os_data_addr_saved
                0x00000000808732e8        0x4 cmd/built-in.o
 .bss.his_pad_char
                0x00000000808732ec        0x1 cmd/built-in.o
 .bss.a_b       0x00000000808732ed       0x18 cmd/built-in.o
 *fill*         0x0000000080873305        0x3 
 .bss.os_data_char
                0x0000000080873308        0x4 cmd/built-in.o
 .bss.os_data_state
                0x000000008087330c        0x4 cmd/built-in.o
 .bss.k_data_escape
                0x0000000080873310        0x4 cmd/built-in.o
 .bss.os_data_state_saved
                0x0000000080873314        0x4 cmd/built-in.o
 .bss.os_data_addr
                0x0000000080873318        0x4 cmd/built-in.o
 .bss.send_ptr  0x000000008087331c        0x4 cmd/built-in.o
 .bss.bin_start_address
                0x0000000080873320        0x4 cmd/built-in.o
 .bss.his_quote
                0x0000000080873324        0x1 cmd/built-in.o
 *fill*         0x0000000080873325        0x3 
 .bss.his_pad_count
                0x0000000080873328        0x4 cmd/built-in.o
 .bss.his_eol   0x000000008087332c        0x1 cmd/built-in.o
 *fill*         0x000000008087332d        0x3 
 .bss.k_data_escape_saved
                0x0000000080873330        0x4 cmd/built-in.o
 .bss.dp_last_addr
                0x0000000080873334        0x4 cmd/built-in.o
 .bss.base_address
                0x0000000080873338        0x4 cmd/built-in.o
 .bss.mm_last_size
                0x000000008087333c        0x4 cmd/built-in.o
 .bss.mm_last_addr
                0x0000000080873340        0x4 cmd/built-in.o
 .bss.dp_last_size
                0x0000000080873344        0x4 cmd/built-in.o
 .bss.last_data
                0x0000000080873348        0x8 cmd/built-in.o
 .bss.last_reg_hi
                0x0000000080873350        0x8 cmd/built-in.o
 .bss.last_mask
                0x0000000080873358        0x4 cmd/built-in.o
 .bss.last_addr_lo
                0x000000008087335c        0x8 cmd/built-in.o
 .bss.last_op   0x0000000080873364        0x4 cmd/built-in.o
 .bss.last_addr_hi
                0x0000000080873368        0x8 cmd/built-in.o
 .bss.last_reg_lo
                0x0000000080873370        0x8 cmd/built-in.o
 .bss.last_devad_hi
                0x0000000080873378        0x4 cmd/built-in.o
 .bss.last_devad_lo
                0x000000008087337c        0x4 cmd/built-in.o
 .bss.last_ids  0x0000000080873380       0x81 cmd/built-in.o
 *fill*         0x0000000080873401        0x3 
 .bss.current_mtd_dev
                0x0000000080873404        0x4 cmd/built-in.o
                0x0000000080873404                current_mtd_dev
 .bss.use_defaults
                0x0000000080873408        0x1 cmd/built-in.o
                0x0000000080873408                use_defaults
 *fill*         0x0000000080873409        0x3 
 .bss.initialized.9804
                0x000000008087340c        0x4 cmd/built-in.o
 .bss.last_partition
                0x0000000080873410       0x11 cmd/built-in.o
 .bss.last_parts
                0x0000000080873421      0x201 cmd/built-in.o
 .bss.current_mtd_partnum
                0x0000000080873622        0x1 cmd/built-in.o
                0x0000000080873622                current_mtd_partnum
 *fill*         0x0000000080873623        0x1 
 .bss.mtdids    0x0000000080873624        0x8 cmd/built-in.o
 .bss.devices   0x000000008087362c        0x8 cmd/built-in.o
 *fill*         0x0000000080873634        0x4 
 .bss.last.9557
                0x0000000080873638        0x8 cmd/built-in.o
 .bss.do_getfile
                0x0000000080873640        0x4 cmd/built-in.o
 .bss.is_pxe    0x0000000080873644        0x1 cmd/built-in.o
 *fill*         0x0000000080873645        0x3 
 .bss.fs_argv   0x0000000080873648       0x14 cmd/built-in.o
 .bss.flash     0x000000008087365c        0x4 cmd/built-in.o
 .bss.bus       0x0000000080873660        0x4 cmd/built-in.o
 .bss.cs        0x0000000080873664        0x4 cmd/built-in.o
 .bss.bitlen    0x0000000080873668        0x4 cmd/built-in.o
 .bss.dout      0x000000008087366c       0x20 cmd/built-in.o
 .bss.din       0x000000008087368c       0x20 cmd/built-in.o
 .bss.mode      0x00000000808736ac        0x4 cmd/built-in.o
 .bss.flag_repeat
                0x00000000808736b0        0x4 common/built-in.o
 .bss.ifs       0x00000000808736b4        0x4 common/built-in.o
 .bss.the_command.8266
                0x00000000808736b8      0x401 common/built-in.o
 *fill*         0x0000000080873ab9        0x3 
 .bss.last_return_code
                0x0000000080873abc        0x4 common/built-in.o
 .bss.map       0x0000000080873ac0      0x100 common/built-in.o
 .bss.do_repeat
                0x0000000080873bc0        0x4 common/built-in.o
 .bss.buf.8466  0x0000000080873bc4       0x28 common/built-in.o
 .bss.top_vars  0x0000000080873bec        0x4 common/built-in.o
 .bss.stored_bootdelay
                0x0000000080873bf0        0x4 common/built-in.o
 .bss.monitor_flash_len
                0x0000000080873bf4        0x4 common/built-in.o
                0x0000000080873bf4                monitor_flash_len
 .bss.images    0x0000000080873bf8      0x164 common/built-in.o
                0x0000000080873bf8                images
 .bss.current_mii
                0x0000000080873d5c        0x4 common/built-in.o
 .bss.mii_devs  0x0000000080873d60        0x8 common/built-in.o
 .bss.usb_started
                0x0000000080873d68        0x1 common/built-in.o
                0x0000000080873d68                usb_started
 *fill*         0x0000000080873d69        0x3 
 .bss.running.10455
                0x0000000080873d6c        0x4 common/built-in.o
 .bss.usb_stor  0x0000000080873d70      0x16c common/built-in.o
 .bss.usb_dev_desc
                0x0000000080873edc      0x32c common/built-in.o
 .bss.usb_max_devs
                0x0000000080874208        0x4 common/built-in.o
 .bss.CBWTag    0x000000008087420c        0x4 common/built-in.o
 *fill*         0x0000000080874210       0x30 
 .bss.usb_ccb   0x0000000080874240       0xc0 common/built-in.o
 .bss.hist_list
                0x0000000080874300       0x50 common/built-in.o
 .bss.hist_lines
                0x0000000080874350     0x5014 common/built-in.o
 .bss.hist_max  0x0000000080879364        0x4 common/built-in.o
 .bss.initted.8136
                0x0000000080879368        0x4 common/built-in.o
 .bss.hist_add_idx
                0x000000008087936c        0x4 common/built-in.o
 .bss.hist_num  0x0000000080879370        0x4 common/built-in.o
 .bss.console_buffer
                0x0000000080879374      0x401 common/built-in.o
                0x0000000080879374                console_buffer
 *fill*         0x0000000080879775        0x3 
 .bss.ctrlc_was_pressed
                0x0000000080879778        0x4 common/built-in.o
 .bss.ctrlc_disabled
                0x000000008087977c        0x4 common/built-in.o
 .bss.max_total_mem
                0x0000000080879780        0x4 common/built-in.o
 .bss.mem_malloc_brk
                0x0000000080879784        0x4 common/built-in.o
                0x0000000080879784                mem_malloc_brk
 .bss.current_mallinfo
                0x0000000080879788       0x28 common/built-in.o
 .bss.mem_malloc_end
                0x00000000808797b0        0x4 common/built-in.o
                0x00000000808797b0                mem_malloc_end
 .bss.max_sbrked_mem
                0x00000000808797b4        0x4 common/built-in.o
 .bss.top_pad   0x00000000808797b8        0x4 common/built-in.o
 .bss.mem_malloc_start
                0x00000000808797bc        0x4 common/built-in.o
                0x00000000808797bc                mem_malloc_start
 .bss.andr_tmp_str
                0x00000000808797c0      0x201 common/built-in.o
 *fill*         0x00000000808799c1        0x3 
 .bss.devs      0x00000000808799c4       0x4c common/built-in.o
 .bss.stdio_devices
                0x0000000080879a10        0xc common/built-in.o
                0x0000000080879a10                stdio_devices
 .bss.tmp_buf   0x0000000080879a1c      0x400 common/built-in.o
 .bss.tmp_buf.8025
                0x0000000080879e1c      0x200 common/built-in.o
 .bss.zm_bp     0x000000008087a01c        0x4 common/built-in.o
 .bss.zm_buf    0x000000008087a020      0x800 common/built-in.o
 .bss.zm_debug_buf
                0x000000008087a820     0x2000 common/built-in.o
 .bss.xyz       0x000000008087c820      0x434 common/built-in.o
 *fill*         0x000000008087cc54       0x2c 
 .bss.tmpbuf    0x000000008087cc80      0x800 disk/built-in.o
 .bss.name.8734
                0x000000008087d480       0x25 disk/built-in.o
 *fill*         0x000000008087d4a5        0x3 
 .bss.initialized.10230
                0x000000008087d4a8        0x4 drivers/built-in.o
 .bss.mmc_devices
                0x000000008087d4ac        0x8 drivers/built-in.o
 .bss.dfu_alt_num
                0x000000008087d4b4        0x4 drivers/built-in.o
 .bss.alt_num_cnt
                0x000000008087d4b8        0x4 drivers/built-in.o
 .bss.dfu_buf   0x000000008087d4bc        0x4 drivers/built-in.o
 .bss.dfu_buf_size
                0x000000008087d4c0        0x4 drivers/built-in.o
 .bss.dfu_hash_algo
                0x000000008087d4c4        0x4 drivers/built-in.o
 .bss.dfu_file_buf_len
                0x000000008087d4c8        0x8 drivers/built-in.o
 .bss.dfu_file_buf
                0x000000008087d4d0        0x4 drivers/built-in.o
 .bss.dfu_file_buf_filled
                0x000000008087d4d4        0x4 drivers/built-in.o
 .bss.mtd_idr   0x000000008087d4d8      0x200 drivers/mtd/built-in.o
 .bss.nand_info
                0x000000008087d6d8        0x4 drivers/mtd/nand/built-in.o
 .bss.initialized.9415
                0x000000008087d6dc        0x4 drivers/mtd/nand/built-in.o
 .bss.nand_chip
                0x000000008087d6e0      0x510 drivers/mtd/nand/built-in.o
 .bss.total_nand_size
                0x000000008087dbf0        0x4 drivers/mtd/nand/built-in.o
 .bss.dev_name  0x000000008087dbf4        0x8 drivers/mtd/nand/built-in.o
 .bss.omap_nand_info
                0x000000008087dbfc       0x60 drivers/mtd/nand/built-in.o
 .bss.cs_next   0x000000008087dc5c        0x1 drivers/mtd/nand/built-in.o
 *fill*         0x000000008087dc5d        0x3 
 .bss.omap_ecclayout
                0x000000008087dc60      0xba8 drivers/mtd/nand/built-in.o
 .bss.elm_cfg   0x000000008087e808        0x4 drivers/mtd/nand/built-in.o
                0x000000008087e808                elm_cfg
 .bss.mdio_regs
                0x000000008087e80c        0x4 drivers/net/built-in.o
 .bss.epnum     0x000000008087e810        0x4 drivers/usb/gadget/built-in.o
 .bss.g_dnl_serial
                0x000000008087e814      0x100 drivers/usb/gadget/built-in.o
 .bss.g_dnl_detach_request
                0x000000008087e914        0x1 drivers/usb/gadget/built-in.o
 *fill*         0x000000008087e915        0x3 
 .bss.composite
                0x000000008087e918        0x4 drivers/usb/gadget/built-in.o
 .bss.dfu_defer_flush
                0x000000008087e91c        0x4 drivers/usb/gadget/built-in.o
                0x000000008087e91c                dfu_defer_flush
 .bss.download_bytes
                0x000000008087e920        0x4 drivers/usb/gadget/built-in.o
 .bss.fastboot_func
                0x000000008087e924        0x4 drivers/usb/gadget/built-in.o
 .bss.download_size
                0x000000008087e928        0x4 drivers/usb/gadget/built-in.o
 .bss.dev_addr  0x000000008087e92c       0x12 drivers/usb/gadget/built-in.o
 .bss.ethaddr   0x000000008087e93e        0xd drivers/usb/gadget/built-in.o
 *fill*         0x000000008087e94b        0x1 
 .bss.iSerialNumber
                0x000000008087e94c        0x4 drivers/usb/gadget/built-in.o
 .bss.serial_number
                0x000000008087e950       0x14 drivers/usb/gadget/built-in.o
 .bss.eth_priv  0x000000008087e964       0xd8 drivers/usb/gadget/built-in.o
                0x000000008087e964                eth_priv
 .bss.manufacturer
                0x000000008087ea3c       0x32 drivers/usb/gadget/built-in.o
 .bss.host_addr
                0x000000008087ea6e       0x12 drivers/usb/gadget/built-in.o
 .bss.__status_req
                0x000000008087ea80       0x40 drivers/usb/gadget/built-in.o
 .bss.packet_received
                0x000000008087eac0        0x4 drivers/usb/gadget/built-in.o
                0x000000008087eac0                packet_received
 .bss.rndis_resp_buf
                0x000000008087eac4        0x8 drivers/usb/gadget/built-in.o
 .bss.packet_sent
                0x000000008087eacc        0x4 drivers/usb/gadget/built-in.o
                0x000000008087eacc                packet_sent
 *fill*         0x000000008087ead0       0x30 
 .bss.__control_req
                0x000000008087eb00      0x100 drivers/usb/gadget/built-in.o
 .bss.iProduct  0x000000008087ec00        0x4 drivers/usb/gadget/built-in.o
 .bss.rndis_per_dev_params
                0x000000008087ec04       0x3c drivers/usb/gadget/built-in.o
 .bss.asynch_allowed
                0x000000008087ec40        0x1 drivers/usb/host/built-in.o
 *fill*         0x000000008087ec41        0x3 
 .bss.gadget    0x000000008087ec44        0x4 drivers/usb/musb-new/built-in.o
 .bss.callback_list
                0x000000008087ec48        0x4 env/built-in.o
 .bss.flags_list
                0x000000008087ec4c        0x4 env/built-in.o
 .bss.fs_partition
                0x000000008087ec50       0x78 fs/built-in.o
 .bss.fs_type   0x000000008087ecc8        0x4 fs/built-in.o
 .bss.fs_dev_desc
                0x000000008087eccc        0x4 fs/built-in.o
 .bss.ext_fs    0x000000008087ecd0       0x48 fs/built-in.o
                0x000000008087ecd0                ext_fs
 .bss.ext4fs_indir3_block
                0x000000008087ed18        0x4 fs/built-in.o
                0x000000008087ed18                ext4fs_indir3_block
 .bss.ext4fs_root
                0x000000008087ed1c        0x4 fs/built-in.o
                0x000000008087ed1c                ext4fs_root
 .bss.symlinknest
                0x000000008087ed20        0x4 fs/built-in.o
 .bss.ext4fs_indir3_size
                0x000000008087ed24        0x4 fs/built-in.o
                0x000000008087ed24                ext4fs_indir3_size
 .bss.ext4fs_indir1_block
                0x000000008087ed28        0x4 fs/built-in.o
                0x000000008087ed28                ext4fs_indir1_block
 .bss.ext4fs_indir2_size
                0x000000008087ed2c        0x4 fs/built-in.o
                0x000000008087ed2c                ext4fs_indir2_size
 .bss.ext4fs_indir2_block
                0x000000008087ed30        0x4 fs/built-in.o
                0x000000008087ed30                ext4fs_indir2_block
 .bss.ext4fs_indir1_size
                0x000000008087ed34        0x4 fs/built-in.o
                0x000000008087ed34                ext4fs_indir1_size
 .bss.ext4fs_file
                0x000000008087ed38        0x4 fs/built-in.o
                0x000000008087ed38                ext4fs_file
 .bss.g_parent_inode
                0x000000008087ed3c        0x4 fs/built-in.o
                0x000000008087ed3c                g_parent_inode
 .bss.part_info
                0x000000008087ed40        0x4 fs/built-in.o
 .bss.part_offset
                0x000000008087ed44        0x4 fs/built-in.o
                0x000000008087ed44                part_offset
 .bss.ext4fs_blk_desc
                0x000000008087ed48        0x4 fs/built-in.o
 .bss.journal_ptr
                0x000000008087ed4c      0x190 fs/built-in.o
                0x000000008087ed4c                journal_ptr
 .bss.revk_blk_list
                0x000000008087eedc        0x4 fs/built-in.o
 .bss.gindex    0x000000008087eee0        0x4 fs/built-in.o
                0x000000008087eee0                gindex
 .bss.gd_index  0x000000008087eee4        0x4 fs/built-in.o
                0x000000008087eee4                gd_index
 .bss.dirty_block_ptr
                0x000000008087eee8      0x190 fs/built-in.o
                0x000000008087eee8                dirty_block_ptr
 .bss.prev_node
                0x000000008087f078        0x4 fs/built-in.o
 .bss.jrnl_blk_idx
                0x000000008087f07c        0x4 fs/built-in.o
                0x000000008087f07c                jrnl_blk_idx
 .bss.get_contents_vfatname_block
                0x000000008087f080    0x10000 fs/built-in.o
                0x000000008087f080                get_contents_vfatname_block
 .bss.do_fat_read_at_block
                0x000000008088f080    0x10000 fs/built-in.o
                0x000000008088f080                do_fat_read_at_block
 .bss.get_dentfromdir_block
                0x000000008089f080    0x10000 fs/built-in.o
                0x000000008089f080                get_dentfromdir_block
 .bss.empty_dentptr
                0x00000000808af080        0x4 fs/built-in.o
 .bss.cur_part_info
                0x00000000808af084       0x78 fs/built-in.o
 .bss.total_sector
                0x00000000808af0fc        0x4 fs/built-in.o
 .bss.dir_curclust
                0x00000000808af100        0x4 fs/built-in.o
 .bss.num_of_fats
                0x00000000808af104        0x1 fs/built-in.o
 *fill*         0x00000000808af105        0x3 
 .bss.cur_dev   0x00000000808af108        0x4 fs/built-in.o
 *fill*         0x00000000808af10c        0x4 
 .bss.mono.9196
                0x00000000808af110        0x8 lib/built-in.o
 .bss.app_gd    0x00000000808af118        0x4 lib/built-in.o
 *fill*         0x00000000808af11c        0x4 
 .bss.efi_events
                0x00000000808af120      0x280 lib/built-in.o
 .bss.efi_gd    0x00000000808af3a0        0x4 lib/built-in.o
 .bss.nesting_level
                0x00000000808af3a4        0x4 lib/built-in.o
 .bss.entry_count
                0x00000000808af3a8        0x4 lib/built-in.o
 .bss.console_timer_event
                0x00000000808af3ac        0x4 lib/built-in.o
 .bss.console_size_queried
                0x00000000808af3b0        0x1 lib/built-in.o
 .bss.new_rx_packet
                0x00000000808af3b1        0x1 lib/built-in.o
 *fill*         0x00000000808af3b2        0x2 
 .bss.dhcp_ack  0x00000000808af3b4        0x4 lib/built-in.o
 .bss.new_tx_packet
                0x00000000808af3b8        0x4 lib/built-in.o
 .bss.z_verbose
                0x00000000808af3bc        0x4 lib/built-in.o
                0x00000000808af3bc                z_verbose
 .bss.errno     0x00000000808af3c0        0x4 lib/built-in.o
                0x00000000808af3c0                errno
 .bss.___strtok
                0x00000000808af3c4        0x4 lib/built-in.o
                0x00000000808af3c4                ___strtok
 .bss.local.8254
                0x00000000808af3c8       0x16 lib/built-in.o
 .bss.arp_tx_packet_buf
                0x00000000808af3de      0x640 net/built-in.o
 *fill*         0x00000000808afa1e        0x2 
 .bss.arp_wait_packet_ethaddr
                0x00000000808afa20        0x4 net/built-in.o
                0x00000000808afa20                arp_wait_packet_ethaddr
 .bss.arp_tx_packet
                0x00000000808afa24        0x4 net/built-in.o
 .bss.arp_wait_tx_packet_size
                0x00000000808afa28        0x4 net/built-in.o
                0x00000000808afa28                arp_wait_tx_packet_size
 .bss.arp_wait_try
                0x00000000808afa2c        0x4 net/built-in.o
                0x00000000808afa2c                arp_wait_try
 .bss.net_arp_wait_reply_ip
                0x00000000808afa30        0x4 net/built-in.o
 .bss.net_arp_wait_packet_ip
                0x00000000808afa34        0x4 net/built-in.o
                0x00000000808afa34                net_arp_wait_packet_ip
 .bss.arp_wait_timer_start
                0x00000000808afa38        0x4 net/built-in.o
                0x00000000808afa38                arp_wait_timer_start
 .bss.dhcp_state
                0x00000000808afa3c        0x4 net/built-in.o
 .bss.net_hostname
                0x00000000808afa40       0x20 net/built-in.o
                0x00000000808afa40                net_hostname
 .bss.bootp_timeout
                0x00000000808afa60        0x4 net/built-in.o
                0x00000000808afa60                bootp_timeout
 .bss.dhcp_server_ip
                0x00000000808afa64        0x4 net/built-in.o
 .bss.dhcp_option_overload
                0x00000000808afa68        0x1 net/built-in.o
 *fill*         0x00000000808afa69        0x3 
 .bss.time_taken_max
                0x00000000808afa6c        0x4 net/built-in.o
 .bss.net_root_path
                0x00000000808afa70       0x40 net/built-in.o
                0x00000000808afa70                net_root_path
 .bss.bootp_ids
                0x00000000808afab0       0x10 net/built-in.o
                0x00000000808afab0                bootp_ids
 .bss.bootp_num_ids
                0x00000000808afac0        0x4 net/built-in.o
                0x00000000808afac0                bootp_num_ids
 .bss.bootp_try
                0x00000000808afac4        0x4 net/built-in.o
                0x00000000808afac4                bootp_try
 .bss.bootp_start
                0x00000000808afac8        0x4 net/built-in.o
                0x00000000808afac8                bootp_start
 .bss.dhcp_leasetime
                0x00000000808afacc        0x4 net/built-in.o
 .bss.net_nis_domain
                0x00000000808afad0       0x20 net/built-in.o
                0x00000000808afad0                net_nis_domain
 .bss.eth_errno
                0x00000000808afaf0        0x4 net/built-in.o
 .bss.env_changed_id.9985
                0x00000000808afaf4        0x4 net/built-in.o
 .bss.act.9984  0x00000000808afaf8        0x4 net/built-in.o
 .bss.first_failed.9979
                0x00000000808afafc        0x4 net/built-in.o
 .bss.net_server_ethaddr
                0x00000000808afb00        0x6 net/built-in.o
                0x00000000808afb00                net_server_ethaddr
 .bss.net_ethaddr
                0x00000000808afb06        0x6 net/built-in.o
                0x00000000808afb06                net_ethaddr
 .bss.net_dns_server
                0x00000000808afb0c        0x4 net/built-in.o
                0x00000000808afb0c                net_dns_server
 .bss.net_state
                0x00000000808afb10        0x4 net/built-in.o
                0x00000000808afb10                net_state
 .bss.net_server_ip
                0x00000000808afb14        0x4 net/built-in.o
                0x00000000808afb14                net_server_ip
 .bss.net_rx_packet
                0x00000000808afb18        0x4 net/built-in.o
                0x00000000808afb18                net_rx_packet
 .bss.time_handler
                0x00000000808afb1c        0x4 net/built-in.o
 .bss.net_rx_packets
                0x00000000808afb20       0x10 net/built-in.o
                0x00000000808afb20                net_rx_packets
 .bss.time_start
                0x00000000808afb30        0x8 net/built-in.o
 .bss.net_gateway
                0x00000000808afb38        0x4 net/built-in.o
                0x00000000808afb38                net_gateway
 .bss.net_boot_file_name
                0x00000000808afb3c      0x400 net/built-in.o
                0x00000000808afb3c                net_boot_file_name
 .bss.udp_packet_handler
                0x00000000808aff3c        0x4 net/built-in.o
 .bss.net_dev_exists
                0x00000000808aff40        0x4 net/built-in.o
 .bss.net_try_count
                0x00000000808aff44        0x4 net/built-in.o
 .bss.net_boot_file_expected_size_in_blocks
                0x00000000808aff48        0x4 net/built-in.o
                0x00000000808aff48                net_boot_file_expected_size_in_blocks
 .bss.net_null_ethaddr
                0x00000000808aff4c        0x6 net/built-in.o
                0x00000000808aff4c                net_null_ethaddr
 *fill*         0x00000000808aff52        0x2 
 .bss.net_ip_id
                0x00000000808aff54        0x4 net/built-in.o
 .bss.net_restart_wrap
                0x00000000808aff58        0x4 net/built-in.o
                0x00000000808aff58                net_restart_wrap
 .bss.net_restarted
                0x00000000808aff5c        0x4 net/built-in.o
 .bss.time_delta
                0x00000000808aff60        0x4 net/built-in.o
 .bss.arp_packet_handler
                0x00000000808aff64        0x4 net/built-in.o
 .bss.net_netmask
                0x00000000808aff68        0x4 net/built-in.o
                0x00000000808aff68                net_netmask
 .bss.net_pkt_buf
                0x00000000808aff6c     0x1e40 net/built-in.o
 .bss.net_ip    0x00000000808b1dac        0x4 net/built-in.o
                0x00000000808b1dac                net_ip
 .bss.net_rx_packet_len
                0x00000000808b1db0        0x4 net/built-in.o
                0x00000000808b1db0                net_rx_packet_len
 .bss.net_tx_packet
                0x00000000808b1db4        0x4 net/built-in.o
                0x00000000808b1db4                net_tx_packet
 .bss.net_dns_server2
                0x00000000808b1db8        0x4 net/built-in.o
                0x00000000808b1db8                net_dns_server2
 .bss.push_packet
                0x00000000808b1dbc        0x4 net/built-in.o
                0x00000000808b1dbc                push_packet
 .bss.net_boot_file_size
                0x00000000808b1dc0        0x4 net/built-in.o
                0x00000000808b1dc0                net_boot_file_size
 .bss.nfs_path_buff
                0x00000000808b1dc4      0x800 net/built-in.o
 .bss.rpc_id    0x00000000808b25c4        0x4 net/built-in.o
 .bss.nfs_download_state
                0x00000000808b25c8        0x4 net/built-in.o
 .bss.nfs_our_port
                0x00000000808b25cc        0x4 net/built-in.o
 .bss.nfs_server_ip
                0x00000000808b25d0        0x4 net/built-in.o
 .bss.dirfh     0x00000000808b25d4       0x20 net/built-in.o
 .bss.nfs_len   0x00000000808b25f4        0x4 net/built-in.o
 .bss.fs_mounted
                0x00000000808b25f8        0x4 net/built-in.o
 .bss.nfs_server_mount_port
                0x00000000808b25fc        0x4 net/built-in.o
 .bss.filefh    0x00000000808b2600       0x40 net/built-in.o
 .bss.nfs_state
                0x00000000808b2640        0x4 net/built-in.o
 .bss.filefh3_length
                0x00000000808b2644        0x4 net/built-in.o
 .bss.nfs_timeout_count
                0x00000000808b2648        0x4 net/built-in.o
 .bss.nfs_path  0x00000000808b264c        0x4 net/built-in.o
 .bss.nfs_filename
                0x00000000808b2650        0x4 net/built-in.o
 .bss.nfs_server_port
                0x00000000808b2654        0x4 net/built-in.o
 .bss.net_ping_ip
                0x00000000808b2658        0x4 net/built-in.o
                0x00000000808b2658                net_ping_ip
 .bss.ping_seq_number
                0x00000000808b265c        0x2 net/built-in.o
 *fill*         0x00000000808b265e        0x2 
 .bss.tftp_prev_block
                0x00000000808b2660        0x4 net/built-in.o
 .bss.timeout_count
                0x00000000808b2664        0x4 net/built-in.o
 .bss.tftp_block_wrap
                0x00000000808b2668        0x4 net/built-in.o
 .bss.default_filename
                0x00000000808b266c        0xd net/built-in.o
 *fill*         0x00000000808b2679        0x3 
 .bss.tftp_remote_port
                0x00000000808b267c        0x4 net/built-in.o
 .bss.tftp_cur_block
                0x00000000808b2680        0x4 net/built-in.o
 .bss.tftp_remote_ip
                0x00000000808b2684        0x4 net/built-in.o
 .bss.tftp_state
                0x00000000808b2688        0x4 net/built-in.o
 .bss.tftp_our_port
                0x00000000808b268c        0x4 net/built-in.o
 .bss.tftp_filename
                0x00000000808b2690       0x80 net/built-in.o
 .bss.tftp_block_wrap_offset
                0x00000000808b2710        0x4 net/built-in.o
                0x00000000808b2714                . = ALIGN (0x4)
                0x00000000808b2714                __bss_limit = .

.bss_end        0x00000000808b2714        0x0
 *(.__bss_end)
 .__bss_end     0x00000000808b2714        0x0 arch/arm/lib/built-in.o
                0x00000000808b2714                __bss_end

.dynsym         0x0000000080882b4c       0x60
 *(.dynsym)
 .dynsym        0x0000000080882b4c       0x60 arch/arm/cpu/armv7/start.o

.dynbss         0x0000000080882bac        0x0
 *(.dynbss)
 .dynbss        0x0000000080882bac        0x0 arch/arm/cpu/armv7/start.o

.dynstr         0x0000000080882bac       0x2a
 *(.dynstr*)
 .dynstr        0x0000000080882bac       0x2a arch/arm/cpu/armv7/start.o

.dynamic        0x0000000080882bd8       0x80
 *(.dynamic*)
 .dynamic       0x0000000080882bd8       0x80 arch/arm/cpu/armv7/start.o
                0x0000000080882bd8                _DYNAMIC

.gnu.hash
 *(.gnu.hash)

.plt            0x0000000080882c58        0x0
 *(.plt*)
 .plt           0x0000000080882c58        0x0 arch/arm/cpu/armv7/start.o

.interp         0x0000000080882c58       0x11
 *(.interp*)
 .interp        0x0000000080882c58       0x11 arch/arm/cpu/armv7/start.o

.gnu            0x0000000080882c6c        0x0
 *(.gnu*)
 .gnu.version_d
                0x0000000080882c6c        0x0 arch/arm/cpu/armv7/start.o
 .gnu.version   0x0000000080882c6c        0x0 arch/arm/cpu/armv7/start.o
 .gnu.version_r
                0x0000000080882c6c        0x0 arch/arm/cpu/armv7/start.o

.ARM.exidx
 *(.ARM.exidx*)
LOAD arch/arm/cpu/armv7/start.o
START GROUP
LOAD arch/arm/cpu/built-in.o
LOAD arch/arm/cpu/armv7/built-in.o
LOAD arch/arm/lib/built-in.o
LOAD arch/arm/mach-omap2/built-in.o
LOAD board/ti/am335x/built-in.o
LOAD board/ti/common/built-in.o
LOAD cmd/built-in.o
LOAD common/built-in.o
LOAD disk/built-in.o
LOAD drivers/built-in.o
LOAD drivers/dma/built-in.o
LOAD drivers/gpio/built-in.o
LOAD drivers/i2c/built-in.o
LOAD drivers/mtd/built-in.o
LOAD drivers/mtd/nand/built-in.o
LOAD drivers/mtd/onenand/built-in.o
LOAD drivers/mtd/spi/built-in.o
LOAD drivers/net/built-in.o
LOAD drivers/net/phy/built-in.o
LOAD drivers/pci/built-in.o
LOAD drivers/power/built-in.o
LOAD drivers/power/battery/built-in.o
LOAD drivers/power/domain/built-in.o
LOAD drivers/power/fuel_gauge/built-in.o
LOAD drivers/power/mfd/built-in.o
LOAD drivers/power/pmic/built-in.o
LOAD drivers/power/regulator/built-in.o
LOAD drivers/serial/built-in.o
LOAD drivers/spi/built-in.o
LOAD drivers/usb/common/built-in.o
LOAD drivers/usb/dwc3/built-in.o
LOAD drivers/usb/emul/built-in.o
LOAD drivers/usb/eth/built-in.o
LOAD drivers/usb/gadget/built-in.o
LOAD drivers/usb/gadget/udc/built-in.o
LOAD drivers/usb/host/built-in.o
LOAD drivers/usb/musb-new/built-in.o
LOAD drivers/usb/musb/built-in.o
LOAD drivers/usb/phy/built-in.o
LOAD drivers/usb/ulpi/built-in.o
LOAD env/built-in.o
LOAD fs/built-in.o
LOAD lib/built-in.o
LOAD net/built-in.o
LOAD test/built-in.o
LOAD test/dm/built-in.o
END GROUP
LOAD arch/arm/lib/eabi_compat.o
LOAD arch/arm/lib/lib.a
OUTPUT(u-boot elf32-littlearm)

.ARM.attributes
                0x0000000000000000       0x2b
 .ARM.attributes
                0x0000000000000000       0x1d arch/arm/cpu/armv7/start.o
 .ARM.attributes
                0x000000000000001d       0x2d board/ti/am335x/built-in.o
 .ARM.attributes
                0x000000000000004a       0x2b arch/arm/cpu/armv7/built-in.o
 .ARM.attributes
                0x0000000000000075       0x29 arch/arm/lib/built-in.o
 .ARM.attributes
                0x000000000000009e       0x2d arch/arm/mach-omap2/built-in.o
 .ARM.attributes
                0x00000000000000cb       0x2d board/ti/common/built-in.o
 .ARM.attributes
                0x00000000000000f8       0x2d cmd/built-in.o
 .ARM.attributes
                0x0000000000000125       0x2d common/built-in.o
 .ARM.attributes
                0x0000000000000152       0x2d disk/built-in.o
 .ARM.attributes
                0x000000000000017f       0x2d drivers/built-in.o
 .ARM.attributes
                0x00000000000001ac       0x2d drivers/gpio/built-in.o
 .ARM.attributes
                0x00000000000001d9       0x2d drivers/i2c/built-in.o
 .ARM.attributes
                0x0000000000000206       0x2d drivers/mtd/built-in.o
 .ARM.attributes
                0x0000000000000233       0x2d drivers/mtd/nand/built-in.o
 .ARM.attributes
                0x0000000000000260       0x2d drivers/mtd/spi/built-in.o
 .ARM.attributes
                0x000000000000028d       0x2d drivers/net/built-in.o
 .ARM.attributes
                0x00000000000002ba       0x2d drivers/net/phy/built-in.o
 .ARM.attributes
                0x00000000000002e7       0x2d drivers/serial/built-in.o
 .ARM.attributes
                0x0000000000000314       0x2d drivers/spi/built-in.o
 .ARM.attributes
                0x0000000000000341       0x2d drivers/usb/common/built-in.o
 .ARM.attributes
                0x000000000000036e       0x2d drivers/usb/gadget/built-in.o
 .ARM.attributes
                0x000000000000039b       0x2d drivers/usb/host/built-in.o
 .ARM.attributes
                0x00000000000003c8       0x2d drivers/usb/musb-new/built-in.o
 .ARM.attributes
                0x00000000000003f5       0x2d env/built-in.o
 .ARM.attributes
                0x0000000000000422       0x2d fs/built-in.o
 .ARM.attributes
                0x000000000000044f       0x2d lib/built-in.o
 .ARM.attributes
                0x000000000000047c       0x2d net/built-in.o
 .ARM.attributes
                0x00000000000004a9       0x2d test/dm/built-in.o
 .ARM.attributes
                0x00000000000004d6       0x1d arch/arm/lib/lib.a(ashldi3.o)
 .ARM.attributes
                0x00000000000004f3       0x1d arch/arm/lib/lib.a(ashrdi3.o)
 .ARM.attributes
                0x0000000000000510       0x1d arch/arm/lib/lib.a(lib1funcs.o)
 .ARM.attributes
                0x000000000000052d       0x1d arch/arm/lib/lib.a(lshrdi3.o)
 .ARM.attributes
                0x000000000000054a       0x2d arch/arm/lib/lib.a(div0.o)

.comment        0x0000000000000000       0x2d
 .comment       0x0000000000000000       0x2d board/ti/am335x/built-in.o
                                         0x2e (size before relaxing)
 .comment       0x000000000000002d       0xb8 arch/arm/cpu/armv7/built-in.o
 .comment       0x000000000000002d      0x1cc arch/arm/lib/built-in.o
 .comment       0x000000000000002d      0x30e arch/arm/mach-omap2/built-in.o
 .comment       0x000000000000002d       0x2e board/ti/common/built-in.o
 .comment       0x000000000000002d      0x844 cmd/built-in.o
 .comment       0x000000000000002d      0x61c common/built-in.o
 .comment       0x000000000000002d       0xb8 disk/built-in.o
 .comment       0x000000000000002d      0x61c drivers/built-in.o
 .comment       0x000000000000002d       0x5c drivers/gpio/built-in.o
 .comment       0x000000000000002d       0x8a drivers/i2c/built-in.o
 .comment       0x000000000000002d       0x5c drivers/mtd/built-in.o
 .comment       0x000000000000002d      0x19e drivers/mtd/nand/built-in.o
 .comment       0x000000000000002d       0xb8 drivers/mtd/spi/built-in.o
 .comment       0x000000000000002d       0x5c drivers/net/built-in.o
 .comment       0x000000000000002d       0x8a drivers/net/phy/built-in.o
 .comment       0x000000000000002d       0x5c drivers/serial/built-in.o
 .comment       0x000000000000002d       0x5c drivers/spi/built-in.o
 .comment       0x000000000000002d       0x2e drivers/usb/common/built-in.o
 .comment       0x000000000000002d      0x170 drivers/usb/gadget/built-in.o
 .comment       0x000000000000002d       0x2e drivers/usb/host/built-in.o
 .comment       0x000000000000002d      0x142 drivers/usb/musb-new/built-in.o
 .comment       0x000000000000002d      0x114 env/built-in.o
 .comment       0x000000000000002d      0x19e fs/built-in.o
 .comment       0x000000000000002d      0xa6c lib/built-in.o
 .comment       0x000000000000002d      0x19e net/built-in.o
 .comment       0x000000000000002d       0x2e test/dm/built-in.o
 .comment       0x000000000000002d       0x2e arch/arm/lib/lib.a(div0.o)

.debug_line     0x0000000000000000    0x364b3
 .debug_line    0x0000000000000000       0x89 arch/arm/cpu/armv7/start.o
 .debug_line    0x0000000000000089      0x392 board/ti/am335x/built-in.o
 .debug_line    0x000000000000041b      0x445 arch/arm/cpu/armv7/built-in.o
 .debug_line    0x0000000000000860     0x104f arch/arm/lib/built-in.o
 .debug_line    0x00000000000018af     0x14b3 arch/arm/mach-omap2/built-in.o
 .debug_line    0x0000000000002d62      0x3dd board/ti/common/built-in.o
 .debug_line    0x000000000000313f     0x6f1c cmd/built-in.o
 .debug_line    0x000000000000a05b     0x83d0 common/built-in.o
 .debug_line    0x000000000001242b     0x128c disk/built-in.o
 .debug_line    0x00000000000136b7     0x5a19 drivers/built-in.o
 .debug_line    0x00000000000190d0      0x9e7 drivers/gpio/built-in.o
 .debug_line    0x0000000000019ab7      0xa9d drivers/i2c/built-in.o
 .debug_line    0x000000000001a554      0x66f drivers/mtd/built-in.o
 .debug_line    0x000000000001abc3     0x2e36 drivers/mtd/nand/built-in.o
 .debug_line    0x000000000001d9f9      0x8b4 drivers/mtd/spi/built-in.o
 .debug_line    0x000000000001e2ad      0x90a drivers/net/built-in.o
 .debug_line    0x000000000001ebb7      0x909 drivers/net/phy/built-in.o
 .debug_line    0x000000000001f4c0      0x757 drivers/serial/built-in.o
 .debug_line    0x000000000001fc17      0x414 drivers/spi/built-in.o
 .debug_line    0x000000000002002b      0x15e drivers/usb/common/built-in.o
 .debug_line    0x0000000000020189     0x2981 drivers/usb/gadget/built-in.o
 .debug_line    0x0000000000022b0a      0x5b7 drivers/usb/host/built-in.o
 .debug_line    0x00000000000230c1     0x3504 drivers/usb/musb-new/built-in.o
 .debug_line    0x00000000000265c5      0xae9 env/built-in.o
 .debug_line    0x00000000000270ae     0x3377 fs/built-in.o
 .debug_line    0x000000000002a425     0x9bc8 lib/built-in.o
 .debug_line    0x0000000000033fed     0x210e net/built-in.o
 .debug_line    0x00000000000360fb      0x18d test/dm/built-in.o
 .debug_line    0x0000000000036288       0x50 arch/arm/lib/lib.a(ashldi3.o)
 .debug_line    0x00000000000362d8       0x50 arch/arm/lib/lib.a(ashrdi3.o)
 .debug_line    0x0000000000036328       0xf4 arch/arm/lib/lib.a(lib1funcs.o)
 .debug_line    0x000000000003641c       0x50 arch/arm/lib/lib.a(lshrdi3.o)
 .debug_line    0x000000000003646c       0x47 arch/arm/lib/lib.a(div0.o)

.debug_info     0x0000000000000000   0x169a67
 .debug_info    0x0000000000000000       0x6d arch/arm/cpu/armv7/start.o
 .debug_info    0x000000000000006d     0x1a3c board/ti/am335x/built-in.o
 .debug_info    0x0000000000001aa9      0xab0 arch/arm/cpu/armv7/built-in.o
 .debug_info    0x0000000000002559     0x4b6d arch/arm/lib/built-in.o
 .debug_info    0x00000000000070c6     0x890c arch/arm/mach-omap2/built-in.o
 .debug_info    0x000000000000f9d2     0x1885 board/ti/common/built-in.o
 .debug_info    0x0000000000011257    0x34655 cmd/built-in.o
 .debug_info    0x00000000000458ac    0x34952 common/built-in.o
 .debug_info    0x000000000007a1fe     0x6a77 disk/built-in.o
 .debug_info    0x0000000000080c75    0x2a639 drivers/built-in.o
 .debug_info    0x00000000000ab2ae     0x42a4 drivers/gpio/built-in.o
 .debug_info    0x00000000000af552     0x5a29 drivers/i2c/built-in.o
 .debug_info    0x00000000000b4f7b     0x1e1b drivers/mtd/built-in.o
 .debug_info    0x00000000000b6d96    0x14c47 drivers/mtd/nand/built-in.o
 .debug_info    0x00000000000cb9dd     0x436b drivers/mtd/spi/built-in.o
 .debug_info    0x00000000000cfd48     0x5229 drivers/net/built-in.o
 .debug_info    0x00000000000d4f71     0x3874 drivers/net/phy/built-in.o
 .debug_info    0x00000000000d87e5     0x350c drivers/serial/built-in.o
 .debug_info    0x00000000000dbcf1     0x1f8e drivers/spi/built-in.o
 .debug_info    0x00000000000ddc7f      0x66c drivers/usb/common/built-in.o
 .debug_info    0x00000000000de2eb    0x128f1 drivers/usb/gadget/built-in.o
 .debug_info    0x00000000000f0bdc     0x2fd1 drivers/usb/host/built-in.o
 .debug_info    0x00000000000f3bad    0x1d442 drivers/usb/musb-new/built-in.o
 .debug_info    0x0000000000110fef     0x443e env/built-in.o
 .debug_info    0x000000000011542d    0x13f10 fs/built-in.o
 .debug_info    0x000000000012933d    0x33253 lib/built-in.o
 .debug_info    0x000000000015c590     0xc47d net/built-in.o
 .debug_info    0x0000000000168a0d      0xe65 test/dm/built-in.o
 .debug_info    0x0000000000169872       0x69 arch/arm/lib/lib.a(ashldi3.o)
 .debug_info    0x00000000001698db       0x69 arch/arm/lib/lib.a(ashrdi3.o)
 .debug_info    0x0000000000169944       0x67 arch/arm/lib/lib.a(lib1funcs.o)
 .debug_info    0x00000000001699ab       0x69 arch/arm/lib/lib.a(lshrdi3.o)
 .debug_info    0x0000000000169a14       0x53 arch/arm/lib/lib.a(div0.o)

.debug_abbrev   0x0000000000000000    0x3359b
 .debug_abbrev  0x0000000000000000       0x14 arch/arm/cpu/armv7/start.o
 .debug_abbrev  0x0000000000000014      0x3d8 board/ti/am335x/built-in.o
 .debug_abbrev  0x00000000000003ec      0x47b arch/arm/cpu/armv7/built-in.o
 .debug_abbrev  0x0000000000000867     0x1187 arch/arm/lib/built-in.o
 .debug_abbrev  0x00000000000019ee     0x1c46 arch/arm/mach-omap2/built-in.o
 .debug_abbrev  0x0000000000003634      0x436 board/ti/common/built-in.o
 .debug_abbrev  0x0000000000003a6a     0x800b cmd/built-in.o
 .debug_abbrev  0x000000000000ba75     0x7405 common/built-in.o
 .debug_abbrev  0x0000000000012e7a     0x1102 disk/built-in.o
 .debug_abbrev  0x0000000000013f7c     0x6371 drivers/built-in.o
 .debug_abbrev  0x000000000001a2ed      0x8bd drivers/gpio/built-in.o
 .debug_abbrev  0x000000000001abaa      0xc0e drivers/i2c/built-in.o
 .debug_abbrev  0x000000000001b7b8      0x612 drivers/mtd/built-in.o
 .debug_abbrev  0x000000000001bdca     0x1f0e drivers/mtd/nand/built-in.o
 .debug_abbrev  0x000000000001dcd8      0xa79 drivers/mtd/spi/built-in.o
 .debug_abbrev  0x000000000001e751      0x752 drivers/net/built-in.o
 .debug_abbrev  0x000000000001eea3      0x954 drivers/net/phy/built-in.o
 .debug_abbrev  0x000000000001f7f7      0x920 drivers/serial/built-in.o
 .debug_abbrev  0x0000000000020117      0x5d0 drivers/spi/built-in.o
 .debug_abbrev  0x00000000000206e7      0x1c2 drivers/usb/common/built-in.o
 .debug_abbrev  0x00000000000208a9     0x20ea drivers/usb/gadget/built-in.o
 .debug_abbrev  0x0000000000022993      0x555 drivers/usb/host/built-in.o
 .debug_abbrev  0x0000000000022ee8     0x25bb drivers/usb/musb-new/built-in.o
 .debug_abbrev  0x00000000000254a3     0x1076 env/built-in.o
 .debug_abbrev  0x0000000000026519     0x2199 fs/built-in.o
 .debug_abbrev  0x00000000000286b2     0x8b35 lib/built-in.o
 .debug_abbrev  0x00000000000311e7     0x20ee net/built-in.o
 .debug_abbrev  0x00000000000332d5      0x22b test/dm/built-in.o
 .debug_abbrev  0x0000000000033500       0x14 arch/arm/lib/lib.a(ashldi3.o)
 .debug_abbrev  0x0000000000033514       0x14 arch/arm/lib/lib.a(ashrdi3.o)
 .debug_abbrev  0x0000000000033528       0x12 arch/arm/lib/lib.a(lib1funcs.o)
 .debug_abbrev  0x000000000003353a       0x14 arch/arm/lib/lib.a(lshrdi3.o)
 .debug_abbrev  0x000000000003354e       0x4d arch/arm/lib/lib.a(div0.o)

.debug_aranges  0x0000000000000000     0x6968
 .debug_aranges
                0x0000000000000000       0x20 arch/arm/cpu/armv7/start.o
 .debug_aranges
                0x0000000000000020       0x40 board/ti/am335x/built-in.o
 .debug_aranges
                0x0000000000000060      0x120 arch/arm/cpu/armv7/built-in.o
 .debug_aranges
                0x0000000000000180      0x300 arch/arm/lib/built-in.o
 .debug_aranges
                0x0000000000000480      0x380 arch/arm/mach-omap2/built-in.o
 .debug_aranges
                0x0000000000000800       0xa8 board/ti/common/built-in.o
 .debug_aranges
                0x00000000000008a8      0xbb8 cmd/built-in.o
 .debug_aranges
                0x0000000000001460     0x1140 common/built-in.o
 .debug_aranges
                0x00000000000025a0      0x1a8 disk/built-in.o
 .debug_aranges
                0x0000000000002748      0xbf8 drivers/built-in.o
 .debug_aranges
                0x0000000000003340      0x1c0 drivers/gpio/built-in.o
 .debug_aranges
                0x0000000000003500      0x188 drivers/i2c/built-in.o
 .debug_aranges
                0x0000000000003688      0x130 drivers/mtd/built-in.o
 .debug_aranges
                0x00000000000037b8      0x438 drivers/mtd/nand/built-in.o
 .debug_aranges
                0x0000000000003bf0       0xe0 drivers/mtd/spi/built-in.o
 .debug_aranges
                0x0000000000003cd0       0xe0 drivers/net/built-in.o
 .debug_aranges
                0x0000000000003db0      0x130 drivers/net/phy/built-in.o
 .debug_aranges
                0x0000000000003ee0      0x138 drivers/serial/built-in.o
 .debug_aranges
                0x0000000000004018       0x90 drivers/spi/built-in.o
 .debug_aranges
                0x00000000000040a8       0x20 drivers/usb/common/built-in.o
 .debug_aranges
                0x00000000000040c8      0x4e0 drivers/usb/gadget/built-in.o
 .debug_aranges
                0x00000000000045a8       0xc8 drivers/usb/host/built-in.o
 .debug_aranges
                0x0000000000004670      0x328 drivers/usb/musb-new/built-in.o
 .debug_aranges
                0x0000000000004998      0x198 env/built-in.o
 .debug_aranges
                0x0000000000004b30      0x4c0 fs/built-in.o
 .debug_aranges
                0x0000000000004ff0     0x1450 lib/built-in.o
 .debug_aranges
                0x0000000000006440      0x428 net/built-in.o
 .debug_aranges
                0x0000000000006868       0x38 test/dm/built-in.o
 .debug_aranges
                0x00000000000068a0       0x20 arch/arm/lib/lib.a(ashldi3.o)
 .debug_aranges
                0x00000000000068c0       0x20 arch/arm/lib/lib.a(ashrdi3.o)
 .debug_aranges
                0x00000000000068e0       0x48 arch/arm/lib/lib.a(lib1funcs.o)
 .debug_aranges
                0x0000000000006928       0x20 arch/arm/lib/lib.a(lshrdi3.o)
 .debug_aranges
                0x0000000000006948       0x20 arch/arm/lib/lib.a(div0.o)

.debug_frame    0x0000000000000000    0x1222c
 .debug_frame   0x0000000000000000       0x94 board/ti/am335x/built-in.o
 .debug_frame   0x0000000000000094      0x1cc arch/arm/cpu/armv7/built-in.o
 .debug_frame   0x0000000000000260      0x464 arch/arm/lib/built-in.o
 .debug_frame   0x00000000000006c4      0x60c arch/arm/mach-omap2/built-in.o
 .debug_frame   0x0000000000000cd0      0x1c0 board/ti/common/built-in.o
 .debug_frame   0x0000000000000e90     0x1ed0 cmd/built-in.o
 .debug_frame   0x0000000000002d60     0x310c common/built-in.o
 .debug_frame   0x0000000000005e6c      0x584 disk/built-in.o
 .debug_frame   0x00000000000063f0     0x1f70 drivers/built-in.o
 .debug_frame   0x0000000000008360      0x5cc drivers/gpio/built-in.o
 .debug_frame   0x000000000000892c      0x4bc drivers/i2c/built-in.o
 .debug_frame   0x0000000000008de8      0x3fc drivers/mtd/built-in.o
 .debug_frame   0x00000000000091e4      0xdac drivers/mtd/nand/built-in.o
 .debug_frame   0x0000000000009f90      0x224 drivers/mtd/spi/built-in.o
 .debug_frame   0x000000000000a1b4      0x2a8 drivers/net/built-in.o
 .debug_frame   0x000000000000a45c      0x33c drivers/net/phy/built-in.o
 .debug_frame   0x000000000000a798      0x32c drivers/serial/built-in.o
 .debug_frame   0x000000000000aac4      0x140 drivers/spi/built-in.o
 .debug_frame   0x000000000000ac04       0x2c drivers/usb/common/built-in.o
 .debug_frame   0x000000000000ac30      0xdb4 drivers/usb/gadget/built-in.o
 .debug_frame   0x000000000000b9e4      0x290 drivers/usb/host/built-in.o
 .debug_frame   0x000000000000bc74      0x9a4 drivers/usb/musb-new/built-in.o
 .debug_frame   0x000000000000c618      0x448 env/built-in.o
 .debug_frame   0x000000000000ca60      0xf64 fs/built-in.o
 .debug_frame   0x000000000000d9c4     0x3bc8 lib/built-in.o
 .debug_frame   0x000000000001158c      0xc10 net/built-in.o
 .debug_frame   0x000000000001219c       0x70 test/dm/built-in.o
 .debug_frame   0x000000000001220c       0x20 arch/arm/lib/lib.a(div0.o)

.debug_str      0x0000000000000000    0x22c80
 .debug_str     0x0000000000000000      0xd08 board/ti/am335x/built-in.o
                                        0xfac (size before relaxing)
 .debug_str     0x0000000000000d08      0x363 arch/arm/cpu/armv7/built-in.o
                                        0xd7a (size before relaxing)
 .debug_str     0x000000000000106b     0x1508 arch/arm/lib/built-in.o
                                       0x44ba (size before relaxing)
 .debug_str     0x0000000000002573     0x2ce2 arch/arm/mach-omap2/built-in.o
                                       0x8347 (size before relaxing)
 .debug_str     0x0000000000005255      0x291 board/ti/common/built-in.o
                                        0xdb3 (size before relaxing)
 .debug_str     0x00000000000054e6     0x65fa cmd/built-in.o
                                      0x1bd1d (size before relaxing)
 .debug_str     0x000000000000bae0     0x449a common/built-in.o
                                      0x1e378 (size before relaxing)
 .debug_str     0x000000000000ff7a      0x9b4 disk/built-in.o
                                       0x27f3 (size before relaxing)
 .debug_str     0x000000000001092e     0x2be2 drivers/built-in.o
                                      0x1bef7 (size before relaxing)
 .debug_str     0x0000000000013510      0x4b3 drivers/gpio/built-in.o
                                       0x2385 (size before relaxing)
 .debug_str     0x00000000000139c3      0x53d drivers/i2c/built-in.o
                                       0x309a (size before relaxing)
 .debug_str     0x0000000000013f00      0x24b drivers/mtd/built-in.o
                                        0xcb8 (size before relaxing)
 .debug_str     0x000000000001414b     0x187d drivers/mtd/nand/built-in.o
                                       0x8a3c (size before relaxing)
 .debug_str     0x00000000000159c8      0x3ba drivers/mtd/spi/built-in.o
                                       0x2f27 (size before relaxing)
 .debug_str     0x0000000000015d82      0x9af drivers/net/built-in.o
                                       0x2948 (size before relaxing)
 .debug_str     0x0000000000016731      0x317 drivers/net/phy/built-in.o
                                       0x1e99 (size before relaxing)
 .debug_str     0x0000000000016a48      0x4b1 drivers/serial/built-in.o
                                       0x2120 (size before relaxing)
 .debug_str     0x0000000000016ef9      0x164 drivers/spi/built-in.o
                                       0x11b5 (size before relaxing)
 .debug_str     0x000000000001705d       0x94 drivers/usb/common/built-in.o
                                        0x615 (size before relaxing)
 .debug_str     0x00000000000170f1     0x1dea drivers/usb/gadget/built-in.o
                                       0x8628 (size before relaxing)
 .debug_str     0x0000000000018edb      0x264 drivers/usb/host/built-in.o
                                       0x1803 (size before relaxing)
 .debug_str     0x000000000001913f     0x1957 drivers/usb/musb-new/built-in.o
                                       0xeebd (size before relaxing)
 .debug_str     0x000000000001aa96      0x5fe env/built-in.o
                                       0x312a (size before relaxing)
 .debug_str     0x000000000001b094     0x20d2 fs/built-in.o
                                       0x71e1 (size before relaxing)
 .debug_str     0x000000000001d166     0x46af lib/built-in.o
                                      0x17a58 (size before relaxing)
 .debug_str     0x0000000000021815     0x13d1 net/built-in.o
                                       0x817e (size before relaxing)
 .debug_str     0x0000000000022be6       0x7c test/dm/built-in.o
                                        0xd91 (size before relaxing)
 .debug_str     0x0000000000022c62       0x1e arch/arm/lib/lib.a(div0.o)
                                        0x18a (size before relaxing)

.debug_loc      0x0000000000000000    0xb2cb4
 .debug_loc     0x0000000000000000      0x556 board/ti/am335x/built-in.o
 .debug_loc     0x0000000000000556      0x403 arch/arm/cpu/armv7/built-in.o
 .debug_loc     0x0000000000000959      0xcd7 arch/arm/lib/built-in.o
 .debug_loc     0x0000000000001630     0x21e7 arch/arm/mach-omap2/built-in.o
 .debug_loc     0x0000000000003817      0x868 board/ti/common/built-in.o
 .debug_loc     0x000000000000407f    0x16577 cmd/built-in.o
 .debug_loc     0x000000000001a5f6    0x185b4 common/built-in.o
 .debug_loc     0x0000000000032baa     0x33de disk/built-in.o
 .debug_loc     0x0000000000035f88     0xd39f drivers/built-in.o
 .debug_loc     0x0000000000043327     0x1f7b drivers/gpio/built-in.o
 .debug_loc     0x00000000000452a2     0x2705 drivers/i2c/built-in.o
 .debug_loc     0x00000000000479a7     0x1710 drivers/mtd/built-in.o
 .debug_loc     0x00000000000490b7     0xc8ba drivers/mtd/nand/built-in.o
 .debug_loc     0x0000000000055971     0x121f drivers/mtd/spi/built-in.o
 .debug_loc     0x0000000000056b90     0x1fa7 drivers/net/built-in.o
 .debug_loc     0x0000000000058b37     0x18c9 drivers/net/phy/built-in.o
 .debug_loc     0x000000000005a400      0xe03 drivers/serial/built-in.o
 .debug_loc     0x000000000005b203      0xdda drivers/spi/built-in.o
 .debug_loc     0x000000000005bfdd       0x86 drivers/usb/common/built-in.o
 .debug_loc     0x000000000005c063     0x8c3f drivers/usb/gadget/built-in.o
 .debug_loc     0x0000000000064ca2     0x1659 drivers/usb/host/built-in.o
 .debug_loc     0x00000000000662fb     0xbacf drivers/usb/musb-new/built-in.o
 .debug_loc     0x0000000000071dca     0x1655 env/built-in.o
 .debug_loc     0x000000000007341f     0xdee4 fs/built-in.o
 .debug_loc     0x0000000000081303    0x2c553 lib/built-in.o
 .debug_loc     0x00000000000ad856     0x51f3 net/built-in.o
 .debug_loc     0x00000000000b2a49      0x26b test/dm/built-in.o

.debug_ranges   0x0000000000000000     0xd4b8
 .debug_ranges  0x0000000000000000       0xf0 board/ti/am335x/built-in.o
 .debug_ranges  0x00000000000000f0       0xd8 arch/arm/cpu/armv7/built-in.o
 .debug_ranges  0x00000000000001c8      0x2b0 arch/arm/lib/built-in.o
 .debug_ranges  0x0000000000000478      0x470 arch/arm/mach-omap2/built-in.o
 .debug_ranges  0x00000000000008e8       0xe0 board/ti/common/built-in.o
 .debug_ranges  0x00000000000009c8     0x1728 cmd/built-in.o
 .debug_ranges  0x00000000000020f0     0x1c68 common/built-in.o
 .debug_ranges  0x0000000000003d58      0x6f8 disk/built-in.o
 .debug_ranges  0x0000000000004450     0x1210 drivers/built-in.o
 .debug_ranges  0x0000000000005660      0x278 drivers/gpio/built-in.o
 .debug_ranges  0x00000000000058d8      0x438 drivers/i2c/built-in.o
 .debug_ranges  0x0000000000005d10      0x110 drivers/mtd/built-in.o
 .debug_ranges  0x0000000000005e20      0xe10 drivers/mtd/nand/built-in.o
 .debug_ranges  0x0000000000006c30      0x120 drivers/mtd/spi/built-in.o
 .debug_ranges  0x0000000000006d50      0x2d0 drivers/net/built-in.o
 .debug_ranges  0x0000000000007020      0x360 drivers/net/phy/built-in.o
 .debug_ranges  0x0000000000007380      0x1b8 drivers/serial/built-in.o
 .debug_ranges  0x0000000000007538      0x198 drivers/spi/built-in.o
 .debug_ranges  0x00000000000076d0       0x10 drivers/usb/common/built-in.o
 .debug_ranges  0x00000000000076e0      0xcc8 drivers/usb/gadget/built-in.o
 .debug_ranges  0x00000000000083a8       0xf0 drivers/usb/host/built-in.o
 .debug_ranges  0x0000000000008498     0x1128 drivers/usb/musb-new/built-in.o
 .debug_ranges  0x00000000000095c0      0x1d8 env/built-in.o
 .debug_ranges  0x0000000000009798     0x1140 fs/built-in.o
 .debug_ranges  0x000000000000a8d8     0x22a8 lib/built-in.o
 .debug_ranges  0x000000000000cb80      0x8c0 net/built-in.o
 .debug_ranges  0x000000000000d440       0x28 test/dm/built-in.o
 .debug_ranges  0x000000000000d468       0x40 arch/arm/lib/lib.a(lib1funcs.o)
 .debug_ranges  0x000000000000d4a8       0x10 arch/arm/lib/lib.a(div0.o)
